---
triple:          'arm64-apple-darwin'
binary-path:     'target/profiling/deps/libdjango_template_oxide.dylib'
relocations:
  - { offset: 0x4C, size: 0x8, addend: 0x0, symName: __MergedGlobals.2205, symObjAddr: 0x1755320, symBinAddr: 0x2054F0, symSize: 0x0 }
  - { offset: 0xEC, size: 0x8, addend: 0x0, symName: __MergedGlobals.2205, symObjAddr: 0x1755320, symBinAddr: 0x2054F0, symSize: 0x0 }
  - { offset: 0x18C, size: 0x8, addend: 0x0, symName: __MergedGlobals.2205, symObjAddr: 0x1755320, symBinAddr: 0x2054F0, symSize: 0x0 }
  - { offset: 0x3F8, size: 0x8, addend: 0x0, symName: '__ZN108_$LT$django_template_oxide..errors..TemplateError$u20$as$u20$core..convert..From$LT$pyo3..err..PyErr$GT$$GT$4from17h182bc0329a763b0aE', symObjAddr: 0x32B4, symBinAddr: 0x3AE8, symSize: 0x308 }
  - { offset: 0x10BA, size: 0x8, addend: 0x0, symName: '__ZN21django_template_oxide6errors118_$LT$impl$u20$core..convert..From$LT$django_template_oxide..errors..TemplateError$GT$$u20$for$u20$pyo3..err..PyErr$GT$4from17had0938a328c24819E', symObjAddr: 0x31AFC, symBinAddr: 0x3205C, symSize: 0x934 }
  - { offset: 0x3895, size: 0x8, addend: 0x0, symName: '__ZN100_$LT$django_template_oxide..py_bindings..PyTemplate$u20$as$u20$pyo3..impl_..pyclass..PyClassImpl$GT$10items_iter15INTRINSIC_ITEMS17hc7a21daf0ea4e18bE', symObjAddr: 0x158FE0, symBinAddr: 0x159550, symSize: 0x0 }
  - { offset: 0x38B6, size: 0x8, addend: 0x0, symName: __MergedGlobals, symObjAddr: 0x1D64E0, symBinAddr: 0x204EC8, symSize: 0x0 }
  - { offset: 0x3AC6, size: 0x8, addend: 0x0, symName: '__ZN109_$LT$django_template_oxide..py_bindings..NativeFilterWrapper$u20$as$u20$pyo3..impl_..pyclass..PyClassImpl$GT$10items_iter15INTRINSIC_ITEMS17h022db5a9c43b3f4fE', symObjAddr: 0x1ABB80, symBinAddr: 0x1DC268, symSize: 0x0 }
  - { offset: 0x3AE7, size: 0x8, addend: 0x0, symName: __MergedGlobals, symObjAddr: 0x1D64E0, symBinAddr: 0x204EC8, symSize: 0x0 }
  - { offset: 0x3BED, size: 0x8, addend: 0x0, symName: __MergedGlobals, symObjAddr: 0x1D64E0, symBinAddr: 0x204EC8, symSize: 0x0 }
  - { offset: 0x3C6F, size: 0x8, addend: 0x0, symName: '__ZN21django_template_oxide11py_bindings208_$LT$impl$u20$pyo3..impl_..pyclass..PyMethods$LT$django_template_oxide..py_bindings..PyEngine$GT$$u20$for$u20$pyo3..impl_..pyclass..PyClassImplCollector$LT$django_template_oxide..py_bindings..PyEngine$GT$$GT$10py_methods5ITEMS17h4248d8fedaa20a49E', symObjAddr: 0x1ABF98, symBinAddr: 0x1DC680, symSize: 0x0 }
  - { offset: 0x3CC3, size: 0x8, addend: 0x0, symName: '__ZN21django_template_oxide11py_bindings210_$LT$impl$u20$pyo3..impl_..pyclass..PyMethods$LT$django_template_oxide..py_bindings..PyContext$GT$$u20$for$u20$pyo3..impl_..pyclass..PyClassImplCollector$LT$django_template_oxide..py_bindings..PyContext$GT$$GT$10py_methods5ITEMS17ha6b3188eaa093d3dE', symObjAddr: 0x1AC328, symBinAddr: 0x1DCA10, symSize: 0x0 }
  - { offset: 0x3DC9, size: 0x8, addend: 0x0, symName: '__ZN21django_template_oxide11py_bindings212_$LT$impl$u20$pyo3..impl_..pyclass..PyMethods$LT$django_template_oxide..py_bindings..PyTemplate$GT$$u20$for$u20$pyo3..impl_..pyclass..PyClassImplCollector$LT$django_template_oxide..py_bindings..PyTemplate$GT$$GT$10py_methods5ITEMS17hb0e5b95254420436E', symObjAddr: 0x1AC480, symBinAddr: 0x1DCB68, symSize: 0x0 }
  - { offset: 0x3E0E, size: 0x8, addend: 0x0, symName: '__ZN21django_template_oxide11py_bindings230_$LT$impl$u20$pyo3..impl_..pyclass..PyMethods$LT$django_template_oxide..py_bindings..NativeFilterWrapper$GT$$u20$for$u20$pyo3..impl_..pyclass..PyClassImplCollector$LT$django_template_oxide..py_bindings..NativeFilterWrapper$GT$$GT$10py_methods5ITEMS17hafec68cd61bc6f5fE', symObjAddr: 0x1AC4C0, symBinAddr: 0x1DCBA8, symSize: 0x0 }
  - { offset: 0x3E4B, size: 0x8, addend: 0x0, symName: '__ZN98_$LT$django_template_oxide..py_bindings..PyEngine$u20$as$u20$pyo3..impl_..pyclass..PyClassImpl$GT$10items_iter15INTRINSIC_ITEMS17h1053c02ced51dfefE', symObjAddr: 0x15AC20, symBinAddr: 0x15B160, symSize: 0x0 }
  - { offset: 0x3E6C, size: 0x8, addend: 0x0, symName: __MergedGlobals, symObjAddr: 0x1D64E0, symBinAddr: 0x204EC8, symSize: 0x0 }
  - { offset: 0x412B, size: 0x8, addend: 0x0, symName: '__ZN99_$LT$django_template_oxide..py_bindings..PyContext$u20$as$u20$pyo3..impl_..pyclass..PyClassImpl$GT$10items_iter15INTRINSIC_ITEMS17h4262d3a5b15f9956E', symObjAddr: 0x15AC40, symBinAddr: 0x15B180, symSize: 0x0 }
  - { offset: 0x414B, size: 0x8, addend: 0x0, symName: __MergedGlobals, symObjAddr: 0x1D64E0, symBinAddr: 0x204EC8, symSize: 0x0 }
  - { offset: 0x4798, size: 0x8, addend: 0x0, symName: __ZN21django_template_oxide11py_bindings11py_to_value17he7dc5ef38b4d7959E, symObjAddr: 0xE31C, symBinAddr: 0xE87C, symSize: 0x324 }
  - { offset: 0x4DB7, size: 0x8, addend: 0x0, symName: __ZN21django_template_oxide11py_bindings22context_dict_to_pydict17h0dd0b2116b8bc30cE, symObjAddr: 0xE8AC, symBinAddr: 0xEE0C, symSize: 0x164 }
  - { offset: 0x5529, size: 0x8, addend: 0x0, symName: __ZN21django_template_oxide11py_bindings29__pyfunction_render_to_string17hfafe3db65ba001aeE, symObjAddr: 0xEA10, symBinAddr: 0xEF70, symSize: 0x83C }
  - { offset: 0x78CC, size: 0x8, addend: 0x0, symName: __MergedGlobals, symObjAddr: 0x1D64E0, symBinAddr: 0x204EC8, symSize: 0x0 }
  - { offset: 0x796D, size: 0x8, addend: 0x0, symName: '__ZN21django_template_oxide5nodes19PRIMITIVE_TYPE_PTRS29_$u7b$$u7b$constant$u7d$$u7d$28_$u7b$$u7b$closure$u7d$$u7d$23__RUST_STD_INTERNAL_VAL17h4cb17db0fd3621f3E', symObjAddr: 0x1D59A0, symBinAddr: 0x2052A8, symSize: 0x0 }
  - { offset: 0x7ED1, size: 0x8, addend: 0x0, symName: __ZN21django_template_oxide5nodes18resolve_filter_arg17hf66d80abf924cf22E, symObjAddr: 0x28C18, symBinAddr: 0x29178, symSize: 0x2A8 }
  - { offset: 0x8783, size: 0x8, addend: 0x0, symName: __ZN21django_template_oxide5nodes21resolve_base_variable17h9814ace0ee76e505E, symObjAddr: 0x28EC0, symBinAddr: 0x29420, symSize: 0x564 }
  - { offset: 0x98D2, size: 0x8, addend: 0x0, symName: __ZN21django_template_oxide5nodes21resolve_variable_rust17hc449234e9a13901fE, symObjAddr: 0x29424, symBinAddr: 0x29984, symSize: 0x1BC }
  - { offset: 0x9C8F, size: 0x8, addend: 0x0, symName: __ZN21django_template_oxide5nodes22apply_translation_rust17hbaf700a73087765eE, symObjAddr: 0x295E0, symBinAddr: 0x29B40, symSize: 0xC00 }
  - { offset: 0xBDB9, size: 0x8, addend: 0x0, symName: '__ZN21django_template_oxide5nodes23render_value_in_context28_$u7b$$u7b$closure$u7d$$u7d$28_$u7b$$u7b$closure$u7d$$u7d$17h76b7abcb5568aad7E', symObjAddr: 0x2AF74, symBinAddr: 0x2B4D4, symSize: 0x1A4 }
  - { offset: 0xC39A, size: 0x8, addend: 0x0, symName: '__ZN21django_template_oxide5nodes23render_value_in_context28_$u7b$$u7b$closure$u7d$$u7d$28_$u7b$$u7b$closure$u7d$$u7d$17hde3e24c8550e70d4E', symObjAddr: 0x2B118, symBinAddr: 0x2B678, symSize: 0x11C }
  - { offset: 0xC83D, size: 0x8, addend: 0x0, symName: __ZN21django_template_oxide5nodes23render_value_in_context17h4b845dd8a529bc72E, symObjAddr: 0x2A1E0, symBinAddr: 0x2A740, symSize: 0xD94 }
  - { offset: 0xFCC8, size: 0x8, addend: 0x0, symName: '__ZN21django_template_oxide5nodes24resolve_pyobject_lookups28_$u7b$$u7b$closure$u7d$$u7d$28_$u7b$$u7b$closure$u7d$$u7d$28_$u7b$$u7b$closure$u7d$$u7d$28_$u7b$$u7b$closure$u7d$$u7d$17hfe9045b67735c59bE', symObjAddr: 0x2DD70, symBinAddr: 0x2E2D0, symSize: 0x114 }
  - { offset: 0x10147, size: 0x8, addend: 0x0, symName: __ZN21django_template_oxide5nodes24resolve_pyobject_lookups17h7187d651f2717c00E, symObjAddr: 0x2B234, symBinAddr: 0x2B794, symSize: 0x2B3C }
  - { offset: 0x17F67, size: 0x8, addend: 0x0, symName: __ZN21django_template_oxide5nodes25resolve_lookup_arg_native17h9463c8cb4e8490cdE, symObjAddr: 0x2DE84, symBinAddr: 0x2E3E4, symSize: 0x488 }
  - { offset: 0x18A1D, size: 0x8, addend: 0x0, symName: __ZN21django_template_oxide5nodes25resolve_pyobject_callable17h075bcd57c31998d6E, symObjAddr: 0x2E30C, symBinAddr: 0x2E86C, symSize: 0x694 }
  - { offset: 0x19C60, size: 0x8, addend: 0x0, symName: __ZN21django_template_oxide5nodes32resolve_with_filters_rust_cached17hc3d71dc916a587a7E, symObjAddr: 0x2E9A0, symBinAddr: 0x2EF00, symSize: 0xD70 }
  - { offset: 0x1B695, size: 0x8, addend: 0x0, symName: __ZN21django_template_oxide5nodes4Node13as_text_bytes17h042f5d3388fc74a2E, symObjAddr: 0x2F710, symBinAddr: 0x2FC70, symSize: 0x8 }
  - { offset: 0x1B6C7, size: 0x8, addend: 0x0, symName: __ZN21django_template_oxide5nodes4Node13walk_children17h15d17dc9f2d7c877E, symObjAddr: 0x2F718, symBinAddr: 0x2FC78, symSize: 0x4 }
  - { offset: 0x1B700, size: 0x8, addend: 0x0, symName: __ZN21django_template_oxide5nodes4Node16render_annotated17h01034ea23d1ea7afE, symObjAddr: 0x2F71C, symBinAddr: 0x2FC7C, symSize: 0x4 }
  - { offset: 0x1B72C, size: 0x8, addend: 0x0, symName: __ZN21django_template_oxide5nodes4Node16render_annotated17h0560632385f8bd31E, symObjAddr: 0x2F720, symBinAddr: 0x2FC80, symSize: 0x4 }
  - { offset: 0x1B758, size: 0x8, addend: 0x0, symName: __ZN21django_template_oxide5nodes4Node16render_annotated17h1038525f86958a43E, symObjAddr: 0x2F724, symBinAddr: 0x2FC84, symSize: 0x4 }
  - { offset: 0x1B784, size: 0x8, addend: 0x0, symName: __ZN21django_template_oxide5nodes4Node16render_annotated17h103d5a6fcdf5b2c6E, symObjAddr: 0x2F728, symBinAddr: 0x2FC88, symSize: 0x4 }
  - { offset: 0x1B7B0, size: 0x8, addend: 0x0, symName: __ZN21django_template_oxide5nodes4Node16render_annotated17h121829187483c336E, symObjAddr: 0x2F72C, symBinAddr: 0x2FC8C, symSize: 0xBC }
  - { offset: 0x1BB20, size: 0x8, addend: 0x0, symName: __ZN21django_template_oxide5nodes4Node16render_annotated17h1af797282835ed77E, symObjAddr: 0x2F7E8, symBinAddr: 0x2FD48, symSize: 0x4 }
  - { offset: 0x1BB4C, size: 0x8, addend: 0x0, symName: __ZN21django_template_oxide5nodes4Node16render_annotated17h2a36b612933286edE, symObjAddr: 0x2F7EC, symBinAddr: 0x2FD4C, symSize: 0x4 }
  - { offset: 0x1BB78, size: 0x8, addend: 0x0, symName: __ZN21django_template_oxide5nodes4Node16render_annotated17h381914aec59a3a3fE, symObjAddr: 0x2F7F0, symBinAddr: 0x2FD50, symSize: 0x4 }
  - { offset: 0x1BBA4, size: 0x8, addend: 0x0, symName: __ZN21django_template_oxide5nodes4Node16render_annotated17h38eff5d31d9dc8cbE, symObjAddr: 0x2F7F4, symBinAddr: 0x2FD54, symSize: 0x4 }
  - { offset: 0x1BBD0, size: 0x8, addend: 0x0, symName: __ZN21django_template_oxide5nodes4Node16render_annotated17h469ce6912b4a19b2E, symObjAddr: 0x2F7F8, symBinAddr: 0x2FD58, symSize: 0x4 }
  - { offset: 0x1BC24, size: 0x8, addend: 0x0, symName: __ZN21django_template_oxide5nodes4Node16render_annotated17h4a366d93caca3550E, symObjAddr: 0x2F7FC, symBinAddr: 0x2FD5C, symSize: 0x4 }
  - { offset: 0x1BC50, size: 0x8, addend: 0x0, symName: __ZN21django_template_oxide5nodes4Node16render_annotated17h5923a068270b9b42E, symObjAddr: 0x2F800, symBinAddr: 0x2FD60, symSize: 0x4 }
  - { offset: 0x1BC7C, size: 0x8, addend: 0x0, symName: __ZN21django_template_oxide5nodes4Node16render_annotated17h5ae063a751fce3efE, symObjAddr: 0x2F804, symBinAddr: 0x2FD64, symSize: 0x4 }
  - { offset: 0x1BCA8, size: 0x8, addend: 0x0, symName: __ZN21django_template_oxide5nodes4Node16render_annotated17h5d6be00fac88be92E, symObjAddr: 0x2F808, symBinAddr: 0x2FD68, symSize: 0x4 }
  - { offset: 0x1BCD4, size: 0x8, addend: 0x0, symName: __ZN21django_template_oxide5nodes4Node16render_annotated17h6be9721dcf3e9322E, symObjAddr: 0x2F80C, symBinAddr: 0x2FD6C, symSize: 0x4 }
  - { offset: 0x1BD00, size: 0x8, addend: 0x0, symName: __ZN21django_template_oxide5nodes4Node16render_annotated17h6f85f082e8277ebeE, symObjAddr: 0x2F810, symBinAddr: 0x2FD70, symSize: 0x4 }
  - { offset: 0x1BD2C, size: 0x8, addend: 0x0, symName: __ZN21django_template_oxide5nodes4Node16render_annotated17h739d34a17c0c154eE, symObjAddr: 0x2F814, symBinAddr: 0x2FD74, symSize: 0x18 }
  - { offset: 0x1BD90, size: 0x8, addend: 0x0, symName: __ZN21django_template_oxide5nodes4Node16render_annotated17h7b49457c9de4134eE, symObjAddr: 0x2F82C, symBinAddr: 0x2FD8C, symSize: 0x4 }
  - { offset: 0x1BDBC, size: 0x8, addend: 0x0, symName: __ZN21django_template_oxide5nodes4Node16render_annotated17h806530b42f1b7cecE, symObjAddr: 0x2F830, symBinAddr: 0x2FD90, symSize: 0x4 }
  - { offset: 0x1BE10, size: 0x8, addend: 0x0, symName: __ZN21django_template_oxide5nodes4Node16render_annotated17h8972c0a641be1e51E, symObjAddr: 0x2F834, symBinAddr: 0x2FD94, symSize: 0x54 }
  - { offset: 0x1BE96, size: 0x8, addend: 0x0, symName: __ZN21django_template_oxide5nodes4Node16render_annotated17h90e15d4ff972c7f4E, symObjAddr: 0x2F888, symBinAddr: 0x2FDE8, symSize: 0x4 }
  - { offset: 0x1BEC2, size: 0x8, addend: 0x0, symName: __ZN21django_template_oxide5nodes4Node16render_annotated17h952d026487639787E, symObjAddr: 0x2F88C, symBinAddr: 0x2FDEC, symSize: 0x4 }
  - { offset: 0x1BEEC, size: 0x8, addend: 0x0, symName: __ZN21django_template_oxide5nodes4Node16render_annotated17h97d439b72e739f97E, symObjAddr: 0x2F890, symBinAddr: 0x2FDF0, symSize: 0x4 }
  - { offset: 0x1BF18, size: 0x8, addend: 0x0, symName: __ZN21django_template_oxide5nodes4Node16render_annotated17haafb4c41b4be3c7bE, symObjAddr: 0x2F894, symBinAddr: 0x2FDF4, symSize: 0x4 }
  - { offset: 0x1BF44, size: 0x8, addend: 0x0, symName: __ZN21django_template_oxide5nodes4Node16render_annotated17hb42152850a5261c3E, symObjAddr: 0x2F898, symBinAddr: 0x2FDF8, symSize: 0x4 }
  - { offset: 0x1BF70, size: 0x8, addend: 0x0, symName: __ZN21django_template_oxide5nodes4Node16render_annotated17hc1083cb577999558E, symObjAddr: 0x2F89C, symBinAddr: 0x2FDFC, symSize: 0x4 }
  - { offset: 0x1BF9C, size: 0x8, addend: 0x0, symName: __ZN21django_template_oxide5nodes4Node16render_annotated17hca608bec7034c7c6E, symObjAddr: 0x2F8A0, symBinAddr: 0x2FE00, symSize: 0x11C }
  - { offset: 0x1C347, size: 0x8, addend: 0x0, symName: __ZN21django_template_oxide5nodes4Node16render_annotated17hd53e10fc730df816E, symObjAddr: 0x2F9BC, symBinAddr: 0x2FF1C, symSize: 0x4 }
  - { offset: 0x1C373, size: 0x8, addend: 0x0, symName: __ZN21django_template_oxide5nodes4Node16render_annotated17hdd9b61e8ad3d7be4E, symObjAddr: 0x2F9C0, symBinAddr: 0x2FF20, symSize: 0x4 }
  - { offset: 0x1C39F, size: 0x8, addend: 0x0, symName: __ZN21django_template_oxide5nodes4Node16render_annotated17he27027705c170f21E, symObjAddr: 0x2F9C4, symBinAddr: 0x2FF24, symSize: 0x4 }
  - { offset: 0x1C3CB, size: 0x8, addend: 0x0, symName: __ZN21django_template_oxide5nodes4Node16render_annotated17hec79c953b3203587E, symObjAddr: 0x2F9C8, symBinAddr: 0x2FF28, symSize: 0x4 }
  - { offset: 0x1C3F5, size: 0x8, addend: 0x0, symName: __ZN21django_template_oxide5nodes4Node16render_annotated17hf1c445f0d1d8774cE, symObjAddr: 0x2F9CC, symBinAddr: 0x2FF2C, symSize: 0x4 }
  - { offset: 0x1C421, size: 0x8, addend: 0x0, symName: __ZN21django_template_oxide5nodes4Node17as_block_node_ref17h020452d4f4484036E, symObjAddr: 0x2F9D0, symBinAddr: 0x2FF30, symSize: 0xC }
  - { offset: 0x1C453, size: 0x8, addend: 0x0, symName: __ZN21django_template_oxide5nodes4Node18get_child_nodelist17h0d1c1dec005ad539E, symObjAddr: 0x2F9DC, symBinAddr: 0x2FF3C, symSize: 0x8 }
  - { offset: 0x1C4D3, size: 0x8, addend: 0x0, symName: __ZN21django_template_oxide5nodes4Node21render_annotated_into17h03d60e6f7c27eef9E, symObjAddr: 0x2F9E4, symBinAddr: 0x2FF44, symSize: 0x10C }
  - { offset: 0x1CB6D, size: 0x8, addend: 0x0, symName: __ZN21django_template_oxide5nodes4Node21render_annotated_into17h14263ac616b4b667E, symObjAddr: 0x2FAF0, symBinAddr: 0x30050, symSize: 0x10C }
  - { offset: 0x1D1CF, size: 0x8, addend: 0x0, symName: __ZN21django_template_oxide5nodes4Node21render_annotated_into17h2394959c4f18c984E, symObjAddr: 0x2FBFC, symBinAddr: 0x3015C, symSize: 0x10 }
  - { offset: 0x1D28D, size: 0x8, addend: 0x0, symName: __ZN21django_template_oxide5nodes4Node21render_annotated_into17h29e6de17ef5e26beE, symObjAddr: 0x2FC0C, symBinAddr: 0x3016C, symSize: 0x10C }
  - { offset: 0x1D932, size: 0x8, addend: 0x0, symName: __ZN21django_template_oxide5nodes4Node21render_annotated_into17h2dc1abc75f1276abE, symObjAddr: 0x2FD18, symBinAddr: 0x30278, symSize: 0x10C }
  - { offset: 0x1DFD7, size: 0x8, addend: 0x0, symName: __ZN21django_template_oxide5nodes4Node21render_annotated_into17h331f0d1d8a0e5a66E, symObjAddr: 0x2FE24, symBinAddr: 0x30384, symSize: 0x10C }
  - { offset: 0x1E67C, size: 0x8, addend: 0x0, symName: __ZN21django_template_oxide5nodes4Node21render_annotated_into17h3c6c382501432b48E, symObjAddr: 0x2FF30, symBinAddr: 0x30490, symSize: 0x10C }
  - { offset: 0x1ED21, size: 0x8, addend: 0x0, symName: __ZN21django_template_oxide5nodes4Node21render_annotated_into17h3c7718a69e14af65E, symObjAddr: 0x3003C, symBinAddr: 0x3059C, symSize: 0x10C }
  - { offset: 0x1F3C6, size: 0x8, addend: 0x0, symName: __ZN21django_template_oxide5nodes4Node21render_annotated_into17h4206a4cccfa174a3E, symObjAddr: 0x30148, symBinAddr: 0x306A8, symSize: 0x10C }
  - { offset: 0x1FA6B, size: 0x8, addend: 0x0, symName: __ZN21django_template_oxide5nodes4Node21render_annotated_into17h5ff1713c988f77e6E, symObjAddr: 0x30254, symBinAddr: 0x307B4, symSize: 0x10C }
  - { offset: 0x20110, size: 0x8, addend: 0x0, symName: __ZN21django_template_oxide5nodes4Node21render_annotated_into17h606d80140cba91a5E, symObjAddr: 0x30360, symBinAddr: 0x308C0, symSize: 0x10C }
  - { offset: 0x207B5, size: 0x8, addend: 0x0, symName: __ZN21django_template_oxide5nodes4Node21render_annotated_into17h61cf406546942fb4E, symObjAddr: 0x3046C, symBinAddr: 0x309CC, symSize: 0x10C }
  - { offset: 0x20E5A, size: 0x8, addend: 0x0, symName: __ZN21django_template_oxide5nodes4Node21render_annotated_into17h62685530288451f0E, symObjAddr: 0x30578, symBinAddr: 0x30AD8, symSize: 0x10C }
  - { offset: 0x214FF, size: 0x8, addend: 0x0, symName: __ZN21django_template_oxide5nodes4Node21render_annotated_into17h7c6ef932e710353cE, symObjAddr: 0x30684, symBinAddr: 0x30BE4, symSize: 0x10C }
  - { offset: 0x21BA4, size: 0x8, addend: 0x0, symName: __ZN21django_template_oxide5nodes4Node21render_annotated_into17h83c66c42d7a77ddeE, symObjAddr: 0x30790, symBinAddr: 0x30CF0, symSize: 0x10C }
  - { offset: 0x22249, size: 0x8, addend: 0x0, symName: __ZN21django_template_oxide5nodes4Node21render_annotated_into17hb156766d98c69678E, symObjAddr: 0x3089C, symBinAddr: 0x30DFC, symSize: 0x10C }
  - { offset: 0x228EE, size: 0x8, addend: 0x0, symName: __ZN21django_template_oxide5nodes4Node21render_annotated_into17hb2662a8129bf92ecE, symObjAddr: 0x309A8, symBinAddr: 0x30F08, symSize: 0x10C }
  - { offset: 0x22F93, size: 0x8, addend: 0x0, symName: __ZN21django_template_oxide5nodes4Node21render_annotated_into17hb5f2fedf2e65e78fE, symObjAddr: 0x30AB4, symBinAddr: 0x31014, symSize: 0x10C }
  - { offset: 0x23638, size: 0x8, addend: 0x0, symName: __ZN21django_template_oxide5nodes4Node21render_annotated_into17hbeb72e58367a7619E, symObjAddr: 0x30BC0, symBinAddr: 0x31120, symSize: 0x10C }
  - { offset: 0x23CDD, size: 0x8, addend: 0x0, symName: __ZN21django_template_oxide5nodes4Node21render_annotated_into17hc3b75bd123c16825E, symObjAddr: 0x30CCC, symBinAddr: 0x3122C, symSize: 0x10C }
  - { offset: 0x24382, size: 0x8, addend: 0x0, symName: __ZN21django_template_oxide5nodes4Node21render_annotated_into17hcee6e3b36550231eE, symObjAddr: 0x30DD8, symBinAddr: 0x31338, symSize: 0x10C }
  - { offset: 0x24A27, size: 0x8, addend: 0x0, symName: __ZN21django_template_oxide5nodes4Node21render_annotated_into17hd80ddd56bb70afdbE, symObjAddr: 0x30EE4, symBinAddr: 0x31444, symSize: 0x10C }
  - { offset: 0x250CC, size: 0x8, addend: 0x0, symName: __ZN21django_template_oxide5nodes4Node21render_annotated_into17he90fb12a233fa171E, symObjAddr: 0x30FF0, symBinAddr: 0x31550, symSize: 0x110 }
  - { offset: 0x25535, size: 0x8, addend: 0x0, symName: __ZN21django_template_oxide5nodes4Node21render_annotated_into17he989b14b790fb815E, symObjAddr: 0x31100, symBinAddr: 0x31660, symSize: 0x10C }
  - { offset: 0x25BCF, size: 0x8, addend: 0x0, symName: __ZN21django_template_oxide5nodes4Node21render_annotated_into17he99f02f2f9171f33E, symObjAddr: 0x3120C, symBinAddr: 0x3176C, symSize: 0x10C }
  - { offset: 0x26274, size: 0x8, addend: 0x0, symName: __ZN21django_template_oxide5nodes4Node21render_annotated_into17hf3950f2e01dbfce9E, symObjAddr: 0x31318, symBinAddr: 0x31878, symSize: 0x10C }
  - { offset: 0x26919, size: 0x8, addend: 0x0, symName: __ZN21django_template_oxide5nodes4Node21render_annotated_into17hf51ac78d3a69e457E, symObjAddr: 0x31424, symBinAddr: 0x31984, symSize: 0x10C }
  - { offset: 0x26FBE, size: 0x8, addend: 0x0, symName: __ZN21django_template_oxide5nodes4Node21render_annotated_into17hf76bf6903e4a0b1eE, symObjAddr: 0x31530, symBinAddr: 0x31A90, symSize: 0x7C }
  - { offset: 0x2714D, size: 0x8, addend: 0x0, symName: __ZN21django_template_oxide5nodes4Node21render_annotated_into17hfd73f09310418b7eE, symObjAddr: 0x315AC, symBinAddr: 0x31B0C, symSize: 0x10C }
  - { offset: 0x278BA, size: 0x8, addend: 0x0, symName: '__ZN75_$LT$django_template_oxide..nodes..NodeList$u20$as$u20$core..fmt..Debug$GT$3fmt17h3d11862944035f89E', symObjAddr: 0x6376C, symBinAddr: 0x62A74, symSize: 0x298 }
  - { offset: 0x27C37, size: 0x8, addend: 0x0, symName: '__ZN75_$LT$django_template_oxide..nodes..TextNode$u20$as$u20$core..fmt..Debug$GT$3fmt17h7909aff76b88e7b5E', symObjAddr: 0x63A04, symBinAddr: 0x62D0C, symSize: 0x220 }
  - { offset: 0x28036, size: 0x8, addend: 0x0, symName: '__ZN79_$LT$django_template_oxide..nodes..VariableNode$u20$as$u20$core..fmt..Debug$GT$3fmt17h2ff7aa4d60f3c620E', symObjAddr: 0x657F4, symBinAddr: 0x64AFC, symSize: 0x418 }
  - { offset: 0x284EA, size: 0x8, addend: 0x0, symName: '__ZN93_$LT$django_template_oxide..nodes..TextNode$u20$as$u20$django_template_oxide..nodes..Node$GT$10set_origin17h5b0360b71968533aE', symObjAddr: 0x6B408, symBinAddr: 0x6A710, symSize: 0xA4 }
  - { offset: 0x2897A, size: 0x8, addend: 0x0, symName: '__ZN93_$LT$django_template_oxide..nodes..TextNode$u20$as$u20$django_template_oxide..nodes..Node$GT$13as_text_bytes17he0ec92a395699bc6E', symObjAddr: 0x6B4AC, symBinAddr: 0x6A7B4, symSize: 0xC }
  - { offset: 0x289AC, size: 0x8, addend: 0x0, symName: '__ZN93_$LT$django_template_oxide..nodes..TextNode$u20$as$u20$django_template_oxide..nodes..Node$GT$13as_text_bytes17he0ec92a395699bc6E', symObjAddr: 0x6B4AC, symBinAddr: 0x6A7B4, symSize: 0xC }
  - { offset: 0x289CB, size: 0x8, addend: 0x0, symName: '__ZN93_$LT$django_template_oxide..nodes..TextNode$u20$as$u20$django_template_oxide..nodes..Node$GT$13as_text_bytes17he0ec92a395699bc6E', symObjAddr: 0x6B4AC, symBinAddr: 0x6A7B4, symSize: 0xC }
  - { offset: 0x289EA, size: 0x8, addend: 0x0, symName: '__ZN93_$LT$django_template_oxide..nodes..TextNode$u20$as$u20$django_template_oxide..nodes..Node$GT$13as_text_bytes17he0ec92a395699bc6E', symObjAddr: 0x6B4AC, symBinAddr: 0x6A7B4, symSize: 0xC }
  - { offset: 0x289FE, size: 0x8, addend: 0x0, symName: '__ZN93_$LT$django_template_oxide..nodes..TextNode$u20$as$u20$django_template_oxide..nodes..Node$GT$16render_annotated17h4e0efd8ae4c89901E', symObjAddr: 0x6B4B8, symBinAddr: 0x6A7C0, symSize: 0x7C }
  - { offset: 0x28DF7, size: 0x8, addend: 0x0, symName: '__ZN93_$LT$django_template_oxide..nodes..TextNode$u20$as$u20$django_template_oxide..nodes..Node$GT$21render_annotated_into17h5d7386208b764e65E', symObjAddr: 0x6B534, symBinAddr: 0x6A83C, symSize: 0x90 }
  - { offset: 0x290FC, size: 0x8, addend: 0x0, symName: '__ZN93_$LT$django_template_oxide..nodes..TextNode$u20$as$u20$django_template_oxide..nodes..Node$GT$5token17h8823e74d8993c54bE', symObjAddr: 0x6B5C4, symBinAddr: 0x6A8CC, symSize: 0x10 }
  - { offset: 0x2912E, size: 0x8, addend: 0x0, symName: '__ZN93_$LT$django_template_oxide..nodes..TextNode$u20$as$u20$django_template_oxide..nodes..Node$GT$5token17h8823e74d8993c54bE', symObjAddr: 0x6B5C4, symBinAddr: 0x6A8CC, symSize: 0x10 }
  - { offset: 0x29148, size: 0x8, addend: 0x0, symName: '__ZN93_$LT$django_template_oxide..nodes..TextNode$u20$as$u20$django_template_oxide..nodes..Node$GT$6origin17he2f73638d311b8b2E', symObjAddr: 0x6B5D4, symBinAddr: 0x6A8DC, symSize: 0x14 }
  - { offset: 0x2917A, size: 0x8, addend: 0x0, symName: '__ZN93_$LT$django_template_oxide..nodes..TextNode$u20$as$u20$django_template_oxide..nodes..Node$GT$6origin17he2f73638d311b8b2E', symObjAddr: 0x6B5D4, symBinAddr: 0x6A8DC, symSize: 0x14 }
  - { offset: 0x29196, size: 0x8, addend: 0x0, symName: '__ZN93_$LT$django_template_oxide..nodes..TextNode$u20$as$u20$django_template_oxide..nodes..Node$GT$9set_token17h18113bc53eeccc08E', symObjAddr: 0x6B5E8, symBinAddr: 0x6A8F0, symSize: 0x54 }
  - { offset: 0x29364, size: 0x8, addend: 0x0, symName: '__ZN97_$LT$django_template_oxide..nodes..VariableNode$u20$as$u20$django_template_oxide..nodes..Node$GT$10set_origin17hbf0f069044f21dd5E', symObjAddr: 0x6E90C, symBinAddr: 0x6DC14, symSize: 0xA4 }
  - { offset: 0x297F4, size: 0x8, addend: 0x0, symName: '__ZN97_$LT$django_template_oxide..nodes..VariableNode$u20$as$u20$django_template_oxide..nodes..Node$GT$21render_annotated_into17ha6594a5de125c285E', symObjAddr: 0x6E9B0, symBinAddr: 0x6DCB8, symSize: 0x384 }
  - { offset: 0x2AB80, size: 0x8, addend: 0x0, symName: '__ZN97_$LT$django_template_oxide..nodes..VariableNode$u20$as$u20$django_template_oxide..nodes..Node$GT$5token17h31b74085067c4aeaE', symObjAddr: 0x6ED34, symBinAddr: 0x6E03C, symSize: 0x10 }
  - { offset: 0x2ABB2, size: 0x8, addend: 0x0, symName: '__ZN97_$LT$django_template_oxide..nodes..VariableNode$u20$as$u20$django_template_oxide..nodes..Node$GT$5token17h31b74085067c4aeaE', symObjAddr: 0x6ED34, symBinAddr: 0x6E03C, symSize: 0x10 }
  - { offset: 0x2ABCC, size: 0x8, addend: 0x0, symName: '__ZN97_$LT$django_template_oxide..nodes..VariableNode$u20$as$u20$django_template_oxide..nodes..Node$GT$6origin17heee0a72f5e554b97E', symObjAddr: 0x6ED44, symBinAddr: 0x6E04C, symSize: 0x14 }
  - { offset: 0x2ABFE, size: 0x8, addend: 0x0, symName: '__ZN97_$LT$django_template_oxide..nodes..VariableNode$u20$as$u20$django_template_oxide..nodes..Node$GT$6origin17heee0a72f5e554b97E', symObjAddr: 0x6ED44, symBinAddr: 0x6E04C, symSize: 0x14 }
  - { offset: 0x2AC1A, size: 0x8, addend: 0x0, symName: '__ZN97_$LT$django_template_oxide..nodes..VariableNode$u20$as$u20$django_template_oxide..nodes..Node$GT$6render17h84e4faaa05afb6e8E', symObjAddr: 0x6ED58, symBinAddr: 0x6E060, symSize: 0x170 }
  - { offset: 0x2ADB7, size: 0x8, addend: 0x0, symName: '__ZN97_$LT$django_template_oxide..nodes..VariableNode$u20$as$u20$django_template_oxide..nodes..Node$GT$9set_token17h07fb804cf340b720E', symObjAddr: 0x6EEC8, symBinAddr: 0x6E1D0, symSize: 0x54 }
  - { offset: 0x2B27C, size: 0x8, addend: 0x0, symName: __MergedGlobals, symObjAddr: 0x1D64E0, symBinAddr: 0x204EC8, symSize: 0x0 }
  - { offset: 0x2B50E, size: 0x8, addend: 0x0, symName: '__ZN86_$LT$django_template_oxide..variable..FilterExpression$u20$as$u20$core..fmt..Debug$GT$3fmt17h30b605d598e9cd13E', symObjAddr: 0x66E08, symBinAddr: 0x66110, symSize: 0xAC }
  - { offset: 0x2B5E9, size: 0x8, addend: 0x0, symName: '__ZN83_$LT$django_template_oxide..variable..VariableValue$u20$as$u20$core..fmt..Debug$GT$3fmt17h853b5e60cf012751E', symObjAddr: 0x66940, symBinAddr: 0x65C48, symSize: 0x4C8 }
  - { offset: 0x2C03A, size: 0x8, addend: 0x0, symName: '__ZN89_$LT$django_template_oxide..variable..FilterExpressionVar$u20$as$u20$core..fmt..Debug$GT$3fmt17h5f38ae848f516471E', symObjAddr: 0x6702C, symBinAddr: 0x66334, symSize: 0x310 }
  - { offset: 0x2C5C8, size: 0x8, addend: 0x0, symName: __MergedGlobals, symObjAddr: 0x1D64E0, symBinAddr: 0x204EC8, symSize: 0x0 }
  - { offset: 0x2C5E5, size: 0x8, addend: 0x0, symName: __MergedGlobals, symObjAddr: 0x1D64E0, symBinAddr: 0x204EC8, symSize: 0x0 }
  - { offset: 0x2C625, size: 0x8, addend: 0x0, symName: __ZN21django_template_oxide5lexer24split_keeping_delimiters17h8c2c9bac5303e0fbE, symObjAddr: 0x27EDC, symBinAddr: 0x2843C, symSize: 0x5A8 }
  - { offset: 0x2EB00, size: 0x8, addend: 0x0, symName: '__ZN76_$LT$django_template_oxide..lexer..TokenType$u20$as$u20$core..fmt..Debug$GT$3fmt17h659b6f26b27337a9E', symObjAddr: 0x64FE8, symBinAddr: 0x642F0, symSize: 0x2C }
  - { offset: 0x2F0C2, size: 0x8, addend: 0x0, symName: '__ZN141_$LT$django_template_oxide..context..Value$u20$as$u20$core..convert..From$LT$$RF$pyo3..instance..Bound$LT$pyo3..types..any..PyAny$GT$$GT$$GT$4from28_$u7b$$u7b$closure$u7d$$u7d$17h73e3634a25849b3bE', symObjAddr: 0xBCC4, symBinAddr: 0xC4F8, symSize: 0x174 }
  - { offset: 0x2F3F1, size: 0x8, addend: 0x0, symName: '__ZN141_$LT$django_template_oxide..context..Value$u20$as$u20$core..convert..From$LT$$RF$pyo3..instance..Bound$LT$pyo3..types..any..PyAny$GT$$GT$$GT$4from28_$u7b$$u7b$closure$u7d$$u7d$17hdc4db722b6a10fb5E', symObjAddr: 0xBE38, symBinAddr: 0xC66C, symSize: 0x10C }
  - { offset: 0x2F5A2, size: 0x8, addend: 0x0, symName: '__ZN141_$LT$django_template_oxide..context..Value$u20$as$u20$core..convert..From$LT$$RF$pyo3..instance..Bound$LT$pyo3..types..any..PyAny$GT$$GT$$GT$4from17hd66c1e8e26a5f533E', symObjAddr: 0xB508, symBinAddr: 0xBD3C, symSize: 0x7BC }
  - { offset: 0x30BD4, size: 0x8, addend: 0x0, symName: __ZN21django_template_oxide7context11to_internal17hec8351e333eb3f42E, symObjAddr: 0x3537C, symBinAddr: 0x35850, symSize: 0x2C8 }
  - { offset: 0x31BE1, size: 0x8, addend: 0x0, symName: __ZN21django_template_oxide7context8builtins17h5bd391da4925f8dbE, symObjAddr: 0x36260, symBinAddr: 0x36734, symSize: 0x1C0 }
  - { offset: 0x32AC9, size: 0x8, addend: 0x0, symName: '__ZN76_$LT$django_template_oxide..context..Value$u20$as$u20$core..clone..Clone$GT$5clone17h1d98e601bf874ebbE', symObjAddr: 0x643BC, symBinAddr: 0x636C4, symSize: 0x584 }
  - { offset: 0x3454A, size: 0x8, addend: 0x0, symName: '__ZN76_$LT$django_template_oxide..context..Value$u20$as$u20$core..fmt..Display$GT$3fmt17h044a195f9c8cc039E', symObjAddr: 0x64940, symBinAddr: 0x63C48, symSize: 0x6A8 }
  - { offset: 0x35AB8, size: 0x8, addend: 0x0, symName: '__ZN78_$LT$django_template_oxide..context..Value$u20$as$u20$core..cmp..PartialEq$GT$2eq17hf78c52ffbc606599E', symObjAddr: 0x65468, symBinAddr: 0x64770, symSize: 0x280 }
  - { offset: 0x36394, size: 0x8, addend: 0x0, symName: __MergedGlobals, symObjAddr: 0x1D64E0, symBinAddr: 0x204EC8, symSize: 0x0 }
  - { offset: 0x363B6, size: 0x8, addend: 0x0, symName: __MergedGlobals, symObjAddr: 0x1D64E0, symBinAddr: 0x204EC8, symSize: 0x0 }
  - { offset: 0x363F8, size: 0x8, addend: 0x0, symName: __ZN21django_template_oxide4prof27__pyfunction_get_prof_stats17hfa0958651f54fb6eE, symObjAddr: 0x144A8, symBinAddr: 0x14A08, symSize: 0x34 }
  - { offset: 0x367CD, size: 0x8, addend: 0x0, symName: '__ZN21django_template_oxide4tags11loader_tags13BLOCK_CONTEXT29_$u7b$$u7b$constant$u7d$$u7d$28_$u7b$$u7b$closure$u7d$$u7d$23__RUST_STD_INTERNAL_VAL17h938d02330fadc514E', symObjAddr: 0x1D5970, symBinAddr: 0x205278, symSize: 0x0 }
  - { offset: 0x36933, size: 0x8, addend: 0x0, symName: '__ZN21django_template_oxide4tags11loader_tags14TEMPLATE_CACHE29_$u7b$$u7b$constant$u7d$$u7d$28_$u7b$$u7b$closure$u7d$$u7d$23__RUST_STD_INTERNAL_VAL17h16a886533e602e60E', symObjAddr: 0x1D5988, symBinAddr: 0x205290, symSize: 0x0 }
  - { offset: 0x36A4C, size: 0x8, addend: 0x0, symName: '__ZN106_$LT$django_template_oxide..tags..loader_tags..BlockNode$u20$as$u20$django_template_oxide..nodes..Node$GT$10set_origin17h5e04e76d336370c2E', symObjAddr: 0x145C, symBinAddr: 0x1C90, symSize: 0xA4 }
  - { offset: 0x36EDC, size: 0x8, addend: 0x0, symName: '__ZN106_$LT$django_template_oxide..tags..loader_tags..BlockNode$u20$as$u20$django_template_oxide..nodes..Node$GT$13walk_children17hc569e41da6fcdab4E', symObjAddr: 0x1500, symBinAddr: 0x1D34, symSize: 0x18 }
  - { offset: 0x36F64, size: 0x8, addend: 0x0, symName: '__ZN106_$LT$django_template_oxide..tags..loader_tags..BlockNode$u20$as$u20$django_template_oxide..nodes..Node$GT$15child_nodelists17hcb51f87f0b9cac65E', symObjAddr: 0x1518, symBinAddr: 0x1D4C, symSize: 0x10 }
  - { offset: 0x36F8F, size: 0x8, addend: 0x0, symName: '__ZN106_$LT$django_template_oxide..tags..loader_tags..BlockNode$u20$as$u20$django_template_oxide..nodes..Node$GT$17as_block_node_ref17h6dd7a9fe1966473dE', symObjAddr: 0x1528, symBinAddr: 0x1D5C, symSize: 0x8C }
  - { offset: 0x37233, size: 0x8, addend: 0x0, symName: '__ZN106_$LT$django_template_oxide..tags..loader_tags..BlockNode$u20$as$u20$django_template_oxide..nodes..Node$GT$18get_child_nodelist17h29b52db9b48b922aE', symObjAddr: 0x15B4, symBinAddr: 0x1DE8, symSize: 0x48 }
  - { offset: 0x37275, size: 0x8, addend: 0x0, symName: '__ZN106_$LT$django_template_oxide..tags..loader_tags..BlockNode$u20$as$u20$django_template_oxide..nodes..Node$GT$18get_child_nodelist17h29b52db9b48b922aE', symObjAddr: 0x15B4, symBinAddr: 0x1DE8, symSize: 0x48 }
  - { offset: 0x3728A, size: 0x8, addend: 0x0, symName: '__ZN106_$LT$django_template_oxide..tags..loader_tags..BlockNode$u20$as$u20$django_template_oxide..nodes..Node$GT$18get_child_nodelist17h29b52db9b48b922aE', symObjAddr: 0x15B4, symBinAddr: 0x1DE8, symSize: 0x48 }
  - { offset: 0x372B1, size: 0x8, addend: 0x0, symName: '__ZN106_$LT$django_template_oxide..tags..loader_tags..BlockNode$u20$as$u20$django_template_oxide..nodes..Node$GT$18get_child_nodelist17h29b52db9b48b922aE', symObjAddr: 0x15B4, symBinAddr: 0x1DE8, symSize: 0x48 }
  - { offset: 0x372C5, size: 0x8, addend: 0x0, symName: '__ZN106_$LT$django_template_oxide..tags..loader_tags..BlockNode$u20$as$u20$django_template_oxide..nodes..Node$GT$18get_child_nodelist17h29b52db9b48b922aE', symObjAddr: 0x15B4, symBinAddr: 0x1DE8, symSize: 0x48 }
  - { offset: 0x372ED, size: 0x8, addend: 0x0, symName: '__ZN106_$LT$django_template_oxide..tags..loader_tags..BlockNode$u20$as$u20$django_template_oxide..nodes..Node$GT$18get_child_nodelist17h29b52db9b48b922aE', symObjAddr: 0x15B4, symBinAddr: 0x1DE8, symSize: 0x48 }
  - { offset: 0x37315, size: 0x8, addend: 0x0, symName: '__ZN106_$LT$django_template_oxide..tags..loader_tags..BlockNode$u20$as$u20$django_template_oxide..nodes..Node$GT$5token17h0c5663dc016c7e80E', symObjAddr: 0x15FC, symBinAddr: 0x1E30, symSize: 0x10 }
  - { offset: 0x37347, size: 0x8, addend: 0x0, symName: '__ZN106_$LT$django_template_oxide..tags..loader_tags..BlockNode$u20$as$u20$django_template_oxide..nodes..Node$GT$5token17h0c5663dc016c7e80E', symObjAddr: 0x15FC, symBinAddr: 0x1E30, symSize: 0x10 }
  - { offset: 0x37361, size: 0x8, addend: 0x0, symName: '__ZN106_$LT$django_template_oxide..tags..loader_tags..BlockNode$u20$as$u20$django_template_oxide..nodes..Node$GT$6origin17hb2bc36855f2cb352E', symObjAddr: 0x160C, symBinAddr: 0x1E40, symSize: 0x14 }
  - { offset: 0x37393, size: 0x8, addend: 0x0, symName: '__ZN106_$LT$django_template_oxide..tags..loader_tags..BlockNode$u20$as$u20$django_template_oxide..nodes..Node$GT$6origin17hb2bc36855f2cb352E', symObjAddr: 0x160C, symBinAddr: 0x1E40, symSize: 0x14 }
  - { offset: 0x373AF, size: 0x8, addend: 0x0, symName: '__ZN106_$LT$django_template_oxide..tags..loader_tags..BlockNode$u20$as$u20$django_template_oxide..nodes..Node$GT$6render17h2183181fec7a56e9E', symObjAddr: 0x1620, symBinAddr: 0x1E54, symSize: 0xC10 }
  - { offset: 0x3B8B1, size: 0x8, addend: 0x0, symName: '__ZN106_$LT$django_template_oxide..tags..loader_tags..BlockNode$u20$as$u20$django_template_oxide..nodes..Node$GT$9set_token17h2d96ee327c4633c6E', symObjAddr: 0x2230, symBinAddr: 0x2A64, symSize: 0x54 }
  - { offset: 0x3BB16, size: 0x8, addend: 0x0, symName: '__ZN108_$LT$django_template_oxide..tags..loader_tags..ExtendsNode$u20$as$u20$django_template_oxide..nodes..Node$GT$10set_origin17h10c1f477240ec3bdE', symObjAddr: 0x4894, symBinAddr: 0x50C8, symSize: 0xA4 }
  - { offset: 0x3BFA6, size: 0x8, addend: 0x0, symName: '__ZN108_$LT$django_template_oxide..tags..loader_tags..ExtendsNode$u20$as$u20$django_template_oxide..nodes..Node$GT$13walk_children17hf03cfe08f6f8be2eE', symObjAddr: 0x4938, symBinAddr: 0x516C, symSize: 0x14 }
  - { offset: 0x3BFE1, size: 0x8, addend: 0x0, symName: '__ZN108_$LT$django_template_oxide..tags..loader_tags..ExtendsNode$u20$as$u20$django_template_oxide..nodes..Node$GT$18get_child_nodelist17h582bdd19b0995c74E', symObjAddr: 0x494C, symBinAddr: 0x5180, symSize: 0x44 }
  - { offset: 0x3C023, size: 0x8, addend: 0x0, symName: '__ZN108_$LT$django_template_oxide..tags..loader_tags..ExtendsNode$u20$as$u20$django_template_oxide..nodes..Node$GT$18get_child_nodelist17h582bdd19b0995c74E', symObjAddr: 0x494C, symBinAddr: 0x5180, symSize: 0x44 }
  - { offset: 0x3C038, size: 0x8, addend: 0x0, symName: '__ZN108_$LT$django_template_oxide..tags..loader_tags..ExtendsNode$u20$as$u20$django_template_oxide..nodes..Node$GT$18get_child_nodelist17h582bdd19b0995c74E', symObjAddr: 0x494C, symBinAddr: 0x5180, symSize: 0x44 }
  - { offset: 0x3C05F, size: 0x8, addend: 0x0, symName: '__ZN108_$LT$django_template_oxide..tags..loader_tags..ExtendsNode$u20$as$u20$django_template_oxide..nodes..Node$GT$18get_child_nodelist17h582bdd19b0995c74E', symObjAddr: 0x494C, symBinAddr: 0x5180, symSize: 0x44 }
  - { offset: 0x3C073, size: 0x8, addend: 0x0, symName: '__ZN108_$LT$django_template_oxide..tags..loader_tags..ExtendsNode$u20$as$u20$django_template_oxide..nodes..Node$GT$18get_child_nodelist17h582bdd19b0995c74E', symObjAddr: 0x494C, symBinAddr: 0x5180, symSize: 0x44 }
  - { offset: 0x3C09B, size: 0x8, addend: 0x0, symName: '__ZN108_$LT$django_template_oxide..tags..loader_tags..ExtendsNode$u20$as$u20$django_template_oxide..nodes..Node$GT$18get_child_nodelist17h582bdd19b0995c74E', symObjAddr: 0x494C, symBinAddr: 0x5180, symSize: 0x44 }
  - { offset: 0x3C0C3, size: 0x8, addend: 0x0, symName: '__ZN108_$LT$django_template_oxide..tags..loader_tags..ExtendsNode$u20$as$u20$django_template_oxide..nodes..Node$GT$5token17h17a4dd3d7b1487a1E', symObjAddr: 0x4990, symBinAddr: 0x51C4, symSize: 0x10 }
  - { offset: 0x3C0F5, size: 0x8, addend: 0x0, symName: '__ZN108_$LT$django_template_oxide..tags..loader_tags..ExtendsNode$u20$as$u20$django_template_oxide..nodes..Node$GT$5token17h17a4dd3d7b1487a1E', symObjAddr: 0x4990, symBinAddr: 0x51C4, symSize: 0x10 }
  - { offset: 0x3C10F, size: 0x8, addend: 0x0, symName: '__ZN108_$LT$django_template_oxide..tags..loader_tags..ExtendsNode$u20$as$u20$django_template_oxide..nodes..Node$GT$6origin17haba9e9bf93897579E', symObjAddr: 0x49A0, symBinAddr: 0x51D4, symSize: 0x14 }
  - { offset: 0x3C141, size: 0x8, addend: 0x0, symName: '__ZN108_$LT$django_template_oxide..tags..loader_tags..ExtendsNode$u20$as$u20$django_template_oxide..nodes..Node$GT$6origin17haba9e9bf93897579E', symObjAddr: 0x49A0, symBinAddr: 0x51D4, symSize: 0x14 }
  - { offset: 0x3C15D, size: 0x8, addend: 0x0, symName: '__ZN108_$LT$django_template_oxide..tags..loader_tags..ExtendsNode$u20$as$u20$django_template_oxide..nodes..Node$GT$6render17h4f0382fc98dec805E', symObjAddr: 0x49B4, symBinAddr: 0x51E8, symSize: 0x2F4 }
  - { offset: 0x3D19D, size: 0x8, addend: 0x0, symName: '__ZN108_$LT$django_template_oxide..tags..loader_tags..ExtendsNode$u20$as$u20$django_template_oxide..nodes..Node$GT$9set_token17hca54266db5fc6b88E', symObjAddr: 0x4CA8, symBinAddr: 0x54DC, symSize: 0x54 }
  - { offset: 0x3D36B, size: 0x8, addend: 0x0, symName: '__ZN108_$LT$django_template_oxide..tags..loader_tags..IncludeNode$u20$as$u20$django_template_oxide..nodes..Node$GT$10set_origin17h0855f59978cc6db9E', symObjAddr: 0x4CFC, symBinAddr: 0x5530, symSize: 0xA4 }
  - { offset: 0x3D7FB, size: 0x8, addend: 0x0, symName: '__ZN108_$LT$django_template_oxide..tags..loader_tags..IncludeNode$u20$as$u20$django_template_oxide..nodes..Node$GT$5token17hc93a61c5ab1f5bbcE', symObjAddr: 0x4DA0, symBinAddr: 0x55D4, symSize: 0x10 }
  - { offset: 0x3D82D, size: 0x8, addend: 0x0, symName: '__ZN108_$LT$django_template_oxide..tags..loader_tags..IncludeNode$u20$as$u20$django_template_oxide..nodes..Node$GT$5token17hc93a61c5ab1f5bbcE', symObjAddr: 0x4DA0, symBinAddr: 0x55D4, symSize: 0x10 }
  - { offset: 0x3D847, size: 0x8, addend: 0x0, symName: '__ZN108_$LT$django_template_oxide..tags..loader_tags..IncludeNode$u20$as$u20$django_template_oxide..nodes..Node$GT$6origin17h77e440eb87d57df2E', symObjAddr: 0x4DB0, symBinAddr: 0x55E4, symSize: 0x14 }
  - { offset: 0x3D879, size: 0x8, addend: 0x0, symName: '__ZN108_$LT$django_template_oxide..tags..loader_tags..IncludeNode$u20$as$u20$django_template_oxide..nodes..Node$GT$6origin17h77e440eb87d57df2E', symObjAddr: 0x4DB0, symBinAddr: 0x55E4, symSize: 0x14 }
  - { offset: 0x3D895, size: 0x8, addend: 0x0, symName: '__ZN108_$LT$django_template_oxide..tags..loader_tags..IncludeNode$u20$as$u20$django_template_oxide..nodes..Node$GT$6render17hb48e06ae3698f388E', symObjAddr: 0x4DC4, symBinAddr: 0x55F8, symSize: 0xD64 }
  - { offset: 0x40E6A, size: 0x8, addend: 0x0, symName: '__ZN108_$LT$django_template_oxide..tags..loader_tags..IncludeNode$u20$as$u20$django_template_oxide..nodes..Node$GT$9set_token17h6d390e3d1de2e2aeE', symObjAddr: 0x5B28, symBinAddr: 0x635C, symSize: 0x54 }
  - { offset: 0x41111, size: 0x8, addend: 0x0, symName: __ZN21django_template_oxide4tags11loader_tags13compile_block17hfe42c68b604ae4b7E, symObjAddr: 0x16964, symBinAddr: 0x16EC4, symSize: 0x710 }
  - { offset: 0x43C37, size: 0x8, addend: 0x0, symName: __ZN21django_template_oxide4tags11loader_tags15compile_extends17hd41fbf8bdf738da1E, symObjAddr: 0x17074, symBinAddr: 0x175D4, symSize: 0x4C8 }
  - { offset: 0x45003, size: 0x8, addend: 0x0, symName: __ZN21django_template_oxide4tags11loader_tags15compile_include17ha481b5dc2af8808dE, symObjAddr: 0x1753C, symBinAddr: 0x17A9C, symSize: 0x838 }
  - { offset: 0x46B77, size: 0x8, addend: 0x0, symName: __ZN21django_template_oxide4tags11loader_tags21resolve_template_name17hce6836aac0ee83f9E, symObjAddr: 0x17D74, symBinAddr: 0x182D4, symSize: 0x444 }
  - { offset: 0x47D5A, size: 0x8, addend: 0x0, symName: '__ZN21django_template_oxide4tags11loader_tags32load_template_source_from_django28_$u7b$$u7b$closure$u7d$$u7d$17he02af02b2c9a9b17E', symObjAddr: 0x193C8, symBinAddr: 0x19928, symSize: 0x90 }
  - { offset: 0x47E05, size: 0x8, addend: 0x0, symName: __ZN21django_template_oxide4tags11loader_tags22load_template_nodelist17h886bf0d857aa5200E, symObjAddr: 0x181B8, symBinAddr: 0x18718, symSize: 0x10C4 }
  - { offset: 0x4BAA2, size: 0x8, addend: 0x0, symName: __ZN21django_template_oxide4tags11loader_tags27get_or_create_block_context17hc43d8f1aee381927E, symObjAddr: 0x1927C, symBinAddr: 0x197DC, symSize: 0x14C }
  - { offset: 0x4C04B, size: 0x8, addend: 0x0, symName: __ZN21django_template_oxide4tags11loader_tags33collect_block_nodes_from_nodelist17h0021deea595f21a7E, symObjAddr: 0x19458, symBinAddr: 0x199B8, symSize: 0x4AC }
  - { offset: 0x4DDF5, size: 0x8, addend: 0x0, symName: '__ZN88_$LT$django_template_oxide..tags..loader_tags..BlockNode$u20$as$u20$core..fmt..Debug$GT$3fmt17hd13f36542190b18eE', symObjAddr: 0x66EB4, symBinAddr: 0x661BC, symSize: 0xCC }
  - { offset: 0x4DE21, size: 0x8, addend: 0x0, symName: '__ZN90_$LT$django_template_oxide..tags..loader_tags..ExtendsNode$u20$as$u20$core..fmt..Debug$GT$3fmt17hca44de8636cf0d26E', symObjAddr: 0x67F60, symBinAddr: 0x67268, symSize: 0xC8 }
  - { offset: 0x4DE66, size: 0x8, addend: 0x0, symName: '__ZN90_$LT$django_template_oxide..tags..loader_tags..IncludeNode$u20$as$u20$core..fmt..Debug$GT$3fmt17h27721a1ac411cc33E', symObjAddr: 0x68028, symBinAddr: 0x67330, symSize: 0xCC }
  - { offset: 0x4DEB5, size: 0x8, addend: 0x0, symName: __MergedGlobals, symObjAddr: 0x1D64E0, symBinAddr: 0x204EC8, symSize: 0x0 }
  - { offset: 0x4DF2D, size: 0x8, addend: 0x0, symName: __ZN21django_template_oxide4tags13CYCLE_COUNTER17h79de2705c466cfe7E, symObjAddr: 0x17552F0, symBinAddr: 0x2054C0, symSize: 0x0 }
  - { offset: 0x4E0E9, size: 0x8, addend: 0x0, symName: __ZN21django_template_oxide4tags17IFCHANGED_COUNTER17hf32dd57f6d2976a9E, symObjAddr: 0x17552F8, symBinAddr: 0x2054C8, symSize: 0x0 }
  - { offset: 0x4E2E0, size: 0x8, addend: 0x0, symName: '__ZN21django_template_oxide4tags27nodelist_references_forloop4walk28_$u7b$$u7b$closure$u7d$$u7d$17h3a0d4a9220ebb893E', symObjAddr: 0x22414, symBinAddr: 0x22974, symSize: 0x38 }
  - { offset: 0x4E373, size: 0x8, addend: 0x0, symName: __ZN21django_template_oxide4tags27nodelist_references_forloop4walk17h26dfa322a8928778E, symObjAddr: 0x222FC, symBinAddr: 0x2285C, symSize: 0x118 }
  - { offset: 0x4E39D, size: 0x8, addend: 0x0, symName: __ZN21django_template_oxide4tags27nodelist_references_forloop4walk17h26dfa322a8928778E, symObjAddr: 0x222FC, symBinAddr: 0x2285C, symSize: 0x118 }
  - { offset: 0x4E8C6, size: 0x8, addend: 0x0, symName: '__ZN100_$LT$django_template_oxide..tags..i18n_tags..GetLanguageInfoListNode$u20$as$u20$core..fmt..Debug$GT$3fmt17he3e1fe347842f5e7E', symObjAddr: 0xC, symBinAddr: 0x854, symSize: 0xAC }
  - { offset: 0x4E90B, size: 0x8, addend: 0x0, symName: '__ZN102_$LT$django_template_oxide..tags..i18n_tags..GetAvailableLanguagesNode$u20$as$u20$core..fmt..Debug$GT$3fmt17hd4a124c56ed97d4cE', symObjAddr: 0x36C, symBinAddr: 0xBB4, symSize: 0x210 }
  - { offset: 0x4ED91, size: 0x8, addend: 0x0, symName: '__ZN103_$LT$django_template_oxide..tags..i18n_tags..GetCurrentLanguageBidiNode$u20$as$u20$core..fmt..Debug$GT$3fmt17h7c711a13241ac686E', symObjAddr: 0x57C, symBinAddr: 0xDC4, symSize: 0x210 }
  - { offset: 0x4F217, size: 0x8, addend: 0x0, symName: '__ZN107_$LT$django_template_oxide..tags..i18n_tags..LanguageNode$u20$as$u20$django_template_oxide..nodes..Node$GT$10set_origin17hf66d57f2df7e3f6eE', symObjAddr: 0x2284, symBinAddr: 0x2AB8, symSize: 0xA4 }
  - { offset: 0x4F6A3, size: 0x8, addend: 0x0, symName: '__ZN107_$LT$django_template_oxide..tags..i18n_tags..LanguageNode$u20$as$u20$django_template_oxide..nodes..Node$GT$13walk_children17h04f7736c1c2ef604E', symObjAddr: 0x2328, symBinAddr: 0x2B5C, symSize: 0x14 }
  - { offset: 0x4F6DE, size: 0x8, addend: 0x0, symName: '__ZN107_$LT$django_template_oxide..tags..i18n_tags..LanguageNode$u20$as$u20$django_template_oxide..nodes..Node$GT$5token17h91f974841211c938E', symObjAddr: 0x233C, symBinAddr: 0x2B70, symSize: 0x10 }
  - { offset: 0x4F70E, size: 0x8, addend: 0x0, symName: '__ZN107_$LT$django_template_oxide..tags..i18n_tags..LanguageNode$u20$as$u20$django_template_oxide..nodes..Node$GT$5token17h91f974841211c938E', symObjAddr: 0x233C, symBinAddr: 0x2B70, symSize: 0x10 }
  - { offset: 0x4F727, size: 0x8, addend: 0x0, symName: '__ZN107_$LT$django_template_oxide..tags..i18n_tags..LanguageNode$u20$as$u20$django_template_oxide..nodes..Node$GT$6origin17hc17be3897bf03f83E', symObjAddr: 0x234C, symBinAddr: 0x2B80, symSize: 0x14 }
  - { offset: 0x4F757, size: 0x8, addend: 0x0, symName: '__ZN107_$LT$django_template_oxide..tags..i18n_tags..LanguageNode$u20$as$u20$django_template_oxide..nodes..Node$GT$6origin17hc17be3897bf03f83E', symObjAddr: 0x234C, symBinAddr: 0x2B80, symSize: 0x14 }
  - { offset: 0x4F8FC, size: 0x8, addend: 0x0, symName: '__ZN107_$LT$django_template_oxide..tags..i18n_tags..LanguageNode$u20$as$u20$django_template_oxide..nodes..Node$GT$6render28_$u7b$$u7b$closure$u7d$$u7d$17h39bc1a22b6b5aac7E', symObjAddr: 0x2DDC, symBinAddr: 0x3610, symSize: 0x84 }
  - { offset: 0x4F9A2, size: 0x8, addend: 0x0, symName: '__ZN107_$LT$django_template_oxide..tags..i18n_tags..LanguageNode$u20$as$u20$django_template_oxide..nodes..Node$GT$6render28_$u7b$$u7b$closure$u7d$$u7d$17hd2c39bc18eaf3b70E', symObjAddr: 0x2E60, symBinAddr: 0x3694, symSize: 0x140 }
  - { offset: 0x50129, size: 0x8, addend: 0x0, symName: '__ZN107_$LT$django_template_oxide..tags..i18n_tags..LanguageNode$u20$as$u20$django_template_oxide..nodes..Node$GT$6render17hc62bbc6c7cccd18fE', symObjAddr: 0x2360, symBinAddr: 0x2B94, symSize: 0xA7C }
  - { offset: 0x516A9, size: 0x8, addend: 0x0, symName: '__ZN107_$LT$django_template_oxide..tags..i18n_tags..LanguageNode$u20$as$u20$django_template_oxide..nodes..Node$GT$9set_token17h876650dc6b5aee10E', symObjAddr: 0x2FA0, symBinAddr: 0x37D4, symSize: 0x54 }
  - { offset: 0x518CA, size: 0x8, addend: 0x0, symName: '__ZN108_$LT$django_template_oxide..tags..i18n_tags..TranslateNode$u20$as$u20$django_template_oxide..nodes..Node$GT$10set_origin17h24b5cb4f9e6e37d9E', symObjAddr: 0x35BC, symBinAddr: 0x3DF0, symSize: 0x98 }
  - { offset: 0x51D4D, size: 0x8, addend: 0x0, symName: '__ZN108_$LT$django_template_oxide..tags..i18n_tags..TranslateNode$u20$as$u20$django_template_oxide..nodes..Node$GT$15child_nodelists17h42908314414a5b12E', symObjAddr: 0x3654, symBinAddr: 0x3E88, symSize: 0xC }
  - { offset: 0x51D76, size: 0x8, addend: 0x0, symName: '__ZN108_$LT$django_template_oxide..tags..i18n_tags..TranslateNode$u20$as$u20$django_template_oxide..nodes..Node$GT$5token17h6b2fdfb9979d84e7E', symObjAddr: 0x3660, symBinAddr: 0x3E94, symSize: 0x10 }
  - { offset: 0x51DA6, size: 0x8, addend: 0x0, symName: '__ZN108_$LT$django_template_oxide..tags..i18n_tags..TranslateNode$u20$as$u20$django_template_oxide..nodes..Node$GT$5token17h6b2fdfb9979d84e7E', symObjAddr: 0x3660, symBinAddr: 0x3E94, symSize: 0x10 }
  - { offset: 0x51DBF, size: 0x8, addend: 0x0, symName: '__ZN108_$LT$django_template_oxide..tags..i18n_tags..TranslateNode$u20$as$u20$django_template_oxide..nodes..Node$GT$6origin17hfd560fb0a7e4cd04E', symObjAddr: 0x3670, symBinAddr: 0x3EA4, symSize: 0x18 }
  - { offset: 0x51DEF, size: 0x8, addend: 0x0, symName: '__ZN108_$LT$django_template_oxide..tags..i18n_tags..TranslateNode$u20$as$u20$django_template_oxide..nodes..Node$GT$6origin17hfd560fb0a7e4cd04E', symObjAddr: 0x3670, symBinAddr: 0x3EA4, symSize: 0x18 }
  - { offset: 0x51EE9, size: 0x8, addend: 0x0, symName: '__ZN108_$LT$django_template_oxide..tags..i18n_tags..TranslateNode$u20$as$u20$django_template_oxide..nodes..Node$GT$6render28_$u7b$$u7b$closure$u7d$$u7d$17h205245dbe65a4d08E', symObjAddr: 0x47D4, symBinAddr: 0x5008, symSize: 0x6C }
  - { offset: 0x51FE6, size: 0x8, addend: 0x0, symName: '__ZN108_$LT$django_template_oxide..tags..i18n_tags..TranslateNode$u20$as$u20$django_template_oxide..nodes..Node$GT$6render17h8662df1757b2af26E', symObjAddr: 0x3688, symBinAddr: 0x3EBC, symSize: 0x114C }
  - { offset: 0x559F4, size: 0x8, addend: 0x0, symName: '__ZN108_$LT$django_template_oxide..tags..i18n_tags..TranslateNode$u20$as$u20$django_template_oxide..nodes..Node$GT$9set_token17h0d927cf1254416dfE', symObjAddr: 0x4840, symBinAddr: 0x5074, symSize: 0x54 }
  - { offset: 0x55BBE, size: 0x8, addend: 0x0, symName: '__ZN113_$LT$django_template_oxide..tags..i18n_tags..BlockTranslateNode$u20$as$u20$django_template_oxide..nodes..Node$GT$10set_origin17h8878fc6b904c2999E', symObjAddr: 0x5EA8, symBinAddr: 0x66DC, symSize: 0xA4 }
  - { offset: 0x5604A, size: 0x8, addend: 0x0, symName: '__ZN113_$LT$django_template_oxide..tags..i18n_tags..BlockTranslateNode$u20$as$u20$django_template_oxide..nodes..Node$GT$15child_nodelists17he8ec0819ef4e65b4E', symObjAddr: 0x5F4C, symBinAddr: 0x6780, symSize: 0x10 }
  - { offset: 0x56075, size: 0x8, addend: 0x0, symName: '__ZN113_$LT$django_template_oxide..tags..i18n_tags..BlockTranslateNode$u20$as$u20$django_template_oxide..nodes..Node$GT$5token17he0101e1b3cb6bad2E', symObjAddr: 0x5F5C, symBinAddr: 0x6790, symSize: 0x10 }
  - { offset: 0x560A5, size: 0x8, addend: 0x0, symName: '__ZN113_$LT$django_template_oxide..tags..i18n_tags..BlockTranslateNode$u20$as$u20$django_template_oxide..nodes..Node$GT$5token17he0101e1b3cb6bad2E', symObjAddr: 0x5F5C, symBinAddr: 0x6790, symSize: 0x10 }
  - { offset: 0x560BE, size: 0x8, addend: 0x0, symName: '__ZN113_$LT$django_template_oxide..tags..i18n_tags..BlockTranslateNode$u20$as$u20$django_template_oxide..nodes..Node$GT$6origin17hb6eca8c2960c73dbE', symObjAddr: 0x5F6C, symBinAddr: 0x67A0, symSize: 0x18 }
  - { offset: 0x560EE, size: 0x8, addend: 0x0, symName: '__ZN113_$LT$django_template_oxide..tags..i18n_tags..BlockTranslateNode$u20$as$u20$django_template_oxide..nodes..Node$GT$6origin17hb6eca8c2960c73dbE', symObjAddr: 0x5F6C, symBinAddr: 0x67A0, symSize: 0x18 }
  - { offset: 0x5642B, size: 0x8, addend: 0x0, symName: '__ZN113_$LT$django_template_oxide..tags..i18n_tags..BlockTranslateNode$u20$as$u20$django_template_oxide..nodes..Node$GT$6render28_$u7b$$u7b$closure$u7d$$u7d$17h3ac5fed7ee043479E', symObjAddr: 0x8C88, symBinAddr: 0x94BC, symSize: 0x98 }
  - { offset: 0x56587, size: 0x8, addend: 0x0, symName: '__ZN113_$LT$django_template_oxide..tags..i18n_tags..BlockTranslateNode$u20$as$u20$django_template_oxide..nodes..Node$GT$6render17hf3ba1a62c4c7dcdcE', symObjAddr: 0x5F84, symBinAddr: 0x67B8, symSize: 0x2D04 }
  - { offset: 0x616CE, size: 0x8, addend: 0x0, symName: '__ZN113_$LT$django_template_oxide..tags..i18n_tags..BlockTranslateNode$u20$as$u20$django_template_oxide..nodes..Node$GT$9set_token17h3d0ad0bfe8ba5433E', symObjAddr: 0x8D20, symBinAddr: 0x9554, symSize: 0x54 }
  - { offset: 0x61964, size: 0x8, addend: 0x0, symName: '__ZN114_$LT$django_template_oxide..tags..i18n_tags..GetLanguageInfoNode$u20$as$u20$django_template_oxide..nodes..Node$GT$10set_origin17h29f6df18d1b25fc6E', symObjAddr: 0x8D74, symBinAddr: 0x95A8, symSize: 0xA4 }
  - { offset: 0x61DF0, size: 0x8, addend: 0x0, symName: '__ZN114_$LT$django_template_oxide..tags..i18n_tags..GetLanguageInfoNode$u20$as$u20$django_template_oxide..nodes..Node$GT$5token17h8194cb630e431effE', symObjAddr: 0x8E18, symBinAddr: 0x964C, symSize: 0x10 }
  - { offset: 0x61E20, size: 0x8, addend: 0x0, symName: '__ZN114_$LT$django_template_oxide..tags..i18n_tags..GetLanguageInfoNode$u20$as$u20$django_template_oxide..nodes..Node$GT$5token17h8194cb630e431effE', symObjAddr: 0x8E18, symBinAddr: 0x964C, symSize: 0x10 }
  - { offset: 0x61E39, size: 0x8, addend: 0x0, symName: '__ZN114_$LT$django_template_oxide..tags..i18n_tags..GetLanguageInfoNode$u20$as$u20$django_template_oxide..nodes..Node$GT$6origin17h489a621e8730ad3bE', symObjAddr: 0x8E28, symBinAddr: 0x965C, symSize: 0x14 }
  - { offset: 0x61E69, size: 0x8, addend: 0x0, symName: '__ZN114_$LT$django_template_oxide..tags..i18n_tags..GetLanguageInfoNode$u20$as$u20$django_template_oxide..nodes..Node$GT$6origin17h489a621e8730ad3bE', symObjAddr: 0x8E28, symBinAddr: 0x965C, symSize: 0x14 }
  - { offset: 0x61F6B, size: 0x8, addend: 0x0, symName: '__ZN114_$LT$django_template_oxide..tags..i18n_tags..GetLanguageInfoNode$u20$as$u20$django_template_oxide..nodes..Node$GT$6render17h37eefa1ddee56301E', symObjAddr: 0x8E3C, symBinAddr: 0x9670, symSize: 0x66C }
  - { offset: 0x62F21, size: 0x8, addend: 0x0, symName: '__ZN114_$LT$django_template_oxide..tags..i18n_tags..GetLanguageInfoNode$u20$as$u20$django_template_oxide..nodes..Node$GT$9set_token17h341d515f632c3cfdE', symObjAddr: 0x94A8, symBinAddr: 0x9CDC, symSize: 0x54 }
  - { offset: 0x630EB, size: 0x8, addend: 0x0, symName: '__ZN117_$LT$django_template_oxide..tags..i18n_tags..GetCurrentLanguageNode$u20$as$u20$django_template_oxide..nodes..Node$GT$10set_origin17hadf53d9589737c45E', symObjAddr: 0x9628, symBinAddr: 0x9E5C, symSize: 0xA4 }
  - { offset: 0x63577, size: 0x8, addend: 0x0, symName: '__ZN117_$LT$django_template_oxide..tags..i18n_tags..GetCurrentLanguageNode$u20$as$u20$django_template_oxide..nodes..Node$GT$5token17h6af1b25be1d29163E', symObjAddr: 0x96CC, symBinAddr: 0x9F00, symSize: 0x10 }
  - { offset: 0x635A7, size: 0x8, addend: 0x0, symName: '__ZN117_$LT$django_template_oxide..tags..i18n_tags..GetCurrentLanguageNode$u20$as$u20$django_template_oxide..nodes..Node$GT$5token17h6af1b25be1d29163E', symObjAddr: 0x96CC, symBinAddr: 0x9F00, symSize: 0x10 }
  - { offset: 0x635C0, size: 0x8, addend: 0x0, symName: '__ZN117_$LT$django_template_oxide..tags..i18n_tags..GetCurrentLanguageNode$u20$as$u20$django_template_oxide..nodes..Node$GT$6origin17hc5037f6e33d6b794E', symObjAddr: 0x96DC, symBinAddr: 0x9F10, symSize: 0x14 }
  - { offset: 0x635F0, size: 0x8, addend: 0x0, symName: '__ZN117_$LT$django_template_oxide..tags..i18n_tags..GetCurrentLanguageNode$u20$as$u20$django_template_oxide..nodes..Node$GT$6origin17hc5037f6e33d6b794E', symObjAddr: 0x96DC, symBinAddr: 0x9F10, symSize: 0x14 }
  - { offset: 0x6371B, size: 0x8, addend: 0x0, symName: '__ZN117_$LT$django_template_oxide..tags..i18n_tags..GetCurrentLanguageNode$u20$as$u20$django_template_oxide..nodes..Node$GT$6render17h7745aaabca047e1cE', symObjAddr: 0x96F0, symBinAddr: 0x9F24, symSize: 0x61C }
  - { offset: 0x647DA, size: 0x8, addend: 0x0, symName: '__ZN117_$LT$django_template_oxide..tags..i18n_tags..GetCurrentLanguageNode$u20$as$u20$django_template_oxide..nodes..Node$GT$9set_token17hbbf5ed40fc947060E', symObjAddr: 0x9D0C, symBinAddr: 0xA540, symSize: 0x54 }
  - { offset: 0x64A6D, size: 0x8, addend: 0x0, symName: '__ZN118_$LT$django_template_oxide..tags..i18n_tags..GetLanguageInfoListNode$u20$as$u20$django_template_oxide..nodes..Node$GT$6render17h7bcc615e64d28c41E', symObjAddr: 0x9D60, symBinAddr: 0xA594, symSize: 0x9AC }
  - { offset: 0x66A98, size: 0x8, addend: 0x0, symName: '__ZN120_$LT$django_template_oxide..tags..i18n_tags..GetAvailableLanguagesNode$u20$as$u20$django_template_oxide..nodes..Node$GT$6render17he7215c12ef9ec7d7E', symObjAddr: 0xA70C, symBinAddr: 0xAF40, symSize: 0x5DC }
  - { offset: 0x679D5, size: 0x8, addend: 0x0, symName: '__ZN121_$LT$django_template_oxide..tags..i18n_tags..GetCurrentLanguageBidiNode$u20$as$u20$django_template_oxide..nodes..Node$GT$6render17h9ba0be0ba12c743eE', symObjAddr: 0xACE8, symBinAddr: 0xB51C, symSize: 0x57C }
  - { offset: 0x686F8, size: 0x8, addend: 0x0, symName: __ZN21django_template_oxide4tags9i18n_tags12trim_message17hc2bcceb1ff9c332aE, symObjAddr: 0x241C8, symBinAddr: 0x24728, symSize: 0x92C }
  - { offset: 0x69BF0, size: 0x8, addend: 0x0, symName: __ZN21django_template_oxide4tags9i18n_tags16compile_language17h3300677ff94fbd20E, symObjAddr: 0x24AF4, symBinAddr: 0x25054, symSize: 0x37C }
  - { offset: 0x6A8E8, size: 0x8, addend: 0x0, symName: __ZN21django_template_oxide4tags9i18n_tags17compile_translate17h3e3a18094c7414beE, symObjAddr: 0x24E70, symBinAddr: 0x253D0, symSize: 0x6BC }
  - { offset: 0x6C58A, size: 0x8, addend: 0x0, symName: __ZN21django_template_oxide4tags9i18n_tags17render_token_list17hd66177081862e3d7E, symObjAddr: 0x2552C, symBinAddr: 0x25A8C, symSize: 0x484 }
  - { offset: 0x6E68A, size: 0x8, addend: 0x0, symName: __ZN21django_template_oxide4tags9i18n_tags22compile_blocktranslate17h738cebe713c2a39eE, symObjAddr: 0x259B0, symBinAddr: 0x25F10, symSize: 0xFFC }
  - { offset: 0x721B7, size: 0x8, addend: 0x0, symName: __ZN21django_template_oxide4tags9i18n_tags25compile_get_language_info17h4db9872ca198d318E, symObjAddr: 0x269AC, symBinAddr: 0x26F0C, symSize: 0x320 }
  - { offset: 0x72EB7, size: 0x8, addend: 0x0, symName: __ZN21django_template_oxide4tags9i18n_tags28compile_get_current_language17h2e2208164f94462fE, symObjAddr: 0x26CCC, symBinAddr: 0x2722C, symSize: 0x238 }
  - { offset: 0x73ACE, size: 0x8, addend: 0x0, symName: __ZN21django_template_oxide4tags9i18n_tags30compile_get_language_info_list17h5eaefb1fe5cdd6c8E, symObjAddr: 0x26F04, symBinAddr: 0x27464, symSize: 0x320 }
  - { offset: 0x747CE, size: 0x8, addend: 0x0, symName: __ZN21django_template_oxide4tags9i18n_tags31compile_get_available_languages17hc9d7631ab01d2979E, symObjAddr: 0x27224, symBinAddr: 0x27784, symSize: 0x238 }
  - { offset: 0x753E5, size: 0x8, addend: 0x0, symName: __ZN21django_template_oxide4tags9i18n_tags33compile_get_current_language_bidi17hcf4c9a9d07161957E, symObjAddr: 0x2745C, symBinAddr: 0x279BC, symSize: 0x238 }
  - { offset: 0x76055, size: 0x8, addend: 0x0, symName: '__ZN89_$LT$django_template_oxide..tags..i18n_tags..LanguageNode$u20$as$u20$core..fmt..Debug$GT$3fmt17h03ec996680086ba6E', symObjAddr: 0x66F80, symBinAddr: 0x66288, symSize: 0xAC }
  - { offset: 0x7609A, size: 0x8, addend: 0x0, symName: '__ZN90_$LT$django_template_oxide..tags..i18n_tags..TranslateNode$u20$as$u20$core..fmt..Debug$GT$3fmt17h5e8e9757cda45497E', symObjAddr: 0x67EB8, symBinAddr: 0x671C0, symSize: 0xA8 }
  - { offset: 0x76118, size: 0x8, addend: 0x0, symName: '__ZN95_$LT$django_template_oxide..tags..i18n_tags..BlockTranslateNode$u20$as$u20$core..fmt..Debug$GT$3fmt17h3ea8e77f3ec13092E', symObjAddr: 0x6E4FC, symBinAddr: 0x6D804, symSize: 0xD8 }
  - { offset: 0x76196, size: 0x8, addend: 0x0, symName: '__ZN96_$LT$django_template_oxide..tags..i18n_tags..GetLanguageInfoNode$u20$as$u20$core..fmt..Debug$GT$3fmt17h31c2835b29ceb8beE', symObjAddr: 0x6E860, symBinAddr: 0x6DB68, symSize: 0xAC }
  - { offset: 0x761DB, size: 0x8, addend: 0x0, symName: '__ZN99_$LT$django_template_oxide..tags..i18n_tags..GetCurrentLanguageNode$u20$as$u20$core..fmt..Debug$GT$3fmt17h9f70684fd8eb4c24E', symObjAddr: 0x7129C, symBinAddr: 0x705A4, symSize: 0x210 }
  - { offset: 0x7665D, size: 0x8, addend: 0x0, symName: __ZN21django_template_oxide4tags10compile_if17haea9ce12a0435a2cE, symObjAddr: 0x144DC, symBinAddr: 0x14A3C, symSize: 0x89C }
  - { offset: 0x78709, size: 0x8, addend: 0x0, symName: __ZN21django_template_oxide4tags11compile_for17h2e2e10522a1b643dE, symObjAddr: 0x14D78, symBinAddr: 0x152D8, symSize: 0xA94 }
  - { offset: 0x7C7EF, size: 0x8, addend: 0x0, symName: __ZN21django_template_oxide4tags11compile_now17hb91d55bfe4238f0fE, symObjAddr: 0x1580C, symBinAddr: 0x15D6C, symSize: 0x33C }
  - { offset: 0x7D494, size: 0x8, addend: 0x0, symName: __ZN21django_template_oxide4tags11compile_url17h2d4eb5ac46b24430E, symObjAddr: 0x15B48, symBinAddr: 0x160A8, symSize: 0x860 }
  - { offset: 0x7F812, size: 0x8, addend: 0x0, symName: __ZN21django_template_oxide4tags12compile_load17he014b9db528035d3E, symObjAddr: 0x19904, symBinAddr: 0x19E64, symSize: 0x5A8 }
  - { offset: 0x810CC, size: 0x8, addend: 0x0, symName: __ZN21django_template_oxide4tags12compile_with17h9dbf7d3c9f394f64E, symObjAddr: 0x19EAC, symBinAddr: 0x1A40C, symSize: 0x7F8 }
  - { offset: 0x83592, size: 0x8, addend: 0x0, symName: __ZN21django_template_oxide4tags12eval_if_expr17h5f4a9abe1e4d291bE, symObjAddr: 0x1A6A4, symBinAddr: 0x1AC04, symSize: 0x388 }
  - { offset: 0x83CC6, size: 0x8, addend: 0x0, symName: __ZN21django_template_oxide4tags13compile_cache17hb120df36e8005c85E, symObjAddr: 0x1AA2C, symBinAddr: 0x1AF8C, symSize: 0x7AC }
  - { offset: 0x8547A, size: 0x8, addend: 0x0, symName: __ZN21django_template_oxide4tags13compile_cycle17h424a3e3a41b6e162E, symObjAddr: 0x1B1D8, symBinAddr: 0x1B738, symSize: 0x13E4 }
  - { offset: 0x8B74F, size: 0x8, addend: 0x0, symName: __ZN21django_template_oxide4tags13value_compare17hf2236dde8ef8a84cE, symObjAddr: 0x1C5BC, symBinAddr: 0x1CB1C, symSize: 0x16C }
  - { offset: 0x8BB27, size: 0x8, addend: 0x0, symName: __ZN21django_template_oxide4tags14compile_filter17h292eec4d32b58d51E, symObjAddr: 0x1C728, symBinAddr: 0x1CC88, symSize: 0x424 }
  - { offset: 0x8D14C, size: 0x8, addend: 0x0, symName: __ZN21django_template_oxide4tags15compile_comment17hc3e797c35978547aE, symObjAddr: 0x1CB4C, symBinAddr: 0x1D0AC, symSize: 0x150 }
  - { offset: 0x8D522, size: 0x8, addend: 0x0, symName: __ZN21django_template_oxide4tags15compile_firstof17h29cb2a88d7216f52E, symObjAddr: 0x1CC9C, symBinAddr: 0x1D1FC, symSize: 0x488 }
  - { offset: 0x8E7E1, size: 0x8, addend: 0x0, symName: __ZN21django_template_oxide4tags15compile_partial17h22078af32e38a120E, symObjAddr: 0x1D124, symBinAddr: 0x1D684, symSize: 0x3C8 }
  - { offset: 0x8FF6B, size: 0x8, addend: 0x0, symName: __ZN21django_template_oxide4tags16compile_verbatim17h7ceb467d05636dd7E, symObjAddr: 0x1D4EC, symBinAddr: 0x1DA4C, symSize: 0x2F8 }
  - { offset: 0x91073, size: 0x8, addend: 0x0, symName: __ZN21django_template_oxide4tags16resolve_if_value17hdbd92316c51817ceE, symObjAddr: 0x1D7E4, symBinAddr: 0x1DD44, symSize: 0x117C }
  - { offset: 0x94176, size: 0x8, addend: 0x0, symName: __ZN21django_template_oxide4tags17compile_ifchanged17h5c1b23dcb609a724E, symObjAddr: 0x1E960, symBinAddr: 0x1EEC0, symSize: 0x5D0 }
  - { offset: 0x95B5F, size: 0x8, addend: 0x0, symName: __ZN21django_template_oxide4tags17compile_spaceless17hd234a362a4867df4E, symObjAddr: 0x1EF30, symBinAddr: 0x1F490, symSize: 0x188 }
  - { offset: 0x95F8A, size: 0x8, addend: 0x0, symName: __ZN21django_template_oxide4tags18compile_autoescape17h2af9ee6908cdf99cE, symObjAddr: 0x1F0B8, symBinAddr: 0x1F618, symSize: 0x328 }
  - { offset: 0x96FCA, size: 0x8, addend: 0x0, symName: __ZN21django_template_oxide4tags18compile_csrf_token17h7122d023911562a9E, symObjAddr: 0x1F3E0, symBinAddr: 0x1F940, symSize: 0x9C }
  - { offset: 0x97122, size: 0x8, addend: 0x0, symName: __ZN21django_template_oxide4tags18compile_partialdef17hb6d751fb6341ad15E, symObjAddr: 0x1F47C, symBinAddr: 0x1F9DC, symSize: 0x3F8 }
  - { offset: 0x9868F, size: 0x8, addend: 0x0, symName: __ZN21django_template_oxide4tags18compile_resetcycle17hcc0040285f9ece88E, symObjAddr: 0x1F874, symBinAddr: 0x1FDD4, symSize: 0x520 }
  - { offset: 0x9A468, size: 0x8, addend: 0x0, symName: __ZN21django_template_oxide4tags18compile_widthratio17h26bc95b08f65f2a8E, symObjAddr: 0x1FD94, symBinAddr: 0x202F4, symSize: 0x4F0 }
  - { offset: 0x9B1FD, size: 0x8, addend: 0x0, symName: __ZN21django_template_oxide4tags18parse_if_condition17h52fb01c0a10e2f05E, symObjAddr: 0x20284, symBinAddr: 0x207E4, symSize: 0xDC8 }
  - { offset: 0x9F528, size: 0x8, addend: 0x0, symName: __ZN21django_template_oxide4tags19compile_templatetag17hd28e69a1839be145E, symObjAddr: 0x2104C, symBinAddr: 0x215AC, symSize: 0x464 }
  - { offset: 0xA07CB, size: 0x8, addend: 0x0, symName: '__ZN21django_template_oxide4tags19load_python_library28_$u7b$$u7b$closure$u7d$$u7d$17h14d36b6d975b759fE', symObjAddr: 0x21DEC, symBinAddr: 0x2234C, symSize: 0x84 }
  - { offset: 0xA0871, size: 0x8, addend: 0x0, symName: '__ZN21django_template_oxide4tags19load_python_library28_$u7b$$u7b$closure$u7d$$u7d$17h278037adc84080f5E', symObjAddr: 0x21E70, symBinAddr: 0x223D0, symSize: 0x8C }
  - { offset: 0xA0925, size: 0x8, addend: 0x0, symName: '__ZN21django_template_oxide4tags19load_python_library28_$u7b$$u7b$closure$u7d$$u7d$17hbf0e8c210c25aa34E', symObjAddr: 0x21EFC, symBinAddr: 0x2245C, symSize: 0x84 }
  - { offset: 0xA09CB, size: 0x8, addend: 0x0, symName: '__ZN21django_template_oxide4tags19load_python_library28_$u7b$$u7b$closure$u7d$$u7d$17hf30309c9a2be0b61E', symObjAddr: 0x21F80, symBinAddr: 0x224E0, symSize: 0x84 }
  - { offset: 0xA0A72, size: 0x8, addend: 0x0, symName: __ZN21django_template_oxide4tags19load_python_library17hb44804245fd3b3c4E, symObjAddr: 0x214B0, symBinAddr: 0x21A10, symSize: 0x93C }
  - { offset: 0xA231B, size: 0x8, addend: 0x0, symName: __ZN21django_template_oxide4tags21collect_if_vars_inner17hd4eab7f882456222E, symObjAddr: 0x22004, symBinAddr: 0x22564, symSize: 0xFC }
  - { offset: 0xA276C, size: 0x8, addend: 0x0, symName: __ZN21django_template_oxide4tags21eval_if_expr_to_value17hc78ca7a720208a2aE, symObjAddr: 0x22100, symBinAddr: 0x22660, symSize: 0x1FC }
  - { offset: 0xA2DC8, size: 0x8, addend: 0x0, symName: __ZN21django_template_oxide4tags8value_in17h222a39012b92e717E, symObjAddr: 0x23E6C, symBinAddr: 0x243CC, symSize: 0x35C }
  - { offset: 0xA36EB, size: 0x8, addend: 0x0, symName: '__ZN91_$LT$django_template_oxide..tags..ForNode$u20$as$u20$django_template_oxide..nodes..Node$GT$10set_origin17h859ad609454e57b0E', symObjAddr: 0x680F4, symBinAddr: 0x673FC, symSize: 0x98 }
  - { offset: 0xA3B6E, size: 0x8, addend: 0x0, symName: '__ZN91_$LT$django_template_oxide..tags..ForNode$u20$as$u20$django_template_oxide..nodes..Node$GT$13walk_children17h5bcf36402c943f49E', symObjAddr: 0x6818C, symBinAddr: 0x67494, symSize: 0x68 }
  - { offset: 0xA3BBC, size: 0x8, addend: 0x0, symName: '__ZN91_$LT$django_template_oxide..tags..ForNode$u20$as$u20$django_template_oxide..nodes..Node$GT$15child_nodelists17heb1b3c836e3ffc57E', symObjAddr: 0x681F4, symBinAddr: 0x674FC, symSize: 0x10 }
  - { offset: 0xA3BE7, size: 0x8, addend: 0x0, symName: '__ZN91_$LT$django_template_oxide..tags..ForNode$u20$as$u20$django_template_oxide..nodes..Node$GT$21render_annotated_into17h24dd2bba72b491f3E', symObjAddr: 0x68204, symBinAddr: 0x6750C, symSize: 0x14 }
  - { offset: 0xA3C4B, size: 0x8, addend: 0x0, symName: '__ZN91_$LT$django_template_oxide..tags..ForNode$u20$as$u20$django_template_oxide..nodes..Node$GT$5token17h1405dff58c3f3af9E', symObjAddr: 0x68218, symBinAddr: 0x67520, symSize: 0x10 }
  - { offset: 0xA3C7B, size: 0x8, addend: 0x0, symName: '__ZN91_$LT$django_template_oxide..tags..ForNode$u20$as$u20$django_template_oxide..nodes..Node$GT$5token17h1405dff58c3f3af9E', symObjAddr: 0x68218, symBinAddr: 0x67520, symSize: 0x10 }
  - { offset: 0xA3C94, size: 0x8, addend: 0x0, symName: '__ZN91_$LT$django_template_oxide..tags..ForNode$u20$as$u20$django_template_oxide..nodes..Node$GT$6origin17hdd4a9c7641146618E', symObjAddr: 0x68228, symBinAddr: 0x67530, symSize: 0x18 }
  - { offset: 0xA3CC4, size: 0x8, addend: 0x0, symName: '__ZN91_$LT$django_template_oxide..tags..ForNode$u20$as$u20$django_template_oxide..nodes..Node$GT$6origin17hdd4a9c7641146618E', symObjAddr: 0x68228, symBinAddr: 0x67530, symSize: 0x18 }
  - { offset: 0xA3CE0, size: 0x8, addend: 0x0, symName: '__ZN91_$LT$django_template_oxide..tags..ForNode$u20$as$u20$django_template_oxide..nodes..Node$GT$6render17haef5aa5181f6e771E', symObjAddr: 0x68240, symBinAddr: 0x67548, symSize: 0xBC }
  - { offset: 0xA4009, size: 0x8, addend: 0x0, symName: '__ZN91_$LT$django_template_oxide..tags..ForNode$u20$as$u20$django_template_oxide..nodes..Node$GT$9set_token17h63121cbd727434f9E', symObjAddr: 0x682FC, symBinAddr: 0x67604, symSize: 0x54 }
  - { offset: 0xA4212, size: 0x8, addend: 0x0, symName: '__ZN92_$LT$django_template_oxide..tags..LoadNode$u20$as$u20$django_template_oxide..nodes..Node$GT$10set_origin17hdeee9c782f067d8dE', symObjAddr: 0x6AE80, symBinAddr: 0x6A188, symSize: 0xA4 }
  - { offset: 0xA469E, size: 0x8, addend: 0x0, symName: '__ZN92_$LT$django_template_oxide..tags..LoadNode$u20$as$u20$django_template_oxide..nodes..Node$GT$5token17h0e6b9ad31c0f5735E', symObjAddr: 0x6AF24, symBinAddr: 0x6A22C, symSize: 0x10 }
  - { offset: 0xA46CE, size: 0x8, addend: 0x0, symName: '__ZN92_$LT$django_template_oxide..tags..LoadNode$u20$as$u20$django_template_oxide..nodes..Node$GT$5token17h0e6b9ad31c0f5735E', symObjAddr: 0x6AF24, symBinAddr: 0x6A22C, symSize: 0x10 }
  - { offset: 0xA46E7, size: 0x8, addend: 0x0, symName: '__ZN92_$LT$django_template_oxide..tags..LoadNode$u20$as$u20$django_template_oxide..nodes..Node$GT$6origin17h638a0c0aa8b4fc08E', symObjAddr: 0x6AF34, symBinAddr: 0x6A23C, symSize: 0x14 }
  - { offset: 0xA4717, size: 0x8, addend: 0x0, symName: '__ZN92_$LT$django_template_oxide..tags..LoadNode$u20$as$u20$django_template_oxide..nodes..Node$GT$6origin17h638a0c0aa8b4fc08E', symObjAddr: 0x6AF34, symBinAddr: 0x6A23C, symSize: 0x14 }
  - { offset: 0xA4732, size: 0x8, addend: 0x0, symName: '__ZN92_$LT$django_template_oxide..tags..LoadNode$u20$as$u20$django_template_oxide..nodes..Node$GT$9set_token17h1e5d4be758d5dab9E', symObjAddr: 0x6AF48, symBinAddr: 0x6A250, symSize: 0x54 }
  - { offset: 0xA4959, size: 0x8, addend: 0x0, symName: '__ZN95_$LT$django_template_oxide..tags..PartialNode$u20$as$u20$django_template_oxide..nodes..Node$GT$6render17hce7d43e9fcedd872E', symObjAddr: 0x6E4A8, symBinAddr: 0x6D7B0, symSize: 0x54 }
  - { offset: 0xA4A1D, size: 0x8, addend: 0x0, symName: '__ZN98_$LT$django_template_oxide..tags..ResetCycleNode$u20$as$u20$django_template_oxide..nodes..Node$GT$6render17hfb861c7dbd8ab08eE', symObjAddr: 0x70928, symBinAddr: 0x6FC30, symSize: 0x11C }
  - { offset: 0xA4E90, size: 0x8, addend: 0x0, symName: '__ZN72_$LT$django_template_oxide..tags..IfNode$u20$as$u20$core..fmt..Debug$GT$3fmt17hdf97d54d2b2b8b86E', symObjAddr: 0x632B4, symBinAddr: 0x625BC, symSize: 0x10C }
  - { offset: 0xA4F9D, size: 0x8, addend: 0x0, symName: '__ZN73_$LT$django_template_oxide..tags..ForNode$u20$as$u20$core..fmt..Debug$GT$3fmt17h64501be603b19d31E', symObjAddr: 0x633C0, symBinAddr: 0x626C8, symSize: 0xC0 }
  - { offset: 0xA5020, size: 0x8, addend: 0x0, symName: '__ZN73_$LT$django_template_oxide..tags..NowNode$u20$as$u20$core..fmt..Debug$GT$3fmt17h9b34b8ee017259bbE', symObjAddr: 0x63480, symBinAddr: 0x62788, symSize: 0xAC }
  - { offset: 0xA5065, size: 0x8, addend: 0x0, symName: '__ZN73_$LT$django_template_oxide..tags..UrlNode$u20$as$u20$core..fmt..Debug$GT$3fmt17h7464c8a5f87730c8E', symObjAddr: 0x6352C, symBinAddr: 0x62834, symSize: 0xA8 }
  - { offset: 0xA50E8, size: 0x8, addend: 0x0, symName: '__ZN74_$LT$django_template_oxide..tags..LoadNode$u20$as$u20$core..fmt..Debug$GT$3fmt17h30588f72bb84dd0dE', symObjAddr: 0x635D4, symBinAddr: 0x628DC, symSize: 0xEC }
  - { offset: 0xA51FD, size: 0x8, addend: 0x0, symName: '__ZN74_$LT$django_template_oxide..tags..WithNode$u20$as$u20$core..fmt..Debug$GT$3fmt17h5464e00543f69486E', symObjAddr: 0x636C0, symBinAddr: 0x629C8, symSize: 0xAC }
  - { offset: 0xA5242, size: 0x8, addend: 0x0, symName: '__ZN75_$LT$django_template_oxide..tags..CacheNode$u20$as$u20$core..fmt..Debug$GT$3fmt17h4e4d1c7fe52ade3bE', symObjAddr: 0x64264, symBinAddr: 0x6356C, symSize: 0xB0 }
  - { offset: 0xA52C5, size: 0x8, addend: 0x0, symName: '__ZN75_$LT$django_template_oxide..tags..CycleNode$u20$as$u20$core..fmt..Debug$GT$3fmt17hc984654914f9de0aE', symObjAddr: 0x64314, symBinAddr: 0x6361C, symSize: 0xA8 }
  - { offset: 0xA5348, size: 0x8, addend: 0x0, symName: '__ZN76_$LT$django_template_oxide..tags..FilterNode$u20$as$u20$core..fmt..Debug$GT$3fmt17heecf55724a03bcc9E', symObjAddr: 0x65014, symBinAddr: 0x6431C, symSize: 0xAC }
  - { offset: 0xA538D, size: 0x8, addend: 0x0, symName: '__ZN77_$LT$django_template_oxide..tags..CommentNode$u20$as$u20$core..fmt..Debug$GT$3fmt17h311508aa2a0e79e0E', symObjAddr: 0x650C0, symBinAddr: 0x643C8, symSize: 0xEC }
  - { offset: 0xA54A2, size: 0x8, addend: 0x0, symName: '__ZN77_$LT$django_template_oxide..tags..FirstOfNode$u20$as$u20$core..fmt..Debug$GT$3fmt17h9f924ad3b5fc94a8E', symObjAddr: 0x651AC, symBinAddr: 0x644B4, symSize: 0xAC }
  - { offset: 0xA54E7, size: 0x8, addend: 0x0, symName: '__ZN77_$LT$django_template_oxide..tags..PartialNode$u20$as$u20$core..fmt..Debug$GT$3fmt17h15dad278b7bf0269E', symObjAddr: 0x65258, symBinAddr: 0x64560, symSize: 0x210 }
  - { offset: 0xA596D, size: 0x8, addend: 0x0, symName: '__ZN78_$LT$django_template_oxide..tags..VerbatimNode$u20$as$u20$core..fmt..Debug$GT$3fmt17ha7ce19063ee784a4E', symObjAddr: 0x656E8, symBinAddr: 0x649F0, symSize: 0x10C }
  - { offset: 0xA5A7A, size: 0x8, addend: 0x0, symName: '__ZN79_$LT$django_template_oxide..tags..CsrfTokenNode$u20$as$u20$core..fmt..Debug$GT$3fmt17he1c9dc0ec1da84ccE', symObjAddr: 0x65C0C, symBinAddr: 0x64F14, symSize: 0xEC }
  - { offset: 0xA5B8F, size: 0x8, addend: 0x0, symName: '__ZN79_$LT$django_template_oxide..tags..IfChangedNode$u20$as$u20$core..fmt..Debug$GT$3fmt17h675702aca98e6ed1E', symObjAddr: 0x65CF8, symBinAddr: 0x65000, symSize: 0xA8 }
  - { offset: 0xA5C12, size: 0x8, addend: 0x0, symName: '__ZN79_$LT$django_template_oxide..tags..SpacelessNode$u20$as$u20$core..fmt..Debug$GT$3fmt17h9ba0ecaf996f1489E', symObjAddr: 0x65DA0, symBinAddr: 0x650A8, symSize: 0x10C }
  - { offset: 0xA5D1F, size: 0x8, addend: 0x0, symName: '__ZN80_$LT$django_template_oxide..tags..AutoEscapeNode$u20$as$u20$core..fmt..Debug$GT$3fmt17ha6570d98dd203220E', symObjAddr: 0x6606C, symBinAddr: 0x65374, symSize: 0xAC }
  - { offset: 0xA5D64, size: 0x8, addend: 0x0, symName: '__ZN80_$LT$django_template_oxide..tags..PartialDefNode$u20$as$u20$core..fmt..Debug$GT$3fmt17h7de9100a06a0d2ecE', symObjAddr: 0x66118, symBinAddr: 0x65420, symSize: 0xCC }
  - { offset: 0xA5DA9, size: 0x8, addend: 0x0, symName: '__ZN80_$LT$django_template_oxide..tags..ResetCycleNode$u20$as$u20$core..fmt..Debug$GT$3fmt17h5ea1dd8010193f2dE', symObjAddr: 0x661E4, symBinAddr: 0x654EC, symSize: 0x210 }
  - { offset: 0xA622F, size: 0x8, addend: 0x0, symName: '__ZN80_$LT$django_template_oxide..tags..WidthRatioNode$u20$as$u20$core..fmt..Debug$GT$3fmt17he800171d5f84741dE', symObjAddr: 0x663F4, symBinAddr: 0x656FC, symSize: 0x98 }
  - { offset: 0xA62B2, size: 0x8, addend: 0x0, symName: '__ZN81_$LT$django_template_oxide..tags..TemplateTagNode$u20$as$u20$core..fmt..Debug$GT$3fmt17h53601a52928d6e86E', symObjAddr: 0x66730, symBinAddr: 0x65A38, symSize: 0x210 }
  - { offset: 0xA6738, size: 0x8, addend: 0x0, symName: '__ZN90_$LT$django_template_oxide..tags..IfNode$u20$as$u20$django_template_oxide..nodes..Node$GT$13walk_children17hc985688b26eeff47E', symObjAddr: 0x67B78, symBinAddr: 0x66E80, symSize: 0x54 }
  - { offset: 0xA6776, size: 0x8, addend: 0x0, symName: '__ZN90_$LT$django_template_oxide..tags..IfNode$u20$as$u20$django_template_oxide..nodes..Node$GT$13walk_children17hc985688b26eeff47E', symObjAddr: 0x67B78, symBinAddr: 0x66E80, symSize: 0x54 }
  - { offset: 0xA6794, size: 0x8, addend: 0x0, symName: '__ZN90_$LT$django_template_oxide..tags..IfNode$u20$as$u20$django_template_oxide..nodes..Node$GT$13walk_children17hc985688b26eeff47E', symObjAddr: 0x67B78, symBinAddr: 0x66E80, symSize: 0x54 }
  - { offset: 0xA67B2, size: 0x8, addend: 0x0, symName: '__ZN90_$LT$django_template_oxide..tags..IfNode$u20$as$u20$django_template_oxide..nodes..Node$GT$13walk_children17hc985688b26eeff47E', symObjAddr: 0x67B78, symBinAddr: 0x66E80, symSize: 0x54 }
  - { offset: 0xA685F, size: 0x8, addend: 0x0, symName: '__ZN90_$LT$django_template_oxide..tags..IfNode$u20$as$u20$django_template_oxide..nodes..Node$GT$21render_annotated_into17h89605cf0bd7349d5E', symObjAddr: 0x67BCC, symBinAddr: 0x66ED4, symSize: 0xFC }
  - { offset: 0xA6AA3, size: 0x8, addend: 0x0, symName: '__ZN90_$LT$django_template_oxide..tags..IfNode$u20$as$u20$django_template_oxide..nodes..Node$GT$6render17he67f50370a5b39d3E', symObjAddr: 0x67CC8, symBinAddr: 0x66FD0, symSize: 0x1F0 }
  - { offset: 0xA77DB, size: 0x8, addend: 0x0, symName: '__ZN91_$LT$django_template_oxide..tags..NowNode$u20$as$u20$django_template_oxide..nodes..Node$GT$6render28_$u7b$$u7b$closure$u7d$$u7d$28_$u7b$$u7b$closure$u7d$$u7d$17h1d542ba6f7686b5eE', symObjAddr: 0x693A4, symBinAddr: 0x686AC, symSize: 0x84 }
  - { offset: 0xA7881, size: 0x8, addend: 0x0, symName: '__ZN91_$LT$django_template_oxide..tags..NowNode$u20$as$u20$django_template_oxide..nodes..Node$GT$6render28_$u7b$$u7b$closure$u7d$$u7d$28_$u7b$$u7b$closure$u7d$$u7d$17h6267d7b9b6402305E', symObjAddr: 0x69428, symBinAddr: 0x68730, symSize: 0x84 }
  - { offset: 0xA7927, size: 0x8, addend: 0x0, symName: '__ZN91_$LT$django_template_oxide..tags..NowNode$u20$as$u20$django_template_oxide..nodes..Node$GT$6render28_$u7b$$u7b$closure$u7d$$u7d$28_$u7b$$u7b$closure$u7d$$u7d$17he3da25614f30c5b9E', symObjAddr: 0x694AC, symBinAddr: 0x687B4, symSize: 0x6C }
  - { offset: 0xA7A29, size: 0x8, addend: 0x0, symName: '__ZN91_$LT$django_template_oxide..tags..NowNode$u20$as$u20$django_template_oxide..nodes..Node$GT$6render28_$u7b$$u7b$closure$u7d$$u7d$28_$u7b$$u7b$closure$u7d$$u7d$17hf4cbe51e1d34d542E', symObjAddr: 0x69518, symBinAddr: 0x68820, symSize: 0x84 }
  - { offset: 0xA7AD1, size: 0x8, addend: 0x0, symName: '__ZN91_$LT$django_template_oxide..tags..NowNode$u20$as$u20$django_template_oxide..nodes..Node$GT$6render17hd2278261f55fb86dE', symObjAddr: 0x68350, symBinAddr: 0x67658, symSize: 0x1054 }
  - { offset: 0xA9DB6, size: 0x8, addend: 0x0, symName: '__ZN91_$LT$django_template_oxide..tags..UrlNode$u20$as$u20$django_template_oxide..nodes..Node$GT$10set_origin17h7f4a6d0755673b65E', symObjAddr: 0x6959C, symBinAddr: 0x688A4, symSize: 0x98 }
  - { offset: 0xAA239, size: 0x8, addend: 0x0, symName: '__ZN91_$LT$django_template_oxide..tags..UrlNode$u20$as$u20$django_template_oxide..nodes..Node$GT$5token17h4fec43e7a694f7a9E', symObjAddr: 0x69634, symBinAddr: 0x6893C, symSize: 0x10 }
  - { offset: 0xAA269, size: 0x8, addend: 0x0, symName: '__ZN91_$LT$django_template_oxide..tags..UrlNode$u20$as$u20$django_template_oxide..nodes..Node$GT$5token17h4fec43e7a694f7a9E', symObjAddr: 0x69634, symBinAddr: 0x6893C, symSize: 0x10 }
  - { offset: 0xAA282, size: 0x8, addend: 0x0, symName: '__ZN91_$LT$django_template_oxide..tags..UrlNode$u20$as$u20$django_template_oxide..nodes..Node$GT$6origin17he3af46c279bf47bfE', symObjAddr: 0x69644, symBinAddr: 0x6894C, symSize: 0x18 }
  - { offset: 0xAA2B2, size: 0x8, addend: 0x0, symName: '__ZN91_$LT$django_template_oxide..tags..UrlNode$u20$as$u20$django_template_oxide..nodes..Node$GT$6origin17he3af46c279bf47bfE', symObjAddr: 0x69644, symBinAddr: 0x6894C, symSize: 0x18 }
  - { offset: 0xAA852, size: 0x8, addend: 0x0, symName: '__ZN91_$LT$django_template_oxide..tags..UrlNode$u20$as$u20$django_template_oxide..nodes..Node$GT$6render28_$u7b$$u7b$closure$u7d$$u7d$28_$u7b$$u7b$closure$u7d$$u7d$17h38e640a2da86a9c1E', symObjAddr: 0x6ADA8, symBinAddr: 0x6A0B0, symSize: 0x84 }
  - { offset: 0xAA8FA, size: 0x8, addend: 0x0, symName: '__ZN91_$LT$django_template_oxide..tags..UrlNode$u20$as$u20$django_template_oxide..nodes..Node$GT$6render17h61512e9978f1f47eE', symObjAddr: 0x6965C, symBinAddr: 0x68964, symSize: 0x174C }
  - { offset: 0xAF128, size: 0x8, addend: 0x0, symName: '__ZN91_$LT$django_template_oxide..tags..UrlNode$u20$as$u20$django_template_oxide..nodes..Node$GT$9set_token17hc223570948feef96E', symObjAddr: 0x6AE2C, symBinAddr: 0x6A134, symSize: 0x54 }
  - { offset: 0xAF2F2, size: 0x8, addend: 0x0, symName: '__ZN92_$LT$django_template_oxide..tags..WithNode$u20$as$u20$django_template_oxide..nodes..Node$GT$10set_origin17h6be40b3f33a5bef9E', symObjAddr: 0x6AF9C, symBinAddr: 0x6A2A4, symSize: 0xA4 }
  - { offset: 0xAF77E, size: 0x8, addend: 0x0, symName: '__ZN92_$LT$django_template_oxide..tags..WithNode$u20$as$u20$django_template_oxide..nodes..Node$GT$13walk_children17ha76f9d7d2b49cdb6E', symObjAddr: 0x6B040, symBinAddr: 0x6A348, symSize: 0x14 }
  - { offset: 0xAF7B9, size: 0x8, addend: 0x0, symName: '__ZN92_$LT$django_template_oxide..tags..WithNode$u20$as$u20$django_template_oxide..nodes..Node$GT$5token17hb8bc314775192ff4E', symObjAddr: 0x6B054, symBinAddr: 0x6A35C, symSize: 0x10 }
  - { offset: 0xAF7E9, size: 0x8, addend: 0x0, symName: '__ZN92_$LT$django_template_oxide..tags..WithNode$u20$as$u20$django_template_oxide..nodes..Node$GT$5token17hb8bc314775192ff4E', symObjAddr: 0x6B054, symBinAddr: 0x6A35C, symSize: 0x10 }
  - { offset: 0xAF802, size: 0x8, addend: 0x0, symName: '__ZN92_$LT$django_template_oxide..tags..WithNode$u20$as$u20$django_template_oxide..nodes..Node$GT$6origin17h87b1668aac33a660E', symObjAddr: 0x6B064, symBinAddr: 0x6A36C, symSize: 0x14 }
  - { offset: 0xAF832, size: 0x8, addend: 0x0, symName: '__ZN92_$LT$django_template_oxide..tags..WithNode$u20$as$u20$django_template_oxide..nodes..Node$GT$6origin17h87b1668aac33a660E', symObjAddr: 0x6B064, symBinAddr: 0x6A36C, symSize: 0x14 }
  - { offset: 0xAF84D, size: 0x8, addend: 0x0, symName: '__ZN92_$LT$django_template_oxide..tags..WithNode$u20$as$u20$django_template_oxide..nodes..Node$GT$6render17h2b4943aaa2602653E', symObjAddr: 0x6B078, symBinAddr: 0x6A380, symSize: 0x33C }
  - { offset: 0xB07EB, size: 0x8, addend: 0x0, symName: '__ZN92_$LT$django_template_oxide..tags..WithNode$u20$as$u20$django_template_oxide..nodes..Node$GT$9set_token17h2fe0a83f0db5a428E', symObjAddr: 0x6B3B4, symBinAddr: 0x6A6BC, symSize: 0x54 }
  - { offset: 0xB09B5, size: 0x8, addend: 0x0, symName: '__ZN93_$LT$django_template_oxide..tags..CacheNode$u20$as$u20$django_template_oxide..nodes..Node$GT$10set_origin17h33d488adf6d09f6bE', symObjAddr: 0x6B63C, symBinAddr: 0x6A944, symSize: 0xA4 }
  - { offset: 0xB0E41, size: 0x8, addend: 0x0, symName: '__ZN93_$LT$django_template_oxide..tags..CacheNode$u20$as$u20$django_template_oxide..nodes..Node$GT$13walk_children17h683d56f44905a730E', symObjAddr: 0x6B6E0, symBinAddr: 0x6A9E8, symSize: 0x14 }
  - { offset: 0xB0E7C, size: 0x8, addend: 0x0, symName: '__ZN93_$LT$django_template_oxide..tags..CacheNode$u20$as$u20$django_template_oxide..nodes..Node$GT$5token17hfc8073868894d99fE', symObjAddr: 0x6B6F4, symBinAddr: 0x6A9FC, symSize: 0x10 }
  - { offset: 0xB0EAC, size: 0x8, addend: 0x0, symName: '__ZN93_$LT$django_template_oxide..tags..CacheNode$u20$as$u20$django_template_oxide..nodes..Node$GT$5token17hfc8073868894d99fE', symObjAddr: 0x6B6F4, symBinAddr: 0x6A9FC, symSize: 0x10 }
  - { offset: 0xB0EC5, size: 0x8, addend: 0x0, symName: '__ZN93_$LT$django_template_oxide..tags..CacheNode$u20$as$u20$django_template_oxide..nodes..Node$GT$6origin17h7ac814b02dbbe70aE', symObjAddr: 0x6B704, symBinAddr: 0x6AA0C, symSize: 0x18 }
  - { offset: 0xB0EF5, size: 0x8, addend: 0x0, symName: '__ZN93_$LT$django_template_oxide..tags..CacheNode$u20$as$u20$django_template_oxide..nodes..Node$GT$6origin17h7ac814b02dbbe70aE', symObjAddr: 0x6B704, symBinAddr: 0x6AA0C, symSize: 0x18 }
  - { offset: 0xB1390, size: 0x8, addend: 0x0, symName: '__ZN93_$LT$django_template_oxide..tags..CacheNode$u20$as$u20$django_template_oxide..nodes..Node$GT$6render28_$u7b$$u7b$closure$u7d$$u7d$28_$u7b$$u7b$closure$u7d$$u7d$17h247fd4551ba0b8e2E', symObjAddr: 0x6CCDC, symBinAddr: 0x6BFE4, symSize: 0x84 }
  - { offset: 0xB1436, size: 0x8, addend: 0x0, symName: '__ZN93_$LT$django_template_oxide..tags..CacheNode$u20$as$u20$django_template_oxide..nodes..Node$GT$6render28_$u7b$$u7b$closure$u7d$$u7d$28_$u7b$$u7b$closure$u7d$$u7d$17h49864527201274acE', symObjAddr: 0x6CD60, symBinAddr: 0x6C068, symSize: 0x84 }
  - { offset: 0xB14DC, size: 0x8, addend: 0x0, symName: '__ZN93_$LT$django_template_oxide..tags..CacheNode$u20$as$u20$django_template_oxide..nodes..Node$GT$6render28_$u7b$$u7b$closure$u7d$$u7d$28_$u7b$$u7b$closure$u7d$$u7d$17h72dff3384244a242E', symObjAddr: 0x6CDE4, symBinAddr: 0x6C0EC, symSize: 0x84 }
  - { offset: 0xB1582, size: 0x8, addend: 0x0, symName: '__ZN93_$LT$django_template_oxide..tags..CacheNode$u20$as$u20$django_template_oxide..nodes..Node$GT$6render28_$u7b$$u7b$closure$u7d$$u7d$28_$u7b$$u7b$closure$u7d$$u7d$17he07c2fc0bbc0352dE', symObjAddr: 0x6CE68, symBinAddr: 0x6C170, symSize: 0x84 }
  - { offset: 0xB1628, size: 0x8, addend: 0x0, symName: '__ZN93_$LT$django_template_oxide..tags..CacheNode$u20$as$u20$django_template_oxide..nodes..Node$GT$6render28_$u7b$$u7b$closure$u7d$$u7d$28_$u7b$$u7b$closure$u7d$$u7d$17he7a0217719b2212eE', symObjAddr: 0x6CEEC, symBinAddr: 0x6C1F4, symSize: 0x90 }
  - { offset: 0xB16D5, size: 0x8, addend: 0x0, symName: '__ZN93_$LT$django_template_oxide..tags..CacheNode$u20$as$u20$django_template_oxide..nodes..Node$GT$6render17ha457d612ff7c42f2E', symObjAddr: 0x6B71C, symBinAddr: 0x6AA24, symSize: 0x15C0 }
  - { offset: 0xB6146, size: 0x8, addend: 0x0, symName: '__ZN93_$LT$django_template_oxide..tags..CacheNode$u20$as$u20$django_template_oxide..nodes..Node$GT$9set_token17h591874a1e9f391b9E', symObjAddr: 0x6CF7C, symBinAddr: 0x6C284, symSize: 0x54 }
  - { offset: 0xB6310, size: 0x8, addend: 0x0, symName: '__ZN93_$LT$django_template_oxide..tags..CycleNode$u20$as$u20$django_template_oxide..nodes..Node$GT$10set_origin17h68898ce55216e503E', symObjAddr: 0x6CFD0, symBinAddr: 0x6C2D8, symSize: 0xA4 }
  - { offset: 0xB679C, size: 0x8, addend: 0x0, symName: '__ZN93_$LT$django_template_oxide..tags..CycleNode$u20$as$u20$django_template_oxide..nodes..Node$GT$5token17h130c4b0a8d079b54E', symObjAddr: 0x6D074, symBinAddr: 0x6C37C, symSize: 0x10 }
  - { offset: 0xB67CC, size: 0x8, addend: 0x0, symName: '__ZN93_$LT$django_template_oxide..tags..CycleNode$u20$as$u20$django_template_oxide..nodes..Node$GT$5token17h130c4b0a8d079b54E', symObjAddr: 0x6D074, symBinAddr: 0x6C37C, symSize: 0x10 }
  - { offset: 0xB67E5, size: 0x8, addend: 0x0, symName: '__ZN93_$LT$django_template_oxide..tags..CycleNode$u20$as$u20$django_template_oxide..nodes..Node$GT$6origin17h06943f28201cdf52E', symObjAddr: 0x6D084, symBinAddr: 0x6C38C, symSize: 0x14 }
  - { offset: 0xB6815, size: 0x8, addend: 0x0, symName: '__ZN93_$LT$django_template_oxide..tags..CycleNode$u20$as$u20$django_template_oxide..nodes..Node$GT$6origin17h06943f28201cdf52E', symObjAddr: 0x6D084, symBinAddr: 0x6C38C, symSize: 0x14 }
  - { offset: 0xB6830, size: 0x8, addend: 0x0, symName: '__ZN93_$LT$django_template_oxide..tags..CycleNode$u20$as$u20$django_template_oxide..nodes..Node$GT$6render17hb15be793b3bbb615E', symObjAddr: 0x6D098, symBinAddr: 0x6C3A0, symSize: 0xC2C }
  - { offset: 0xB9BF5, size: 0x8, addend: 0x0, symName: '__ZN93_$LT$django_template_oxide..tags..CycleNode$u20$as$u20$django_template_oxide..nodes..Node$GT$9set_token17hc2d909fac4e877f8E', symObjAddr: 0x6DCC4, symBinAddr: 0x6CFCC, symSize: 0x54 }
  - { offset: 0xB9DBF, size: 0x8, addend: 0x0, symName: '__ZN94_$LT$django_template_oxide..tags..FilterNode$u20$as$u20$django_template_oxide..nodes..Node$GT$6render17ha2dae7a6380246d6E', symObjAddr: 0x6DD18, symBinAddr: 0x6D020, symSize: 0x1C0 }
  - { offset: 0xBA5C9, size: 0x8, addend: 0x0, symName: '__ZN95_$LT$django_template_oxide..tags..FirstOfNode$u20$as$u20$django_template_oxide..nodes..Node$GT$10set_origin17hbf781e100134cf4dE', symObjAddr: 0x6E034, symBinAddr: 0x6D33C, symSize: 0xA4 }
  - { offset: 0xBAA55, size: 0x8, addend: 0x0, symName: '__ZN95_$LT$django_template_oxide..tags..FirstOfNode$u20$as$u20$django_template_oxide..nodes..Node$GT$5token17h33633884161d61b5E', symObjAddr: 0x6E0D8, symBinAddr: 0x6D3E0, symSize: 0x10 }
  - { offset: 0xBAA85, size: 0x8, addend: 0x0, symName: '__ZN95_$LT$django_template_oxide..tags..FirstOfNode$u20$as$u20$django_template_oxide..nodes..Node$GT$5token17h33633884161d61b5E', symObjAddr: 0x6E0D8, symBinAddr: 0x6D3E0, symSize: 0x10 }
  - { offset: 0xBAA9E, size: 0x8, addend: 0x0, symName: '__ZN95_$LT$django_template_oxide..tags..FirstOfNode$u20$as$u20$django_template_oxide..nodes..Node$GT$6origin17hec45836045814b78E', symObjAddr: 0x6E0E8, symBinAddr: 0x6D3F0, symSize: 0x14 }
  - { offset: 0xBAACE, size: 0x8, addend: 0x0, symName: '__ZN95_$LT$django_template_oxide..tags..FirstOfNode$u20$as$u20$django_template_oxide..nodes..Node$GT$6origin17hec45836045814b78E', symObjAddr: 0x6E0E8, symBinAddr: 0x6D3F0, symSize: 0x14 }
  - { offset: 0xBAAE9, size: 0x8, addend: 0x0, symName: '__ZN95_$LT$django_template_oxide..tags..FirstOfNode$u20$as$u20$django_template_oxide..nodes..Node$GT$6render17h5082fe5d2e61d4d6E', symObjAddr: 0x6E0FC, symBinAddr: 0x6D404, symSize: 0x358 }
  - { offset: 0xBB5EF, size: 0x8, addend: 0x0, symName: '__ZN95_$LT$django_template_oxide..tags..FirstOfNode$u20$as$u20$django_template_oxide..nodes..Node$GT$9set_token17h83a3bae1f4a581dbE', symObjAddr: 0x6E454, symBinAddr: 0x6D75C, symSize: 0x54 }
  - { offset: 0xBB7B9, size: 0x8, addend: 0x0, symName: '__ZN96_$LT$django_template_oxide..tags..VerbatimNode$u20$as$u20$django_template_oxide..nodes..Node$GT$10set_origin17hf1aa9ba4914c8de9E', symObjAddr: 0x6E5D4, symBinAddr: 0x6D8DC, symSize: 0xA4 }
  - { offset: 0xBBC45, size: 0x8, addend: 0x0, symName: '__ZN96_$LT$django_template_oxide..tags..VerbatimNode$u20$as$u20$django_template_oxide..nodes..Node$GT$13walk_children17ha6c76ac95d6c2546E', symObjAddr: 0x6E678, symBinAddr: 0x6D980, symSize: 0x14 }
  - { offset: 0xBBC80, size: 0x8, addend: 0x0, symName: '__ZN96_$LT$django_template_oxide..tags..VerbatimNode$u20$as$u20$django_template_oxide..nodes..Node$GT$6origin17h452ed63154141028E', symObjAddr: 0x6E68C, symBinAddr: 0x6D994, symSize: 0x14 }
  - { offset: 0xBBCB0, size: 0x8, addend: 0x0, symName: '__ZN96_$LT$django_template_oxide..tags..VerbatimNode$u20$as$u20$django_template_oxide..nodes..Node$GT$6origin17h452ed63154141028E', symObjAddr: 0x6E68C, symBinAddr: 0x6D994, symSize: 0x14 }
  - { offset: 0xBBCCB, size: 0x8, addend: 0x0, symName: '__ZN96_$LT$django_template_oxide..tags..VerbatimNode$u20$as$u20$django_template_oxide..nodes..Node$GT$6render17h15b531c910f8fc59E', symObjAddr: 0x6E6A0, symBinAddr: 0x6D9A8, symSize: 0x1C0 }
  - { offset: 0xBC4B6, size: 0x8, addend: 0x0, symName: '__ZN97_$LT$django_template_oxide..tags..CsrfTokenNode$u20$as$u20$django_template_oxide..nodes..Node$GT$6render17he95338310e434866E', symObjAddr: 0x6EF1C, symBinAddr: 0x6E224, symSize: 0x2D8 }
  - { offset: 0xBD211, size: 0x8, addend: 0x0, symName: '__ZN97_$LT$django_template_oxide..tags..IfChangedNode$u20$as$u20$django_template_oxide..nodes..Node$GT$10set_origin17h530337c1dec676daE', symObjAddr: 0x6F1F4, symBinAddr: 0x6E4FC, symSize: 0xA4 }
  - { offset: 0xBD69D, size: 0x8, addend: 0x0, symName: '__ZN97_$LT$django_template_oxide..tags..IfChangedNode$u20$as$u20$django_template_oxide..nodes..Node$GT$13walk_children17h7722158a46a06267E', symObjAddr: 0x6F298, symBinAddr: 0x6E5A0, symSize: 0x68 }
  - { offset: 0xBD6EF, size: 0x8, addend: 0x0, symName: '__ZN97_$LT$django_template_oxide..tags..IfChangedNode$u20$as$u20$django_template_oxide..nodes..Node$GT$15child_nodelists17h808d9dd0536409e7E', symObjAddr: 0x6F300, symBinAddr: 0x6E608, symSize: 0x10 }
  - { offset: 0xBD71A, size: 0x8, addend: 0x0, symName: '__ZN97_$LT$django_template_oxide..tags..IfChangedNode$u20$as$u20$django_template_oxide..nodes..Node$GT$5token17h7bfd71ee673da82fE', symObjAddr: 0x6F310, symBinAddr: 0x6E618, symSize: 0x10 }
  - { offset: 0xBD74A, size: 0x8, addend: 0x0, symName: '__ZN97_$LT$django_template_oxide..tags..IfChangedNode$u20$as$u20$django_template_oxide..nodes..Node$GT$5token17h7bfd71ee673da82fE', symObjAddr: 0x6F310, symBinAddr: 0x6E618, symSize: 0x10 }
  - { offset: 0xBD763, size: 0x8, addend: 0x0, symName: '__ZN97_$LT$django_template_oxide..tags..IfChangedNode$u20$as$u20$django_template_oxide..nodes..Node$GT$6origin17hdba5902fcffef166E', symObjAddr: 0x6F320, symBinAddr: 0x6E628, symSize: 0x14 }
  - { offset: 0xBD793, size: 0x8, addend: 0x0, symName: '__ZN97_$LT$django_template_oxide..tags..IfChangedNode$u20$as$u20$django_template_oxide..nodes..Node$GT$6origin17hdba5902fcffef166E', symObjAddr: 0x6F320, symBinAddr: 0x6E628, symSize: 0x14 }
  - { offset: 0xBD7AE, size: 0x8, addend: 0x0, symName: '__ZN97_$LT$django_template_oxide..tags..IfChangedNode$u20$as$u20$django_template_oxide..nodes..Node$GT$6render17h7f6afd7f5a691823E', symObjAddr: 0x6F334, symBinAddr: 0x6E63C, symSize: 0x87C }
  - { offset: 0xC0312, size: 0x8, addend: 0x0, symName: '__ZN97_$LT$django_template_oxide..tags..IfChangedNode$u20$as$u20$django_template_oxide..nodes..Node$GT$9set_token17h77caa80a0e5c4c3dE', symObjAddr: 0x6FBB0, symBinAddr: 0x6EEB8, symSize: 0x54 }
  - { offset: 0xC04FA, size: 0x8, addend: 0x0, symName: '__ZN97_$LT$django_template_oxide..tags..SpacelessNode$u20$as$u20$django_template_oxide..nodes..Node$GT$6render17hdc70be96f078b1c9E', symObjAddr: 0x6FC04, symBinAddr: 0x6EF0C, symSize: 0x798 }
  - { offset: 0xC2B69, size: 0x8, addend: 0x0, symName: '__ZN98_$LT$django_template_oxide..tags..AutoEscapeNode$u20$as$u20$django_template_oxide..nodes..Node$GT$10set_origin17h37865a599e4f3e77E', symObjAddr: 0x7039C, symBinAddr: 0x6F6A4, symSize: 0xA4 }
  - { offset: 0xC2FF5, size: 0x8, addend: 0x0, symName: '__ZN98_$LT$django_template_oxide..tags..AutoEscapeNode$u20$as$u20$django_template_oxide..nodes..Node$GT$13walk_children17h4f1778104d3c5058E', symObjAddr: 0x70440, symBinAddr: 0x6F748, symSize: 0x14 }
  - { offset: 0xC3030, size: 0x8, addend: 0x0, symName: '__ZN98_$LT$django_template_oxide..tags..AutoEscapeNode$u20$as$u20$django_template_oxide..nodes..Node$GT$6origin17h00485f2b7ff39815E', symObjAddr: 0x70454, symBinAddr: 0x6F75C, symSize: 0x14 }
  - { offset: 0xC3060, size: 0x8, addend: 0x0, symName: '__ZN98_$LT$django_template_oxide..tags..AutoEscapeNode$u20$as$u20$django_template_oxide..nodes..Node$GT$6origin17h00485f2b7ff39815E', symObjAddr: 0x70454, symBinAddr: 0x6F75C, symSize: 0x14 }
  - { offset: 0xC307B, size: 0x8, addend: 0x0, symName: '__ZN98_$LT$django_template_oxide..tags..AutoEscapeNode$u20$as$u20$django_template_oxide..nodes..Node$GT$6render17hccbb99ebbb8c9a1bE', symObjAddr: 0x70468, symBinAddr: 0x6F770, symSize: 0x1D4 }
  - { offset: 0xC387D, size: 0x8, addend: 0x0, symName: '__ZN98_$LT$django_template_oxide..tags..PartialDefNode$u20$as$u20$django_template_oxide..nodes..Node$GT$10set_origin17ha7cf3030d7c81375E', symObjAddr: 0x7063C, symBinAddr: 0x6F944, symSize: 0xA4 }
  - { offset: 0xC3D09, size: 0x8, addend: 0x0, symName: '__ZN98_$LT$django_template_oxide..tags..PartialDefNode$u20$as$u20$django_template_oxide..nodes..Node$GT$13walk_children17h623c5781272b1a6fE', symObjAddr: 0x706E0, symBinAddr: 0x6F9E8, symSize: 0x14 }
  - { offset: 0xC3D44, size: 0x8, addend: 0x0, symName: '__ZN98_$LT$django_template_oxide..tags..PartialDefNode$u20$as$u20$django_template_oxide..nodes..Node$GT$5token17h492bc47b5119696eE', symObjAddr: 0x706F4, symBinAddr: 0x6F9FC, symSize: 0x10 }
  - { offset: 0xC3D74, size: 0x8, addend: 0x0, symName: '__ZN98_$LT$django_template_oxide..tags..PartialDefNode$u20$as$u20$django_template_oxide..nodes..Node$GT$5token17h492bc47b5119696eE', symObjAddr: 0x706F4, symBinAddr: 0x6F9FC, symSize: 0x10 }
  - { offset: 0xC3D8D, size: 0x8, addend: 0x0, symName: '__ZN98_$LT$django_template_oxide..tags..PartialDefNode$u20$as$u20$django_template_oxide..nodes..Node$GT$6origin17h6b2150230587a7a0E', symObjAddr: 0x70704, symBinAddr: 0x6FA0C, symSize: 0x14 }
  - { offset: 0xC3DBD, size: 0x8, addend: 0x0, symName: '__ZN98_$LT$django_template_oxide..tags..PartialDefNode$u20$as$u20$django_template_oxide..nodes..Node$GT$6origin17h6b2150230587a7a0E', symObjAddr: 0x70704, symBinAddr: 0x6FA0C, symSize: 0x14 }
  - { offset: 0xC3DD8, size: 0x8, addend: 0x0, symName: '__ZN98_$LT$django_template_oxide..tags..PartialDefNode$u20$as$u20$django_template_oxide..nodes..Node$GT$6render17hebae4afd7d0aa05bE', symObjAddr: 0x70718, symBinAddr: 0x6FA20, symSize: 0x1BC }
  - { offset: 0xC45DB, size: 0x8, addend: 0x0, symName: '__ZN98_$LT$django_template_oxide..tags..PartialDefNode$u20$as$u20$django_template_oxide..nodes..Node$GT$9set_token17hba41661a4cb48ac3E', symObjAddr: 0x708D4, symBinAddr: 0x6FBDC, symSize: 0x54 }
  - { offset: 0xC47A5, size: 0x8, addend: 0x0, symName: '__ZN98_$LT$django_template_oxide..tags..WidthRatioNode$u20$as$u20$django_template_oxide..nodes..Node$GT$10set_origin17hd8d3437389d584b7E', symObjAddr: 0x70A44, symBinAddr: 0x6FD4C, symSize: 0xA4 }
  - { offset: 0xC4C31, size: 0x8, addend: 0x0, symName: '__ZN98_$LT$django_template_oxide..tags..WidthRatioNode$u20$as$u20$django_template_oxide..nodes..Node$GT$5token17haff5c50a337a1cb9E', symObjAddr: 0x70AE8, symBinAddr: 0x6FDF0, symSize: 0x10 }
  - { offset: 0xC4C61, size: 0x8, addend: 0x0, symName: '__ZN98_$LT$django_template_oxide..tags..WidthRatioNode$u20$as$u20$django_template_oxide..nodes..Node$GT$5token17haff5c50a337a1cb9E', symObjAddr: 0x70AE8, symBinAddr: 0x6FDF0, symSize: 0x10 }
  - { offset: 0xC4C7A, size: 0x8, addend: 0x0, symName: '__ZN98_$LT$django_template_oxide..tags..WidthRatioNode$u20$as$u20$django_template_oxide..nodes..Node$GT$6origin17h794cc820c87ff7b5E', symObjAddr: 0x70AF8, symBinAddr: 0x6FE00, symSize: 0x18 }
  - { offset: 0xC4CAA, size: 0x8, addend: 0x0, symName: '__ZN98_$LT$django_template_oxide..tags..WidthRatioNode$u20$as$u20$django_template_oxide..nodes..Node$GT$6origin17h794cc820c87ff7b5E', symObjAddr: 0x70AF8, symBinAddr: 0x6FE00, symSize: 0x18 }
  - { offset: 0xC4CC6, size: 0x8, addend: 0x0, symName: '__ZN98_$LT$django_template_oxide..tags..WidthRatioNode$u20$as$u20$django_template_oxide..nodes..Node$GT$6render17hb16c288bc52107dcE', symObjAddr: 0x70B10, symBinAddr: 0x6FE18, symSize: 0x424 }
  - { offset: 0xC5A04, size: 0x8, addend: 0x0, symName: '__ZN98_$LT$django_template_oxide..tags..WidthRatioNode$u20$as$u20$django_template_oxide..nodes..Node$GT$9set_token17hd2cd0b6c1722fb52E', symObjAddr: 0x70F34, symBinAddr: 0x7023C, symSize: 0x54 }
  - { offset: 0xC5C19, size: 0x8, addend: 0x0, symName: '__ZN99_$LT$django_template_oxide..tags..TemplateTagNode$u20$as$u20$django_template_oxide..nodes..Node$GT$6render17hfbe96ebc0196f7a9E', symObjAddr: 0x70F88, symBinAddr: 0x70290, symSize: 0x314 }
  - { offset: 0xC6697, size: 0x8, addend: 0x0, symName: '__ZN75_$LT$django_template_oxide..smartif..IfExpr$u20$as$u20$core..fmt..Debug$GT$3fmt17h7021a55a15cf772eE', symObjAddr: 0x63C24, symBinAddr: 0x62F2C, symSize: 0x640 }
  - { offset: 0xC73DB, size: 0x8, addend: 0x0, symName: __ZN21django_template_oxide5_rust9_PYO3_DEF17h0533e46d61f5559fE, symObjAddr: 0x1D5A78, symBinAddr: 0x204460, symSize: 0x0 }
  - { offset: 0xC73FA, size: 0x8, addend: 0x0, symName: __ZN21django_template_oxide5_rust9_PYO3_DEF5SLOTS17h7baf4a4115fb9c0dE, symObjAddr: 0x1D5AF8, symBinAddr: 0x2044E0, symSize: 0x0 }
  - { offset: 0xC7407, size: 0x8, addend: 0x0, symName: __ZN21django_template_oxide5_rust9_PYO3_DEF18__pyo3_module_exec17h137f56bc1460a67cE, symObjAddr: 0x27694, symBinAddr: 0x27BF4, symSize: 0x848 }
  - { offset: 0xC903E, size: 0x8, addend: 0x0, symName: _PyInit__rust, symObjAddr: 0x0, symBinAddr: 0x848, symSize: 0xC }
  - { offset: 0xC905F, size: 0x8, addend: 0x0, symName: _PyInit__rust, symObjAddr: 0x0, symBinAddr: 0x848, symSize: 0xC }
  - { offset: 0xC90EC, size: 0x8, addend: 0x0, symName: __MergedGlobals, symObjAddr: 0x1D64E0, symBinAddr: 0x204EC8, symSize: 0x0 }
  - { offset: 0xC9266, size: 0x8, addend: 0x0, symName: __ZN21django_template_oxide7filters10filter_add17hdb0d113edb804aacE, symObjAddr: 0x36420, symBinAddr: 0x368F4, symSize: 0x95C }
  - { offset: 0xCB0AE, size: 0x8, addend: 0x0, symName: __ZN21django_template_oxide7filters10filter_cut17h3301491ab9b872e0E, symObjAddr: 0x36D7C, symBinAddr: 0x37250, symSize: 0x140 }
  - { offset: 0xCB92D, size: 0x8, addend: 0x0, symName: __ZN21django_template_oxide7filters11filter_date17h5f7ee0e37e709521E, symObjAddr: 0x36EBC, symBinAddr: 0x37390, symSize: 0x20 }
  - { offset: 0xCBAD4, size: 0x8, addend: 0x0, symName: __ZN21django_template_oxide7filters11filter_join17h4e14971110ccf349E, symObjAddr: 0x36EDC, symBinAddr: 0x373B0, symSize: 0x8B4 }
  - { offset: 0xCE70D, size: 0x8, addend: 0x0, symName: __ZN21django_template_oxide7filters11filter_last17h9dee744b690cfd32E, symObjAddr: 0x37790, symBinAddr: 0x37C64, symSize: 0x5A4 }
  - { offset: 0xCF485, size: 0x8, addend: 0x0, symName: __ZN21django_template_oxide7filters11filter_safe17h97eb940734ea98b6E, symObjAddr: 0x37D34, symBinAddr: 0x38208, symSize: 0x9C }
  - { offset: 0xCF606, size: 0x8, addend: 0x0, symName: __ZN21django_template_oxide7filters11filter_time17h879f8d222a3a28d5E, symObjAddr: 0x37DD0, symBinAddr: 0x382A4, symSize: 0x20 }
  - { offset: 0xCF718, size: 0x8, addend: 0x0, symName: __ZN21django_template_oxide7filters12filter_first17hfada155a34ea0924E, symObjAddr: 0x37DF0, symBinAddr: 0x382C4, symSize: 0x4F0 }
  - { offset: 0xD0467, size: 0x8, addend: 0x0, symName: __ZN21django_template_oxide7filters12filter_ljust17heb37d403f945de7cE, symObjAddr: 0x382E0, symBinAddr: 0x387B4, symSize: 0x29C }
  - { offset: 0xD0B04, size: 0x8, addend: 0x0, symName: __ZN21django_template_oxide7filters12filter_lower17h9f6c4b3f0acd1c21E, symObjAddr: 0x3857C, symBinAddr: 0x38A50, symSize: 0xC4 }
  - { offset: 0xD104D, size: 0x8, addend: 0x0, symName: __ZN21django_template_oxide7filters12filter_rjust17h4a9afb0a5b4b307fE, symObjAddr: 0x38640, symBinAddr: 0x38B14, symSize: 0x380 }
  - { offset: 0xD1F49, size: 0x8, addend: 0x0, symName: __ZN21django_template_oxide7filters12filter_slice17h4bbbd6e0d6583c10E, symObjAddr: 0x389C0, symBinAddr: 0x38E94, symSize: 0xE38 }
  - { offset: 0xD5B1F, size: 0x8, addend: 0x0, symName: __ZN21django_template_oxide7filters12filter_title17h86840d53ff1c8ec2E, symObjAddr: 0x397F8, symBinAddr: 0x39CCC, symSize: 0x11AC }
  - { offset: 0xD8ABC, size: 0x8, addend: 0x0, symName: __ZN21django_template_oxide7filters12filter_upper17h947c5f68a827b49cE, symObjAddr: 0x3A9A4, symBinAddr: 0x3AE78, symSize: 0xB8 }
  - { offset: 0xD8FF6, size: 0x8, addend: 0x0, symName: __ZN21django_template_oxide7filters12filter_yesno17h471a5f8c2e9eed6cE, symObjAddr: 0x3AA5C, symBinAddr: 0x3AF30, symSize: 0x320 }
  - { offset: 0xDA509, size: 0x8, addend: 0x0, symName: __ZN21django_template_oxide7filters12value_length17h9259fc86b3fabfe0E, symObjAddr: 0x3AD7C, symBinAddr: 0x3B250, symSize: 0x360 }
  - { offset: 0xDABA2, size: 0x8, addend: 0x0, symName: __ZN21django_template_oxide7filters13coerce_to_i6417h0f9706dd3153cfe6E, symObjAddr: 0x3B0DC, symBinAddr: 0x3B5B0, symSize: 0x1E8 }
  - { offset: 0xDB110, size: 0x8, addend: 0x0, symName: __ZN21django_template_oxide7filters13filter_center17h687a220091689540E, symObjAddr: 0x3B2C4, symBinAddr: 0x3B798, symSize: 0x418 }
  - { offset: 0xDC187, size: 0x8, addend: 0x0, symName: __ZN21django_template_oxide7filters13filter_escape17h0936077fad96c10cE, symObjAddr: 0x3B6DC, symBinAddr: 0x3BBB0, symSize: 0x158 }
  - { offset: 0xDC9A2, size: 0x8, addend: 0x0, symName: __ZN21django_template_oxide7filters13filter_length17hf38d92a51d7546d8E, symObjAddr: 0x3B834, symBinAddr: 0x3BD08, symSize: 0x2C }
  - { offset: 0xDC9E9, size: 0x8, addend: 0x0, symName: __ZN21django_template_oxide7filters13filter_pprint17h553e1b416209b3e8E, symObjAddr: 0x3B860, symBinAddr: 0x3BD34, symSize: 0x58 }
  - { offset: 0xDCA9A, size: 0x8, addend: 0x0, symName: __ZN21django_template_oxide7filters13filter_random17h29d6f71a506b029dE, symObjAddr: 0x3B8B8, symBinAddr: 0x3BD8C, symSize: 0x128 }
  - { offset: 0xDCF76, size: 0x8, addend: 0x0, symName: __ZN21django_template_oxide7filters13filter_urlize17h3b76a43dab42b7a4E, symObjAddr: 0x3B9E0, symBinAddr: 0x3BEB4, symSize: 0x24 }
  - { offset: 0xDD165, size: 0x8, addend: 0x0, symName: __ZN21django_template_oxide7filters13value_to_json17h03c4d2d4f10b6591E, symObjAddr: 0x3BA04, symBinAddr: 0x3BED8, symSize: 0x1A3C }
  - { offset: 0xE6D30, size: 0x8, addend: 0x0, symName: __ZN21django_template_oxide7filters13value_to_list17h35bc397a88cf29d8E, symObjAddr: 0x3D440, symBinAddr: 0x3D914, symSize: 0x3E8 }
  - { offset: 0xE75C7, size: 0x8, addend: 0x0, symName: __ZN21django_template_oxide7filters14compare_values17ha9fed27200c7d5a5E, symObjAddr: 0x3D828, symBinAddr: 0x3DCFC, symSize: 0x1C8 }
  - { offset: 0xE8043, size: 0x8, addend: 0x0, symName: __ZN21django_template_oxide7filters14filter_default17h5713c323695ce0ecE, symObjAddr: 0x3D9F0, symBinAddr: 0x3DEC4, symSize: 0x158 }
  - { offset: 0xE8246, size: 0x8, addend: 0x0, symName: __ZN21django_template_oxide7filters14filter_safeseq17h9d85f2de54dea61dE, symObjAddr: 0x3DB48, symBinAddr: 0x3E01C, symSize: 0x210 }
  - { offset: 0xE8744, size: 0x8, addend: 0x0, symName: __ZN21django_template_oxide7filters14filter_slugify17h114eae9bee13a51fE, symObjAddr: 0x3DD58, symBinAddr: 0x3E22C, symSize: 0x3D0 }
  - { offset: 0xE9BAD, size: 0x8, addend: 0x0, symName: __ZN21django_template_oxide7filters15dict_get_dotted17h6dd181784e80b590E, symObjAddr: 0x3E128, symBinAddr: 0x3E5FC, symSize: 0x1CC }
  - { offset: 0xE9D7C, size: 0x8, addend: 0x0, symName: __ZN21django_template_oxide7filters15filter_capfirst17h0b3f352425bb5215E, symObjAddr: 0x3E2F4, symBinAddr: 0x3E7C8, symSize: 0x608 }
  - { offset: 0xEB6E2, size: 0x8, addend: 0x0, symName: __ZN21django_template_oxide7filters15filter_dictsort17he0e91513a9939aadE, symObjAddr: 0x3E8FC, symBinAddr: 0x3EDD0, symSize: 0x130 }
  - { offset: 0xEBC84, size: 0x8, addend: 0x0, symName: __ZN21django_template_oxide7filters15filter_escapejs17h063946cb3d4f1436E, symObjAddr: 0x3EA2C, symBinAddr: 0x3EF00, symSize: 0x650 }
  - { offset: 0xEE234, size: 0x8, addend: 0x0, symName: __ZN21django_template_oxide7filters15filter_wordwrap17hd970bd6e6152ac0dE, symObjAddr: 0x3F07C, symBinAddr: 0x3F550, symSize: 0x47C }
  - { offset: 0xEF4BC, size: 0x8, addend: 0x0, symName: __ZN21django_template_oxide7filters15value_to_string17hf05ab86fbf434f9fE, symObjAddr: 0x3F4F8, symBinAddr: 0x3F9CC, symSize: 0x7EC }
  - { offset: 0xF18B5, size: 0x8, addend: 0x0, symName: __ZN21django_template_oxide7filters16filter_get_digit17hf9d0d03afd5e17c7E, symObjAddr: 0x3FCE4, symBinAddr: 0x401B8, symSize: 0x2D4 }
  - { offset: 0xF2366, size: 0x8, addend: 0x0, symName: __ZN21django_template_oxide7filters16filter_iriencode17h44761c4ca0e02d2cE, symObjAddr: 0x3FFB8, symBinAddr: 0x4048C, symSize: 0x6C0 }
  - { offset: 0xF3E0D, size: 0x8, addend: 0x0, symName: __ZN21django_template_oxide7filters16filter_length_is17hd6cf52b8dc5bd4eeE, symObjAddr: 0x40678, symBinAddr: 0x40B4C, symSize: 0x5C }
  - { offset: 0xF3F34, size: 0x8, addend: 0x0, symName: __ZN21django_template_oxide7filters16filter_make_list17hc8c849a931308774E, symObjAddr: 0x406D4, symBinAddr: 0x40BA8, symSize: 0x454 }
  - { offset: 0xF54EF, size: 0x8, addend: 0x0, symName: __ZN21django_template_oxide7filters16filter_pluralize17h7a3a6ace9c04afd2E, symObjAddr: 0x40B28, symBinAddr: 0x40FFC, symSize: 0x3D4 }
  - { offset: 0xF6B42, size: 0x8, addend: 0x0, symName: __ZN21django_template_oxide7filters16filter_striptags17hd8f564258dda707eE, symObjAddr: 0x40EFC, symBinAddr: 0x413D0, symSize: 0x3E4 }
  - { offset: 0xF802B, size: 0x8, addend: 0x0, symName: __ZN21django_template_oxide7filters16filter_timesince17hfc529b9594edb3fbE, symObjAddr: 0x412E0, symBinAddr: 0x417B4, symSize: 0x20 }
  - { offset: 0xF8076, size: 0x8, addend: 0x0, symName: __ZN21django_template_oxide7filters16filter_timeuntil17h63b187d59b360554E, symObjAddr: 0x41300, symBinAddr: 0x417D4, symSize: 0x20 }
  - { offset: 0xF80C1, size: 0x8, addend: 0x0, symName: __ZN21django_template_oxide7filters16filter_urlencode17h4f9294e83227c7bdE, symObjAddr: 0x41320, symBinAddr: 0x417F4, symSize: 0x630 }
  - { offset: 0xF9CDB, size: 0x8, addend: 0x0, symName: __ZN21django_template_oxide7filters16filter_wordcount17h0e859d3dfb57fac5E, symObjAddr: 0x41950, symBinAddr: 0x41E24, symSize: 0x98 }
  - { offset: 0xFA1DE, size: 0x8, addend: 0x0, symName: __ZN21django_template_oxide7filters17filter_addslashes17h26798e5fb92efa1fE, symObjAddr: 0x419E8, symBinAddr: 0x41EBC, symSize: 0x424 }
  - { offset: 0xFB779, size: 0x8, addend: 0x0, symName: __ZN21django_template_oxide7filters17filter_linebreaks17h20b05fe0d3a706f8E, symObjAddr: 0x41E0C, symBinAddr: 0x422E0, symSize: 0x88C }
  - { offset: 0xFED82, size: 0x8, addend: 0x0, symName: __ZN21django_template_oxide7filters18call_django_filter17hbf7b2f81766ed309E, symObjAddr: 0x42698, symBinAddr: 0x42B6C, symSize: 0x684 }
  - { offset: 0xFFC24, size: 0x8, addend: 0x0, symName: __ZN21django_template_oxide7filters18call_django_urlize17h2ddee50a49984844E, symObjAddr: 0x42D1C, symBinAddr: 0x431F0, symSize: 0x97C }
  - { offset: 0x101240, size: 0x8, addend: 0x0, symName: __ZN21django_template_oxide7filters18filter_divisibleby17h2cdc4c3ab338c85cE, symObjAddr: 0x43698, symBinAddr: 0x43B6C, symSize: 0x8C }
  - { offset: 0x101397, size: 0x8, addend: 0x0, symName: __ZN21django_template_oxide7filters18filter_floatformat17hc42f62f2d16bac76E, symObjAddr: 0x43724, symBinAddr: 0x43BF8, symSize: 0x5BC }
  - { offset: 0x102D2B, size: 0x8, addend: 0x0, symName: __ZN21django_template_oxide7filters18filter_json_script17h7d8fbd28e8fb4e2cE, symObjAddr: 0x43CE0, symBinAddr: 0x441B4, symSize: 0x2BC }
  - { offset: 0x1046EA, size: 0x8, addend: 0x0, symName: __ZN21django_template_oxide7filters18filter_linenumbers17he79dbe94cbdc27e9E, symObjAddr: 0x43F9C, symBinAddr: 0x44470, symSize: 0x68C }
  - { offset: 0x107233, size: 0x8, addend: 0x0, symName: __ZN21django_template_oxide7filters18filter_urlizetrunc17h8c0ff59d4a28f8cfE, symObjAddr: 0x44628, symBinAddr: 0x44AFC, symSize: 0x24 }
  - { offset: 0x1072AC, size: 0x8, addend: 0x0, symName: __ZN21django_template_oxide7filters19filter_force_escape17h5d55057f01df6528E, symObjAddr: 0x4464C, symBinAddr: 0x44B20, symSize: 0x134 }
  - { offset: 0x107AC6, size: 0x8, addend: 0x0, symName: __ZN21django_template_oxide7filters19filter_linebreaksbr17haa2f694ed1421cabE, symObjAddr: 0x44780, symBinAddr: 0x44C54, symSize: 0x314 }
  - { offset: 0x109229, size: 0x8, addend: 0x0, symName: __ZN21django_template_oxide7filters19filter_stringformat17h91e4e929be7892d1E, symObjAddr: 0x44A94, symBinAddr: 0x44F68, symSize: 0xAD8 }
  - { offset: 0x10B7B4, size: 0x8, addend: 0x0, symName: __ZN21django_template_oxide7filters20filter_phone2numeric17h0b9bb9e774197794E, symObjAddr: 0x4556C, symBinAddr: 0x45A40, symSize: 0x2D8 }
  - { offset: 0x10C495, size: 0x8, addend: 0x0, symName: __ZN21django_template_oxide7filters20filter_truncatechars17hce3578d2a63743c1E, symObjAddr: 0x45844, symBinAddr: 0x45D18, symSize: 0x538 }
  - { offset: 0x10D8A8, size: 0x8, addend: 0x0, symName: __ZN21django_template_oxide7filters20filter_truncatewords17hd03cab433c3d5e72E, symObjAddr: 0x45D7C, symBinAddr: 0x46250, symSize: 0x228 }
  - { offset: 0x10E864, size: 0x8, addend: 0x0, symName: __ZN21django_template_oxide7filters21filter_filesizeformat17hcc2a75c2fedfb6fcE, symObjAddr: 0x45FA4, symBinAddr: 0x46478, symSize: 0x240 }
  - { offset: 0x10EC43, size: 0x8, addend: 0x0, symName: __ZN21django_template_oxide7filters21filter_unordered_list12render_items17h51c28965c588353cE, symObjAddr: 0x461E4, symBinAddr: 0x466B8, symSize: 0x790 }
  - { offset: 0x111F16, size: 0x8, addend: 0x0, symName: __ZN21django_template_oxide7filters21filter_unordered_list17h2b88b57011d41c21E, symObjAddr: 0x46974, symBinAddr: 0x46E48, symSize: 0x130 }
  - { offset: 0x112277, size: 0x8, addend: 0x0, symName: __ZN21django_template_oxide7filters22filter_default_if_none17hd4ded6fed191b899E, symObjAddr: 0x46AA4, symBinAddr: 0x46F78, symSize: 0xE8 }
  - { offset: 0x1123A2, size: 0x8, addend: 0x0, symName: __ZN21django_template_oxide7filters23filter_dictsortreversed17h08cb9b4d2c1a2f00E, symObjAddr: 0x46B8C, symBinAddr: 0x47060, symSize: 0x130 }
  - { offset: 0x11291A, size: 0x8, addend: 0x0, symName: __ZN21django_template_oxide7filters25filter_truncatechars_html17h3f18be2b0c46ef0eE, symObjAddr: 0x46CBC, symBinAddr: 0x47190, symSize: 0x4 }
  - { offset: 0x112964, size: 0x8, addend: 0x0, symName: __ZN21django_template_oxide7filters25filter_truncatewords_html17h61381a7abfd4dfa0E, symObjAddr: 0x46CC0, symBinAddr: 0x47194, symSize: 0x4 }
  - { offset: 0x112A47, size: 0x8, addend: 0x0, symName: __ZN21django_template_oxide5utils16html_escape_into17h8106a799a07ab99eE, symObjAddr: 0x31894, symBinAddr: 0x31DF4, symSize: 0x268 }
  - { offset: 0x113AAD, size: 0x8, addend: 0x0, symName: __ZN4pyo34sync9once_lock26init_once_cell_py_attached17h1c9eab729fe32d2bE, symObjAddr: 0x58BC8, symBinAddr: 0x137488, symSize: 0xA0 }
  - { offset: 0x113EB7, size: 0x8, addend: 0x0, symName: __ZN4pyo34sync9once_lock26init_once_cell_py_attached17h5dd406c96dc885b8E, symObjAddr: 0x58C68, symBinAddr: 0x137528, symSize: 0xA0 }
  - { offset: 0x1142C1, size: 0x8, addend: 0x0, symName: __ZN4pyo34sync9once_lock26init_once_cell_py_attached17hc39255aa6d6b1ed4E, symObjAddr: 0x58D08, symBinAddr: 0x1375C8, symSize: 0xA0 }
  - { offset: 0x1146CB, size: 0x8, addend: 0x0, symName: __ZN4pyo34sync9once_lock30try_init_once_cell_py_attached17hcc5f7d52e713edc6E, symObjAddr: 0x58DA8, symBinAddr: 0x137668, symSize: 0x104 }
  - { offset: 0x1166CE, size: 0x8, addend: 0x0, symName: '__ZN4pyo38instance17Borrowed$LT$T$GT$4cast5inner17h2174d5f2501eb687E', symObjAddr: 0x5E8A8, symBinAddr: 0x5E264, symSize: 0x104 }
  - { offset: 0x117167, size: 0x8, addend: 0x0, symName: '__ZN103_$LT$pyo3..instance..Bound$LT$pyo3..types..any..PyAny$GT$$u20$as$u20$pyo3..types..any..PyAnyMethods$GT$11call_method17hfa7fee6f8139eb48E', symObjAddr: 0x78C, symBinAddr: 0xFD4, symSize: 0x288 }
  - { offset: 0x117825, size: 0x8, addend: 0x0, symName: '__ZN103_$LT$pyo3..instance..Bound$LT$pyo3..types..any..PyAny$GT$$u20$as$u20$pyo3..types..any..PyAnyMethods$GT$12call_method017h84f427c70648ec6bE', symObjAddr: 0xA14, symBinAddr: 0x125C, symSize: 0x11C }
  - { offset: 0x117B09, size: 0x8, addend: 0x0, symName: '__ZN103_$LT$pyo3..instance..Bound$LT$pyo3..types..any..PyAny$GT$$u20$as$u20$pyo3..types..any..PyAnyMethods$GT$12call_method117h2996206a85e0f889E', symObjAddr: 0xB30, symBinAddr: 0x1378, symSize: 0x1A8 }
  - { offset: 0x117FE7, size: 0x8, addend: 0x0, symName: '__ZN103_$LT$pyo3..instance..Bound$LT$pyo3..types..any..PyAny$GT$$u20$as$u20$pyo3..types..any..PyAnyMethods$GT$12call_method117hc29b9bf964c113e0E', symObjAddr: 0xCD8, symBinAddr: 0x1520, symSize: 0x180 }
  - { offset: 0x1184BC, size: 0x8, addend: 0x0, symName: '__ZN103_$LT$pyo3..instance..Bound$LT$pyo3..types..any..PyAny$GT$$u20$as$u20$pyo3..types..any..PyAnyMethods$GT$12call_method117hcfeb5d2fe81051c5E', symObjAddr: 0xE58, symBinAddr: 0x16A0, symSize: 0x1FC }
  - { offset: 0x118AE9, size: 0x8, addend: 0x0, symName: '__ZN103_$LT$pyo3..instance..Bound$LT$pyo3..types..any..PyAny$GT$$u20$as$u20$pyo3..types..any..PyAnyMethods$GT$5call017h538b5b31f2c4ba3eE', symObjAddr: 0x1054, symBinAddr: 0x189C, symSize: 0x94 }
  - { offset: 0x118B9F, size: 0x8, addend: 0x0, symName: '__ZN103_$LT$pyo3..instance..Bound$LT$pyo3..types..any..PyAny$GT$$u20$as$u20$pyo3..types..any..PyAnyMethods$GT$7getattr17h844325f26c9f9218E', symObjAddr: 0x10E8, symBinAddr: 0x1930, symSize: 0x120 }
  - { offset: 0x118DF2, size: 0x8, addend: 0x0, symName: '__ZN103_$LT$pyo3..instance..Bound$LT$pyo3..types..any..PyAny$GT$$u20$as$u20$pyo3..types..any..PyAnyMethods$GT$8get_item17ha37f80cba2c9cea4E', symObjAddr: 0x1208, symBinAddr: 0x1A50, symSize: 0x120 }
  - { offset: 0x11907B, size: 0x8, addend: 0x0, symName: '__ZN103_$LT$pyo3..instance..Bound$LT$pyo3..types..any..PyAny$GT$$u20$as$u20$pyo3..types..any..PyAnyMethods$GT$8get_item17hc443a1bc7dc8688dE', symObjAddr: 0x1328, symBinAddr: 0x1B70, symSize: 0x120 }
  - { offset: 0x11A41B, size: 0x8, addend: 0x0, symName: '__ZN115_$LT$pyo3..instance..Bound$LT$pyo3..types..module..PyModule$GT$$u20$as$u20$pyo3..types..module..PyModuleMethods$GT$3add17hff5ebae2f19c04b1E', symObjAddr: 0x94FC, symBinAddr: 0x9D30, symSize: 0x12C }
  - { offset: 0x11AE32, size: 0x8, addend: 0x0, symName: '__ZN4pyo35types5tuple66_$LT$impl$u20$pyo3..call..PyCallArgs$u20$for$u20$$LP$T0$C$$RP$$GT$15call_positional17h80ee8ae4d2050229E', symObjAddr: 0x5DEDC, symBinAddr: 0x5DA28, symSize: 0x1D0 }
  - { offset: 0x11B244, size: 0x8, addend: 0x0, symName: '__ZN4pyo35types5tuple66_$LT$impl$u20$pyo3..call..PyCallArgs$u20$for$u20$$LP$T0$C$$RP$$GT$15call_positional17hde3856fb78ab7518E', symObjAddr: 0x5E0AC, symBinAddr: 0x5DBF8, symSize: 0x1C4 }
  - { offset: 0x11BA81, size: 0x8, addend: 0x0, symName: '__ZN4pyo35types5tuple68_$LT$impl$u20$pyo3..call..PyCallArgs$u20$for$u20$$LP$T0$C$T1$RP$$GT$15call_positional17hb3f762b044b0a7e7E', symObjAddr: 0x5E270, symBinAddr: 0x5DDBC, symSize: 0x184 }
  - { offset: 0x11C308, size: 0x8, addend: 0x0, symName: '__ZN107_$LT$pyo3..instance..Bound$LT$pyo3..types..dict..PyDict$GT$$u20$as$u20$pyo3..types..dict..PyDictMethods$GT$8set_item17heb5b8ad60dbb9edcE', symObjAddr: 0x2FF4, symBinAddr: 0x3828, symSize: 0x18C }
  - { offset: 0x11C617, size: 0x8, addend: 0x0, symName: '__ZN107_$LT$pyo3..instance..Bound$LT$pyo3..types..dict..PyDict$GT$$u20$as$u20$pyo3..types..dict..PyDictMethods$GT$8set_item17hf0ba15b5d9dcd545E', symObjAddr: 0x3180, symBinAddr: 0x39B4, symSize: 0x134 }
  - { offset: 0x11DEA9, size: 0x8, addend: 0x0, symName: __ZN4pyo35impl_7pyclass10tp_dealloc17h0250d28385b9ca24E, symObjAddr: 0x5DA70, symBinAddr: 0x5D70C, symSize: 0x24 }
  - { offset: 0x11DF03, size: 0x8, addend: 0x0, symName: __ZN4pyo35impl_7pyclass10tp_dealloc17h3a40aceb37b5ad72E, symObjAddr: 0x5DA94, symBinAddr: 0x5D730, symSize: 0x24 }
  - { offset: 0x11DF5D, size: 0x8, addend: 0x0, symName: __ZN4pyo35impl_7pyclass10tp_dealloc17h4854fd9eb28935d8E, symObjAddr: 0x5DAB8, symBinAddr: 0x5D754, symSize: 0x24 }
  - { offset: 0x11DFB7, size: 0x8, addend: 0x0, symName: __ZN4pyo35impl_7pyclass10tp_dealloc17h84e1c6d575ec7532E, symObjAddr: 0x5DADC, symBinAddr: 0x5D778, symSize: 0x24 }
  - { offset: 0x11E0B3, size: 0x8, addend: 0x0, symName: __ZN4pyo35impl_7pyclass18tp_dealloc_with_gc17h20449be02b9f41bbE, symObjAddr: 0x5DC50, symBinAddr: 0x5D79C, symSize: 0x34 }
  - { offset: 0x11E10D, size: 0x8, addend: 0x0, symName: __ZN4pyo35impl_7pyclass18tp_dealloc_with_gc17h3738dfd4aa7fde4fE, symObjAddr: 0x5DC84, symBinAddr: 0x5D7D0, symSize: 0x34 }
  - { offset: 0x11E167, size: 0x8, addend: 0x0, symName: __ZN4pyo35impl_7pyclass18tp_dealloc_with_gc17h84cc6d30cfdeb2abE, symObjAddr: 0x5DCB8, symBinAddr: 0x5D804, symSize: 0x34 }
  - { offset: 0x11E1C1, size: 0x8, addend: 0x0, symName: __ZN4pyo35impl_7pyclass18tp_dealloc_with_gc17hb0bbaf09faec027bE, symObjAddr: 0x5DCEC, symBinAddr: 0x5D838, symSize: 0x34 }
  - { offset: 0x11E2AC, size: 0x8, addend: 0x0, symName: __ZN4pyo35impl_7pyclass32pyo3_get_value_into_pyobject_ref17h41fee7ec642de741E, symObjAddr: 0x5DD20, symBinAddr: 0x5D86C, symSize: 0x94 }
  - { offset: 0x11E777, size: 0x8, addend: 0x0, symName: __ZN4pyo35impl_7pyclass32pyo3_get_value_into_pyobject_ref17hb588aa55631f42fdE, symObjAddr: 0x5DDB4, symBinAddr: 0x5D900, symSize: 0x94 }
  - { offset: 0x11EC42, size: 0x8, addend: 0x0, symName: __ZN4pyo35impl_7pyclass32pyo3_get_value_into_pyobject_ref17hbac85b64962c1a37E, symObjAddr: 0x5DE48, symBinAddr: 0x5D994, symSize: 0x94 }
  - { offset: 0x1202EB, size: 0x8, addend: 0x0, symName: __ZN4pyo35impl_16extract_argument19extract_pyclass_ref17h239e53a0bcd45ce3E, symObjAddr: 0x5D650, symBinAddr: 0x5D2EC, symSize: 0x210 }
  - { offset: 0x120BB9, size: 0x8, addend: 0x0, symName: __ZN4pyo35impl_16extract_argument19extract_pyclass_ref17h8e18e3b8c1dcc84eE, symObjAddr: 0x5D860, symBinAddr: 0x5D4FC, symSize: 0x210 }
  - { offset: 0x122AF8, size: 0x8, addend: 0x0, symName: __ZN4pyo35impl_10trampoline10binaryfunc17hc426224b06863241E, symObjAddr: 0x58EAC, symBinAddr: 0x58B48, symSize: 0x3BC }
  - { offset: 0x12403A, size: 0x8, addend: 0x0, symName: __ZN4pyo35impl_10trampoline10objobjproc17hca5c6182f551f90eE, symObjAddr: 0x59268, symBinAddr: 0x58F04, symSize: 0x2D4 }
  - { offset: 0x124F6D, size: 0x8, addend: 0x0, symName: __ZN4pyo35impl_10trampoline10trampoline17h3d8f8cc2f281d9e2E, symObjAddr: 0x5953C, symBinAddr: 0x591D8, symSize: 0x140 }
  - { offset: 0x1257F9, size: 0x8, addend: 0x0, symName: __ZN4pyo35impl_10trampoline10trampoline17hbf7024e283f90a69E, symObjAddr: 0x5967C, symBinAddr: 0x59318, symSize: 0x160 }
  - { offset: 0x125F90, size: 0x8, addend: 0x0, symName: __ZN4pyo35impl_10trampoline10trampoline17hd73133322471fe41E, symObjAddr: 0x597DC, symBinAddr: 0x59478, symSize: 0x14C }
  - { offset: 0x126709, size: 0x8, addend: 0x0, symName: __ZN4pyo35impl_10trampoline11ternaryfunc17haa6a2e2e9eb1bb81E, symObjAddr: 0x59928, symBinAddr: 0x595C4, symSize: 0xAEC }
  - { offset: 0x129201, size: 0x8, addend: 0x0, symName: __ZN4pyo35impl_10trampoline12setattrofunc17h838330d7c129c068E, symObjAddr: 0x5A414, symBinAddr: 0x5A0B0, symSize: 0x7DC }
  - { offset: 0x12C007, size: 0x8, addend: 0x0, symName: __ZN4pyo35impl_10trampoline21trampoline_unraisable17h5520b50769ee44f3E, symObjAddr: 0x5ABF0, symBinAddr: 0x5A88C, symSize: 0xFC }
  - { offset: 0x12C750, size: 0x8, addend: 0x0, symName: __ZN4pyo35impl_10trampoline23cfunction_with_keywords17h213951ee4b94148dE, symObjAddr: 0x5ACEC, symBinAddr: 0x5A988, symSize: 0xCC4 }
  - { offset: 0x12FD60, size: 0x8, addend: 0x0, symName: __ZN4pyo35impl_10trampoline32fastcall_cfunction_with_keywords17h37219149e5febbd8E, symObjAddr: 0x5B9B0, symBinAddr: 0x5B64C, symSize: 0x58 }
  - { offset: 0x12FDFF, size: 0x8, addend: 0x0, symName: __ZN4pyo35impl_10trampoline32fastcall_cfunction_with_keywords17h3baac6e096794197E, symObjAddr: 0x5BA08, symBinAddr: 0x5B6A4, symSize: 0x58 }
  - { offset: 0x12FE9E, size: 0x8, addend: 0x0, symName: __ZN4pyo35impl_10trampoline32fastcall_cfunction_with_keywords17h61f321918b06caadE, symObjAddr: 0x5BA60, symBinAddr: 0x5B6FC, symSize: 0x58 }
  - { offset: 0x12FF3D, size: 0x8, addend: 0x0, symName: __ZN4pyo35impl_10trampoline32fastcall_cfunction_with_keywords17h701228cd5d02e68eE, symObjAddr: 0x5BAB8, symBinAddr: 0x5B754, symSize: 0x58 }
  - { offset: 0x12FFDC, size: 0x8, addend: 0x0, symName: __ZN4pyo35impl_10trampoline32fastcall_cfunction_with_keywords17h7739042603a302bdE, symObjAddr: 0x5BB10, symBinAddr: 0x5B7AC, symSize: 0x58 }
  - { offset: 0x13007B, size: 0x8, addend: 0x0, symName: __ZN4pyo35impl_10trampoline32fastcall_cfunction_with_keywords17h8cce4d2b5d2b2f94E, symObjAddr: 0x5BB68, symBinAddr: 0x5B804, symSize: 0x58 }
  - { offset: 0x13011A, size: 0x8, addend: 0x0, symName: __ZN4pyo35impl_10trampoline32fastcall_cfunction_with_keywords17hbb328fd8a8bb1669E, symObjAddr: 0x5BBC0, symBinAddr: 0x5B85C, symSize: 0x58 }
  - { offset: 0x1301B9, size: 0x8, addend: 0x0, symName: __ZN4pyo35impl_10trampoline32fastcall_cfunction_with_keywords17hc150c12aaab085d2E, symObjAddr: 0x5BC18, symBinAddr: 0x5B8B4, symSize: 0x58 }
  - { offset: 0x130258, size: 0x8, addend: 0x0, symName: __ZN4pyo35impl_10trampoline6noargs17h341fb26324838fc7E, symObjAddr: 0x5BC70, symBinAddr: 0x5B90C, symSize: 0x24 }
  - { offset: 0x1302BE, size: 0x8, addend: 0x0, symName: __ZN4pyo35impl_10trampoline6noargs17h457ef7b64952da6aE, symObjAddr: 0x5BC94, symBinAddr: 0x5B930, symSize: 0x24 }
  - { offset: 0x130390, size: 0x8, addend: 0x0, symName: __ZN4pyo35impl_10trampoline6noargs17h819476b646da8b26E, symObjAddr: 0x5BCB8, symBinAddr: 0x5B954, symSize: 0xAC }
  - { offset: 0x1308F2, size: 0x8, addend: 0x0, symName: __ZN4pyo35impl_10trampoline6noargs17ha006592dba5a685eE, symObjAddr: 0x5BD64, symBinAddr: 0x5BA00, symSize: 0x24 }
  - { offset: 0x130958, size: 0x8, addend: 0x0, symName: __ZN4pyo35impl_10trampoline6noargs17hba23e296cb14bebdE, symObjAddr: 0x5BD88, symBinAddr: 0x5BA24, symSize: 0x24 }
  - { offset: 0x1309BE, size: 0x8, addend: 0x0, symName: __ZN4pyo35impl_10trampoline6noargs17hdf72aeea468208c1E, symObjAddr: 0x5BDAC, symBinAddr: 0x5BA48, symSize: 0x24 }
  - { offset: 0x130B95, size: 0x8, addend: 0x0, symName: __ZN4pyo35impl_10trampoline7lenfunc17h1c48de7389d68bc9E, symObjAddr: 0x5BDD0, symBinAddr: 0x5BA6C, symSize: 0x904 }
  - { offset: 0x134763, size: 0x8, addend: 0x0, symName: __ZN4pyo35impl_10trampoline7newfunc17h02128f499593310fE, symObjAddr: 0x5C6D4, symBinAddr: 0x5C370, symSize: 0x4C }
  - { offset: 0x1347EC, size: 0x8, addend: 0x0, symName: __ZN4pyo35impl_10trampoline7newfunc17h6fe256123f04d6b7E, symObjAddr: 0x5C720, symBinAddr: 0x5C3BC, symSize: 0x4C }
  - { offset: 0x134875, size: 0x8, addend: 0x0, symName: __ZN4pyo35impl_10trampoline7newfunc17h971efb6916b2f17cE, symObjAddr: 0x5C76C, symBinAddr: 0x5C408, symSize: 0x4C }
  - { offset: 0x1349A0, size: 0x8, addend: 0x0, symName: __ZN4pyo35impl_10trampoline8reprfunc17hc2b649d982cc6a51E, symObjAddr: 0x5C7B8, symBinAddr: 0x5C454, symSize: 0x24 }
  - { offset: 0x1349FB, size: 0x8, addend: 0x0, symName: __ZN4pyo35impl_10trampoline8reprfunc17hd86959a24288c513E, symObjAddr: 0x5C7DC, symBinAddr: 0x5C478, symSize: 0x24 }
  - { offset: 0x134A56, size: 0x8, addend: 0x0, symName: __ZN4pyo35impl_10trampoline8reprfunc17he10982bf1133194fE, symObjAddr: 0x5C800, symBinAddr: 0x5C49C, symSize: 0x24 }
  - { offset: 0x134AB1, size: 0x8, addend: 0x0, symName: __ZN4pyo35impl_10trampoline8reprfunc17hf9898353c1cb72f3E, symObjAddr: 0x5C824, symBinAddr: 0x5C4C0, symSize: 0x24 }
  - { offset: 0x135CF3, size: 0x8, addend: 0x0, symName: __ZN4pyo37pyclass18create_type_object18create_type_object17h82a331f66cd2d05fE, symObjAddr: 0x5E5F4, symBinAddr: 0x1378BC, symSize: 0x64 }
  - { offset: 0x135D6F, size: 0x8, addend: 0x0, symName: __ZN4pyo37pyclass18create_type_object18create_type_object17hc7c2eaf4aa4902c9E, symObjAddr: 0x5E658, symBinAddr: 0x137920, symSize: 0x64 }
  - { offset: 0x135DEC, size: 0x8, addend: 0x0, symName: __ZN4pyo37pyclass18create_type_object18create_type_object17hcd3a97cbacc74c7dE, symObjAddr: 0x5E6BC, symBinAddr: 0x137984, symSize: 0x64 }
  - { offset: 0x135E69, size: 0x8, addend: 0x0, symName: __ZN4pyo37pyclass18create_type_object18create_type_object17hea44c7efc819e6f7E, symObjAddr: 0x5E720, symBinAddr: 0x1379E8, symSize: 0x64 }
  - { offset: 0x1365D9, size: 0x8, addend: 0x0, symName: '__ZN123_$LT$pyo3..pycell..impl_..PyStaticClassObject$LT$T$GT$$u20$as$u20$pyo3..pycell..impl_..PyClassObjectBaseLayout$LT$T$GT$$GT$10tp_dealloc17h23efb603f35fccd8E', symObjAddr: 0xB264, symBinAddr: 0xBA98, symSize: 0x98 }
  - { offset: 0x136833, size: 0x8, addend: 0x0, symName: '__ZN123_$LT$pyo3..pycell..impl_..PyStaticClassObject$LT$T$GT$$u20$as$u20$pyo3..pycell..impl_..PyClassObjectBaseLayout$LT$T$GT$$GT$10tp_dealloc17hd0e28f9ec94a845aE', symObjAddr: 0xB2FC, symBinAddr: 0xBB30, symSize: 0xAC }
  - { offset: 0x136BA4, size: 0x8, addend: 0x0, symName: '__ZN123_$LT$pyo3..pycell..impl_..PyStaticClassObject$LT$T$GT$$u20$as$u20$pyo3..pycell..impl_..PyClassObjectBaseLayout$LT$T$GT$$GT$10tp_dealloc17he6e9fa30fe002595E', symObjAddr: 0xB3A8, symBinAddr: 0xBBDC, symSize: 0xB0 }
  - { offset: 0x136E09, size: 0x8, addend: 0x0, symName: '__ZN123_$LT$pyo3..pycell..impl_..PyStaticClassObject$LT$T$GT$$u20$as$u20$pyo3..pycell..impl_..PyClassObjectBaseLayout$LT$T$GT$$GT$10tp_dealloc17hf1ccb70dbbf82ce5E', symObjAddr: 0xB458, symBinAddr: 0xBC8C, symSize: 0xB0 }
  - { offset: 0x1413D9, size: 0x8, addend: 0x0, symName: '__ZN66_$LT$core..option..Option$LT$T$GT$$u20$as$u20$core..fmt..Debug$GT$3fmt17h0b9e897944058838E', symObjAddr: 0x61658, symBinAddr: 0x60960, symSize: 0x26C }
  - { offset: 0x141691, size: 0x8, addend: 0x0, symName: '__ZN66_$LT$core..option..Option$LT$T$GT$$u20$as$u20$core..fmt..Debug$GT$3fmt17h248958c39a070cf1E', symObjAddr: 0x618C4, symBinAddr: 0x60BCC, symSize: 0x150 }
  - { offset: 0x141A5F, size: 0x8, addend: 0x0, symName: '__ZN66_$LT$core..option..Option$LT$T$GT$$u20$as$u20$core..fmt..Debug$GT$3fmt17h4f3265ad96530bc1E', symObjAddr: 0x61A14, symBinAddr: 0x60D1C, symSize: 0x164 }
  - { offset: 0x141C8D, size: 0x8, addend: 0x0, symName: '__ZN66_$LT$core..option..Option$LT$T$GT$$u20$as$u20$core..fmt..Debug$GT$3fmt17h6245934fe4969335E', symObjAddr: 0x61B78, symBinAddr: 0x60E80, symSize: 0x168 }
  - { offset: 0x141EBA, size: 0x8, addend: 0x0, symName: '__ZN66_$LT$core..option..Option$LT$T$GT$$u20$as$u20$core..fmt..Debug$GT$3fmt17h6b1b547760f89474E', symObjAddr: 0x61CE0, symBinAddr: 0x60FE8, symSize: 0x2B0 }
  - { offset: 0x1421AB, size: 0x8, addend: 0x0, symName: '__ZN66_$LT$core..option..Option$LT$T$GT$$u20$as$u20$core..fmt..Debug$GT$3fmt17hbc961e3db92f3b64E', symObjAddr: 0x61F90, symBinAddr: 0x61298, symSize: 0x264 }
  - { offset: 0x142463, size: 0x8, addend: 0x0, symName: '__ZN66_$LT$core..option..Option$LT$T$GT$$u20$as$u20$core..fmt..Debug$GT$3fmt17hea56f079cf106530E', symObjAddr: 0x621F4, symBinAddr: 0x614FC, symSize: 0x168 }
  - { offset: 0x14266B, size: 0x8, addend: 0x0, symName: '__ZN66_$LT$core..option..Option$LT$T$GT$$u20$as$u20$core..fmt..Debug$GT$3fmt17hf89fec84b008bc1dE', symObjAddr: 0x6235C, symBinAddr: 0x61664, symSize: 0x26C }
  - { offset: 0x142923, size: 0x8, addend: 0x0, symName: '__ZN66_$LT$core..option..Option$LT$T$GT$$u20$as$u20$core..fmt..Debug$GT$3fmt17hffb2a1c408c7c44aE', symObjAddr: 0x625C8, symBinAddr: 0x618D0, symSize: 0x168 }
  - { offset: 0x14FA6C, size: 0x8, addend: 0x0, symName: '__ZN4core3ptr101drop_in_place$LT$core..option..Option$LT$pyo3..instance..Bound$LT$pyo3..types..any..PyAny$GT$$GT$$GT$17ha1ec761b089945c5E', symObjAddr: 0x4F89C, symBinAddr: 0x4F8A4, symSize: 0x20 }
  - { offset: 0x14FAE8, size: 0x8, addend: 0x0, symName: '__ZN4core3ptr102drop_in_place$LT$$LP$alloc..string..String$C$django_template_oxide..variable..FilterExpression$RP$$GT$17h5a10f9b60221f865E', symObjAddr: 0x4F8BC, symBinAddr: 0x4F8C4, symSize: 0x30 }
  - { offset: 0x14FC5F, size: 0x8, addend: 0x0, symName: '__ZN4core3ptr102drop_in_place$LT$pyo3..instance..Py$LT$django_template_oxide..py_bindings..NativeFilterWrapper$GT$$GT$17h02ffa8275ca970cfE', symObjAddr: 0x4F8EC, symBinAddr: 0x4F8F4, symSize: 0x5C }
  - { offset: 0x14FE0E, size: 0x8, addend: 0x0, symName: '__ZN4core3ptr103drop_in_place$LT$core..option..Option$LT$django_template_oxide..tags..loader_tags..BlockContext$GT$$GT$17ha80319f301fae795E', symObjAddr: 0x4F948, symBinAddr: 0x4F950, symSize: 0xF4 }
  - { offset: 0x150642, size: 0x8, addend: 0x0, symName: '__ZN4core3ptr104drop_in_place$LT$alloc..vec..in_place_drop..InPlaceDrop$LT$django_template_oxide..context..Value$GT$$GT$17hf1d5edb083701e23E', symObjAddr: 0x4FA3C, symBinAddr: 0x4FA44, symSize: 0x84 }
  - { offset: 0x150709, size: 0x8, addend: 0x0, symName: '__ZN4core3ptr106drop_in_place$LT$indexmap..Bucket$LT$alloc..string..String$C$django_template_oxide..context..Value$GT$$GT$17h03382c05f82ac8f8E', symObjAddr: 0x4FAC0, symBinAddr: 0x4FAC8, symSize: 0x30 }
  - { offset: 0x1508BE, size: 0x8, addend: 0x0, symName: '__ZN4core3ptr110drop_in_place$LT$std..collections..hash..map..HashMap$LT$alloc..string..String$C$alloc..string..String$GT$$GT$17h4c3f8c4246118fe8E', symObjAddr: 0x4FAF0, symBinAddr: 0x4FAF8, symSize: 0xFC }
  - { offset: 0x151287, size: 0x8, addend: 0x0, symName: '__ZN4core3ptr111drop_in_place$LT$alloc..vec..Vec$LT$$LP$alloc..string..String$C$django_template_oxide..lexer..Token$RP$$GT$$GT$17h217ec0cede28ac12E', symObjAddr: 0x4FBEC, symBinAddr: 0x4FBF4, symSize: 0x80 }
  - { offset: 0x151720, size: 0x8, addend: 0x0, symName: '__ZN4core3ptr111drop_in_place$LT$alloc..vec..Vec$LT$alloc..boxed..Box$LT$dyn$u20$django_template_oxide..nodes..Node$GT$$GT$$GT$17h0d621462a202a9c6E', symObjAddr: 0x4FC6C, symBinAddr: 0x4FC74, symSize: 0xE0 }
  - { offset: 0x151CF1, size: 0x8, addend: 0x0, symName: '__ZN4core3ptr111drop_in_place$LT$indexmap..inner..Core$LT$alloc..string..String$C$django_template_oxide..context..Value$GT$$GT$17hba5fbc6c53a85bb8E', symObjAddr: 0x4FD4C, symBinAddr: 0x4FD54, symSize: 0xDC }
  - { offset: 0x1522F5, size: 0x8, addend: 0x0, symName: '__ZN4core3ptr113drop_in_place$LT$alloc..vec..Vec$LT$$LP$alloc..string..String$C$django_template_oxide..context..Value$RP$$GT$$GT$17h84a35b8be4f25ecbE', symObjAddr: 0x4FE28, symBinAddr: 0x4FE30, symSize: 0xC4 }
  - { offset: 0x152769, size: 0x8, addend: 0x0, symName: '__ZN4core3ptr120drop_in_place$LT$core..result..Result$LT$pyo3..instance..Bound$LT$pyo3..types..any..PyAny$GT$$C$pyo3..err..PyErr$GT$$GT$17h0004114757e5dae4E', symObjAddr: 0x4FEEC, symBinAddr: 0x4FEF4, symSize: 0x2C }
  - { offset: 0x1527D6, size: 0x8, addend: 0x0, symName: '__ZN4core3ptr122drop_in_place$LT$hashbrown..raw..RawTable$LT$$LP$alloc..string..String$C$django_template_oxide..context..Value$RP$$GT$$GT$17h7b5258b9bbffe4daE', symObjAddr: 0x4FF18, symBinAddr: 0x4FF20, symSize: 0xF4 }
  - { offset: 0x152FAA, size: 0x8, addend: 0x0, symName: '__ZN4core3ptr125drop_in_place$LT$alloc..vec..Vec$LT$$LP$alloc..string..String$C$django_template_oxide..variable..FilterExpression$RP$$GT$$GT$17h59e6bf5e16db34d7E', symObjAddr: 0x5000C, symBinAddr: 0x50014, symSize: 0x78 }
  - { offset: 0x1532AC, size: 0x8, addend: 0x0, symName: '__ZN4core3ptr125drop_in_place$LT$hashbrown..raw..RawIntoIter$LT$$LP$alloc..string..String$C$django_template_oxide..context..Value$RP$$GT$$GT$17hf0fe78b00c6c21beE', symObjAddr: 0x50084, symBinAddr: 0x5008C, symSize: 0xE0 }
  - { offset: 0x153860, size: 0x8, addend: 0x0, symName: '__ZN4core3ptr129drop_in_place$LT$core..iter..adapters..peekable..Peekable$LT$alloc..vec..into_iter..IntoIter$LT$alloc..string..String$GT$$GT$$GT$17h15f593712ba75bebE', symObjAddr: 0x50164, symBinAddr: 0x5016C, symSize: 0xA8 }
  - { offset: 0x153DE0, size: 0x8, addend: 0x0, symName: '__ZN4core3ptr131drop_in_place$LT$pyo3..err..PyErr..new$LT$pyo3..exceptions..PyKeyError$C$alloc..string..String$GT$..$u7b$$u7b$closure$u7d$$u7d$$GT$17ha11b6c514a1f1cebE', symObjAddr: 0x5020C, symBinAddr: 0x50214, symSize: 0x14 }
  - { offset: 0x153E00, size: 0x8, addend: 0x0, symName: '__ZN4core3ptr131drop_in_place$LT$pyo3..err..PyErr..new$LT$pyo3..exceptions..PyKeyError$C$alloc..string..String$GT$..$u7b$$u7b$closure$u7d$$u7d$$GT$17ha11b6c514a1f1cebE', symObjAddr: 0x5020C, symBinAddr: 0x50214, symSize: 0x14 }
  - { offset: 0x153F59, size: 0x8, addend: 0x0, symName: '__ZN4core3ptr136drop_in_place$LT$core..result..Result$LT$django_template_oxide..utils..SafeString$C$django_template_oxide..errors..TemplateError$GT$$GT$17h24198ba805d66f6eE', symObjAddr: 0x50220, symBinAddr: 0x50228, symSize: 0x48 }
  - { offset: 0x1540FF, size: 0x8, addend: 0x0, symName: '__ZN4core3ptr138drop_in_place$LT$std..collections..hash..map..HashMap$LT$alloc..string..String$C$django_template_oxide..variable..FilterExpression$GT$$GT$17hb2f9a28f34437678E', symObjAddr: 0x50268, symBinAddr: 0x50270, symSize: 0xF4 }
  - { offset: 0x154971, size: 0x8, addend: 0x0, symName: '__ZN4core3ptr138drop_in_place$LT$std..collections..hash..map..HashMap$LT$alloc..string..String$C$pyo3..instance..Py$LT$pyo3..types..any..PyAny$GT$$GT$$GT$17hb629d19dd044700fE', symObjAddr: 0x5035C, symBinAddr: 0x50364, symSize: 0x128 }
  - { offset: 0x15524C, size: 0x8, addend: 0x0, symName: '__ZN4core3ptr139drop_in_place$LT$hashbrown..raw..RawTable$LT$$LP$alloc..string..String$C$django_template_oxide..tags..loader_tags..BlockNodeRef$RP$$GT$$GT$17he48cc6c19f551d9dE', symObjAddr: 0x50484, symBinAddr: 0x5048C, symSize: 0x118 }
  - { offset: 0x155CD6, size: 0x8, addend: 0x0, symName: '__ZN4core3ptr142drop_in_place$LT$hashbrown..raw..RawIntoIter$LT$$LP$alloc..string..String$C$django_template_oxide..tags..loader_tags..BlockNodeRef$RP$$GT$$GT$17h5d2c838619ba423dE', symObjAddr: 0x5059C, symBinAddr: 0x505A4, symSize: 0x104 }
  - { offset: 0x156521, size: 0x8, addend: 0x0, symName: '__ZN4core3ptr148drop_in_place$LT$core..option..Option$LT$core..result..Result$LT$pyo3..instance..Bound$LT$pyo3..types..any..PyAny$GT$$C$pyo3..err..PyErr$GT$$GT$$GT$17hd084adbcb7b9ef52E', symObjAddr: 0x506A0, symBinAddr: 0x506A8, symSize: 0x38 }
  - { offset: 0x1565D6, size: 0x8, addend: 0x0, symName: '__ZN4core3ptr157drop_in_place$LT$alloc..vec..in_place_drop..InPlaceDstDataSrcBufDrop$LT$django_template_oxide..context..Value$C$django_template_oxide..context..Value$GT$$GT$17hc39c145f5e67d800E', symObjAddr: 0x506D8, symBinAddr: 0x506E0, symSize: 0xA4 }
  - { offset: 0x156988, size: 0x8, addend: 0x0, symName: '__ZN4core3ptr175drop_in_place$LT$core..cell..RefCell$LT$std..collections..hash..map..HashMap$LT$alloc..string..String$C$alloc..rc..Rc$LT$django_template_oxide..nodes..NodeList$GT$$GT$$GT$$GT$17h4e453763427e7190E', symObjAddr: 0x5077C, symBinAddr: 0x50784, symSize: 0x104 }
  - { offset: 0x15731B, size: 0x8, addend: 0x0, symName: '__ZN4core3ptr181drop_in_place$LT$hashbrown..scopeguard..ScopeGuard$LT$$RF$mut$u20$hashbrown..raw..RawTableInner$C$hashbrown..raw..RawTableInner..rehash_in_place..$u7b$$u7b$closure$u7d$$u7d$$GT$$GT$17ha61954cb12f20213E', symObjAddr: 0x50880, symBinAddr: 0x50888, symSize: 0xDC }
  - { offset: 0x157535, size: 0x8, addend: 0x0, symName: '__ZN4core3ptr181drop_in_place$LT$hashbrown..scopeguard..ScopeGuard$LT$$RF$mut$u20$hashbrown..raw..RawTableInner$C$hashbrown..raw..RawTableInner..rehash_in_place..$u7b$$u7b$closure$u7d$$u7d$$GT$$GT$17hd101926b934ef548E', symObjAddr: 0x5095C, symBinAddr: 0x50964, symSize: 0x3C8 }
  - { offset: 0x157841, size: 0x8, addend: 0x0, symName: '__ZN4core3ptr194drop_in_place$LT$regex_automata..util..pool..inner..CacheLine$LT$std..sync..poison..mutex..Mutex$LT$alloc..vec..Vec$LT$alloc..boxed..Box$LT$regex_automata..meta..regex..Cache$GT$$GT$$GT$$GT$$GT$17hb51efe109d473737E', symObjAddr: 0x50D24, symBinAddr: 0x50D2C, symSize: 0x108 }
  - { offset: 0x157F8A, size: 0x8, addend: 0x0, symName: '__ZN4core3ptr207drop_in_place$LT$hashbrown..scopeguard..ScopeGuard$LT$hashbrown..raw..RawTableInner$C$hashbrown..raw..RawTableInner..prepare_resize$LT$hashbrown..alloc..inner..Global$GT$..$u7b$$u7b$closure$u7d$$u7d$$GT$$GT$17h988df99e1581f83eE', symObjAddr: 0x50E2C, symBinAddr: 0x50E34, symSize: 0x30 }
  - { offset: 0x157FAA, size: 0x8, addend: 0x0, symName: '__ZN4core3ptr207drop_in_place$LT$hashbrown..scopeguard..ScopeGuard$LT$hashbrown..raw..RawTableInner$C$hashbrown..raw..RawTableInner..prepare_resize$LT$hashbrown..alloc..inner..Global$GT$..$u7b$$u7b$closure$u7d$$u7d$$GT$$GT$17h988df99e1581f83eE', symObjAddr: 0x50E2C, symBinAddr: 0x50E34, symSize: 0x30 }
  - { offset: 0x158197, size: 0x8, addend: 0x0, symName: '__ZN4core3ptr217drop_in_place$LT$alloc..vec..Vec$LT$regex_automata..util..pool..inner..CacheLine$LT$std..sync..poison..mutex..Mutex$LT$alloc..vec..Vec$LT$alloc..boxed..Box$LT$regex_automata..meta..regex..Cache$GT$$GT$$GT$$GT$$GT$$GT$17hf5391ae510abb0fcE', symObjAddr: 0x50E5C, symBinAddr: 0x50E64, symSize: 0xAC }
  - { offset: 0x1584BD, size: 0x8, addend: 0x0, symName: '__ZN4core3ptr232drop_in_place$LT$alloc..vec..Vec$LT$std..collections..hash..map..HashMap$LT$alloc..string..String$C$django_template_oxide..context..Value$C$core..hash..BuildHasherDefault$LT$django_template_oxide..context..FastHasher$GT$$GT$$GT$$GT$17had698ff9e1dec9b1E', symObjAddr: 0x50F08, symBinAddr: 0x50F10, symSize: 0xAC }
  - { offset: 0x158880, size: 0x8, addend: 0x0, symName: __ZN4core3ptr25swap_nonoverlapping_bytes17hb21536ee13931a71E, symObjAddr: 0x50FB4, symBinAddr: 0x50FBC, symSize: 0x140 }
  - { offset: 0x158AF4, size: 0x8, addend: 0x0, symName: '__ZN4core3ptr304drop_in_place$LT$core..iter..adapters..map..Map$LT$alloc..vec..into_iter..IntoIter$LT$alloc..string..String$GT$$C$$LT$alloc..string..String$u20$as$u20$pyo3..conversion..IntoPyObject$GT$..owned_sequence_into_pyobject$LT$alloc..vec..Vec$LT$alloc..string..String$GT$$GT$..$u7b$$u7b$closure$u7d$$u7d$$GT$$GT$17h1e4f3f2c70cff0a5E', symObjAddr: 0x510F4, symBinAddr: 0x510FC, symSize: 0x88 }
  - { offset: 0x158EFD, size: 0x8, addend: 0x0, symName: '__ZN4core3ptr341drop_in_place$LT$hashbrown..scopeguard..ScopeGuard$LT$$LP$usize$C$$RF$mut$u20$hashbrown..raw..RawTable$LT$$LP$alloc..string..String$C$django_template_oxide..context..Value$RP$$GT$$RP$$C$hashbrown..raw..RawTable$LT$$LP$alloc..string..String$C$django_template_oxide..context..Value$RP$$GT$..clone_from_impl..$u7b$$u7b$closure$u7d$$u7d$$GT$$GT$17hbe638109e425717eE', symObjAddr: 0x5117C, symBinAddr: 0x51184, symSize: 0x64 }
  - { offset: 0x158F23, size: 0x8, addend: 0x0, symName: '__ZN4core3ptr341drop_in_place$LT$hashbrown..scopeguard..ScopeGuard$LT$$LP$usize$C$$RF$mut$u20$hashbrown..raw..RawTable$LT$$LP$alloc..string..String$C$django_template_oxide..context..Value$RP$$GT$$RP$$C$hashbrown..raw..RawTable$LT$$LP$alloc..string..String$C$django_template_oxide..context..Value$RP$$GT$..clone_from_impl..$u7b$$u7b$closure$u7d$$u7d$$GT$$GT$17hbe638109e425717eE', symObjAddr: 0x5117C, symBinAddr: 0x51184, symSize: 0x64 }
  - { offset: 0x158F38, size: 0x8, addend: 0x0, symName: '__ZN4core3ptr341drop_in_place$LT$hashbrown..scopeguard..ScopeGuard$LT$$LP$usize$C$$RF$mut$u20$hashbrown..raw..RawTable$LT$$LP$alloc..string..String$C$django_template_oxide..context..Value$RP$$GT$$RP$$C$hashbrown..raw..RawTable$LT$$LP$alloc..string..String$C$django_template_oxide..context..Value$RP$$GT$..clone_from_impl..$u7b$$u7b$closure$u7d$$u7d$$GT$$GT$17hbe638109e425717eE', symObjAddr: 0x5117C, symBinAddr: 0x51184, symSize: 0x64 }
  - { offset: 0x158F49, size: 0x8, addend: 0x0, symName: '__ZN4core3ptr341drop_in_place$LT$hashbrown..scopeguard..ScopeGuard$LT$$LP$usize$C$$RF$mut$u20$hashbrown..raw..RawTable$LT$$LP$alloc..string..String$C$django_template_oxide..context..Value$RP$$GT$$RP$$C$hashbrown..raw..RawTable$LT$$LP$alloc..string..String$C$django_template_oxide..context..Value$RP$$GT$..clone_from_impl..$u7b$$u7b$closure$u7d$$u7d$$GT$$GT$17hbe638109e425717eE', symObjAddr: 0x5117C, symBinAddr: 0x51184, symSize: 0x64 }
  - { offset: 0x15916B, size: 0x8, addend: 0x0, symName: '__ZN4core3ptr352drop_in_place$LT$alloc..boxed..Box$LT$dyn$u20$core..ops..function..Fn$LT$$LP$$RF$mut$u20$django_template_oxide..parser..Parser$C$$RF$django_template_oxide..lexer..Token$RP$$GT$$u2b$Output$u20$$u3d$$u20$core..result..Result$LT$alloc..boxed..Box$LT$dyn$u20$django_template_oxide..nodes..Node$GT$$C$django_template_oxide..errors..TemplateError$GT$$GT$$GT$17h7fbdedb3407f35cdE', symObjAddr: 0x511E0, symBinAddr: 0x511E8, symSize: 0x70 }
  - { offset: 0x159473, size: 0x8, addend: 0x0, symName: '__ZN4core3ptr361drop_in_place$LT$regex_automata..util..pool..Pool$LT$regex_automata..meta..regex..Cache$C$alloc..boxed..Box$LT$dyn$u20$core..ops..function..Fn$LT$$LP$$RP$$GT$$u2b$Output$u20$$u3d$$u20$regex_automata..meta..regex..Cache$u2b$core..panic..unwind_safe..UnwindSafe$u2b$core..marker..Send$u2b$core..panic..unwind_safe..RefUnwindSafe$u2b$core..marker..Sync$GT$$GT$$GT$17h6b3484afa5b3edc4E', symObjAddr: 0x51250, symBinAddr: 0x51258, symSize: 0x12C }
  - { offset: 0x159C5E, size: 0x8, addend: 0x0, symName: '__ZN4core3ptr366drop_in_place$LT$regex_automata..util..pool..PoolGuard$LT$regex_automata..meta..regex..Cache$C$alloc..boxed..Box$LT$dyn$u20$core..ops..function..Fn$LT$$LP$$RP$$GT$$u2b$Output$u20$$u3d$$u20$regex_automata..meta..regex..Cache$u2b$core..panic..unwind_safe..UnwindSafe$u2b$core..marker..Send$u2b$core..panic..unwind_safe..RefUnwindSafe$u2b$core..marker..Sync$GT$$GT$$GT$17h31a201059bb35483E', symObjAddr: 0x5137C, symBinAddr: 0x51384, symSize: 0xC0 }
  - { offset: 0x15A084, size: 0x8, addend: 0x0, symName: '__ZN4core3ptr37drop_in_place$LT$pyo3..err..PyErr$GT$17h87533678377c52c6E', symObjAddr: 0x5143C, symBinAddr: 0x51444, symSize: 0x118 }
  - { offset: 0x15A669, size: 0x8, addend: 0x0, symName: '__ZN4core3ptr40drop_in_place$LT$regex..error..Error$GT$17h8f920190113dd6d5E', symObjAddr: 0x51554, symBinAddr: 0x5155C, symSize: 0x18 }
  - { offset: 0x15A7D7, size: 0x8, addend: 0x0, symName: '__ZN4core3ptr42drop_in_place$LT$alloc..string..String$GT$17h5ecfa0e470cbb54aE', symObjAddr: 0x5156C, symBinAddr: 0x51574, symSize: 0x14 }
  - { offset: 0x15A9AD, size: 0x8, addend: 0x0, symName: '__ZN4core3ptr432drop_in_place$LT$core..iter..adapters..map..Map$LT$alloc..vec..into_iter..IntoIter$LT$pyo3..instance..Py$LT$pyo3..types..any..PyAny$GT$$GT$$C$pyo3..types..list..PyList..new$LT$pyo3..instance..Py$LT$pyo3..types..any..PyAny$GT$$C$alloc..vec..into_iter..IntoIter$LT$pyo3..instance..Py$LT$pyo3..types..any..PyAny$GT$$GT$$C$alloc..vec..Vec$LT$pyo3..instance..Py$LT$pyo3..types..any..PyAny$GT$$GT$$GT$..$u7b$$u7b$closure$u7d$$u7d$$GT$$GT$17h932a836b30350f8eE', symObjAddr: 0x51580, symBinAddr: 0x51588, symSize: 0xF0 }
  - { offset: 0x15B024, size: 0x8, addend: 0x0, symName: '__ZN4core3ptr55drop_in_place$LT$regex_automata..hybrid..dfa..Cache$GT$17h799536b8932b2c22E', symObjAddr: 0x51670, symBinAddr: 0x51678, symSize: 0x140 }
  - { offset: 0x15C10F, size: 0x8, addend: 0x0, symName: '__ZN4core3ptr55drop_in_place$LT$regex_automata..meta..regex..Cache$GT$17h0c0373487b3d89e8E', symObjAddr: 0x517B0, symBinAddr: 0x517B8, symSize: 0x154 }
  - { offset: 0x15D1ED, size: 0x8, addend: 0x0, symName: '__ZN4core3ptr56drop_in_place$LT$django_template_oxide..tags..IfNode$GT$17hef8f00aab8ee905aE', symObjAddr: 0x51904, symBinAddr: 0x5190C, symSize: 0xD4 }
  - { offset: 0x15D982, size: 0x8, addend: 0x0, symName: '__ZN4core3ptr57drop_in_place$LT$django_template_oxide..tags..ForNode$GT$17h316ed8ab2ffbcc42E', symObjAddr: 0x519D8, symBinAddr: 0x519E0, symSize: 0x164 }
  - { offset: 0x15E44F, size: 0x8, addend: 0x0, symName: '__ZN4core3ptr57drop_in_place$LT$django_template_oxide..tags..NowNode$GT$17h29e509fb71d2bd31E', symObjAddr: 0x51B3C, symBinAddr: 0x51B44, symSize: 0xE0 }
  - { offset: 0x15EBBE, size: 0x8, addend: 0x0, symName: '__ZN4core3ptr57drop_in_place$LT$django_template_oxide..tags..UrlNode$GT$17he28963b89ac16219E', symObjAddr: 0x51C1C, symBinAddr: 0x51C24, symSize: 0x14C }
  - { offset: 0x15F7E4, size: 0x8, addend: 0x0, symName: '__ZN4core3ptr58drop_in_place$LT$django_template_oxide..context..Value$GT$17h0919adf779e5396fE', symObjAddr: 0x51D68, symBinAddr: 0x51D70, symSize: 0x1F4 }
  - { offset: 0x16003C, size: 0x8, addend: 0x0, symName: '__ZN4core3ptr58drop_in_place$LT$django_template_oxide..parser..Parser$GT$17h6b00c95f499cad3cE', symObjAddr: 0x51F5C, symBinAddr: 0x51F64, symSize: 0x258 }
  - { offset: 0x161654, size: 0x8, addend: 0x0, symName: '__ZN4core3ptr58drop_in_place$LT$django_template_oxide..tags..IfBranch$GT$17hb7375f1b0e6f58b9E', symObjAddr: 0x521B4, symBinAddr: 0x521BC, symSize: 0x58 }
  - { offset: 0x1616DB, size: 0x8, addend: 0x0, symName: '__ZN4core3ptr58drop_in_place$LT$django_template_oxide..tags..LoadNode$GT$17ha914f18bdf5f9c8aE', symObjAddr: 0x5220C, symBinAddr: 0x52214, symSize: 0x9C }
  - { offset: 0x161CE3, size: 0x8, addend: 0x0, symName: '__ZN4core3ptr58drop_in_place$LT$django_template_oxide..tags..WithNode$GT$17h40461250e0ff4691E', symObjAddr: 0x522A8, symBinAddr: 0x522B0, symSize: 0x128 }
  - { offset: 0x162789, size: 0x8, addend: 0x0, symName: '__ZN4core3ptr59drop_in_place$LT$django_template_oxide..nodes..NodeList$GT$17ha8ee37170735ac39E', symObjAddr: 0x523D0, symBinAddr: 0x523D8, symSize: 0x4 }
  - { offset: 0x1627C3, size: 0x8, addend: 0x0, symName: '__ZN4core3ptr59drop_in_place$LT$django_template_oxide..nodes..TextNode$GT$17h74417b3cef4701c6E', symObjAddr: 0x523D4, symBinAddr: 0x523DC, symSize: 0xE4 }
  - { offset: 0x162EB4, size: 0x8, addend: 0x0, symName: '__ZN4core3ptr59drop_in_place$LT$django_template_oxide..smartif..IfExpr$GT$17h1dc4437c28c19faeE', symObjAddr: 0x524B8, symBinAddr: 0x524C0, symSize: 0xBC }
  - { offset: 0x1632A8, size: 0x8, addend: 0x0, symName: '__ZN4core3ptr59drop_in_place$LT$django_template_oxide..tags..CacheNode$GT$17hc490daa85d6ffa61E', symObjAddr: 0x52574, symBinAddr: 0x5257C, symSize: 0x134 }
  - { offset: 0x163BF1, size: 0x8, addend: 0x0, symName: '__ZN4core3ptr59drop_in_place$LT$django_template_oxide..tags..CycleNode$GT$17he4d841bf748dc523E', symObjAddr: 0x526A8, symBinAddr: 0x526B0, symSize: 0x108 }
  - { offset: 0x1646A9, size: 0x8, addend: 0x0, symName: '__ZN4core3ptr60drop_in_place$LT$django_template_oxide..context..Context$GT$17hc550d31f9f1203eaE', symObjAddr: 0x527B0, symBinAddr: 0x527B8, symSize: 0x184 }
  - { offset: 0x165255, size: 0x8, addend: 0x0, symName: '__ZN4core3ptr60drop_in_place$LT$django_template_oxide..tags..FilterNode$GT$17h605e145411f91928E', symObjAddr: 0x52934, symBinAddr: 0x5293C, symSize: 0xDC }
  - { offset: 0x1659FF, size: 0x8, addend: 0x0, symName: '__ZN4core3ptr61drop_in_place$LT$django_template_oxide..smartif..IfParser$GT$17h397d0398846db51aE', symObjAddr: 0x52A10, symBinAddr: 0x52A18, symSize: 0x74 }
  - { offset: 0x165D4F, size: 0x8, addend: 0x0, symName: '__ZN4core3ptr61drop_in_place$LT$django_template_oxide..tags..FirstOfNode$GT$17h0adab0a5eba0718eE', symObjAddr: 0x52A84, symBinAddr: 0x52A8C, symSize: 0x114 }
  - { offset: 0x166661, size: 0x8, addend: 0x0, symName: '__ZN4core3ptr61drop_in_place$LT$django_template_oxide..tags..PartialNode$GT$17h13d53c9e3b45eb5dE', symObjAddr: 0x52B98, symBinAddr: 0x52BA0, symSize: 0xAC }
  - { offset: 0x166DC5, size: 0x8, addend: 0x0, symName: '__ZN4core3ptr62drop_in_place$LT$django_template_oxide..tags..VerbatimNode$GT$17ha01ebc5e914127efE', symObjAddr: 0x52C44, symBinAddr: 0x52C4C, symSize: 0xD4 }
  - { offset: 0x16756F, size: 0x8, addend: 0x0, symName: '__ZN4core3ptr62drop_in_place$LT$django_template_oxide..template..Template$GT$17h8e92f9b52acda1e4E', symObjAddr: 0x52D18, symBinAddr: 0x52D20, symSize: 0x88 }
  - { offset: 0x167B13, size: 0x8, addend: 0x0, symName: '__ZN4core3ptr62drop_in_place$LT$django_template_oxide..variable..Variable$GT$17hb18fa146261733c7E', symObjAddr: 0x52DA0, symBinAddr: 0x52DA8, symSize: 0xB4 }
  - { offset: 0x1680F7, size: 0x8, addend: 0x0, symName: '__ZN4core3ptr63drop_in_place$LT$django_template_oxide..nodes..VariableNode$GT$17h9eda8c238ffde289E', symObjAddr: 0x52E54, symBinAddr: 0x52E5C, symSize: 0x120 }
  - { offset: 0x168B04, size: 0x8, addend: 0x0, symName: '__ZN4core3ptr63drop_in_place$LT$django_template_oxide..tags..IfChangedNode$GT$17h56ed3eca9e0927dcE', symObjAddr: 0x52F74, symBinAddr: 0x52F7C, symSize: 0x16C }
  - { offset: 0x169790, size: 0x8, addend: 0x0, symName: '__ZN4core3ptr63drop_in_place$LT$django_template_oxide..variable..FilterArg$GT$17h025e9b1e60e082fcE', symObjAddr: 0x530E0, symBinAddr: 0x530E8, symSize: 0xDC }
  - { offset: 0x169ED1, size: 0x8, addend: 0x0, symName: '__ZN4core3ptr64drop_in_place$LT$django_template_oxide..tags..AutoEscapeNode$GT$17h8975de614d598886E', symObjAddr: 0x531BC, symBinAddr: 0x531C4, symSize: 0xD4 }
  - { offset: 0x16A67B, size: 0x8, addend: 0x0, symName: '__ZN4core3ptr64drop_in_place$LT$django_template_oxide..tags..CompiledIfExpr$GT$17h6851bdada60e92f8E', symObjAddr: 0x53290, symBinAddr: 0x53298, symSize: 0x38 }
  - { offset: 0x16A698, size: 0x8, addend: 0x0, symName: '__ZN4core3ptr64drop_in_place$LT$django_template_oxide..tags..PartialDefNode$GT$17h536d9c750bac815fE', symObjAddr: 0x532C8, symBinAddr: 0x532D0, symSize: 0xE4 }
  - { offset: 0x16AF9E, size: 0x8, addend: 0x0, symName: '__ZN4core3ptr64drop_in_place$LT$django_template_oxide..tags..WidthRatioNode$GT$17h3e6607d76d09a606E', symObjAddr: 0x533AC, symBinAddr: 0x533B4, symSize: 0xF0 }
  - { offset: 0x16B70D, size: 0x8, addend: 0x0, symName: '__ZN4core3ptr65drop_in_place$LT$alloc..vec..Vec$LT$alloc..string..String$GT$$GT$17h08c9c04c135e99bdE', symObjAddr: 0x5349C, symBinAddr: 0x534A4, symSize: 0x70 }
  - { offset: 0x16BA01, size: 0x8, addend: 0x0, symName: '__ZN4core3ptr65drop_in_place$LT$django_template_oxide..errors..TemplateError$GT$17ha52b23e4b3f8698aE', symObjAddr: 0x5350C, symBinAddr: 0x53514, symSize: 0x170 }
  - { offset: 0x16C5BC, size: 0x8, addend: 0x0, symName: '__ZN4core3ptr65drop_in_place$LT$django_template_oxide..py_bindings..PyEngine$GT$17h2f6c189ef260f1cbE', symObjAddr: 0x5367C, symBinAddr: 0x53684, symSize: 0x138 }
  - { offset: 0x16CC42, size: 0x8, addend: 0x0, symName: '__ZN4core3ptr66drop_in_place$LT$django_template_oxide..context..RenderContext$GT$17h017a6e997a76be02E', symObjAddr: 0x537B4, symBinAddr: 0x537BC, symSize: 0x128 }
  - { offset: 0x16D235, size: 0x8, addend: 0x0, symName: '__ZN4core3ptr66drop_in_place$LT$django_template_oxide..variable..ParsedFilter$GT$17h0d86e2657df81a25E', symObjAddr: 0x538DC, symBinAddr: 0x538E4, symSize: 0x30 }
  - { offset: 0x16D3AC, size: 0x8, addend: 0x0, symName: '__ZN4core3ptr67drop_in_place$LT$django_template_oxide..py_bindings..PyTemplate$GT$17h3fe86806f1b2a879E', symObjAddr: 0x5390C, symBinAddr: 0x53914, symSize: 0x140 }
  - { offset: 0x16DB89, size: 0x8, addend: 0x0, symName: '__ZN4core3ptr67drop_in_place$LT$django_template_oxide..variable..VariableValue$GT$17h605aefab8d741256E', symObjAddr: 0x53A4C, symBinAddr: 0x53A54, symSize: 0x90 }
  - { offset: 0x16DE4E, size: 0x8, addend: 0x0, symName: '__ZN4core3ptr70drop_in_place$LT$django_template_oxide..variable..FilterExpression$GT$17h648dc4636a928d74E', symObjAddr: 0x53ADC, symBinAddr: 0x53AE4, symSize: 0x12C }
  - { offset: 0x16E7E1, size: 0x8, addend: 0x0, symName: '__ZN4core3ptr72drop_in_place$LT$django_template_oxide..tags..loader_tags..BlockNode$GT$17h46c95cd3d2401847E', symObjAddr: 0x53C08, symBinAddr: 0x53C10, symSize: 0x134 }
  - { offset: 0x16F455, size: 0x8, addend: 0x0, symName: '__ZN4core3ptr73drop_in_place$LT$django_template_oxide..variable..FilterExpressionVar$GT$17hbd4f8dec5682fdb7E', symObjAddr: 0x53D3C, symBinAddr: 0x53D44, symSize: 0xD4 }
  - { offset: 0x16F919, size: 0x8, addend: 0x0, symName: '__ZN4core3ptr74drop_in_place$LT$django_template_oxide..tags..i18n_tags..TranslateNode$GT$17h5e06b321ca0cffa1E', symObjAddr: 0x53E10, symBinAddr: 0x53E18, symSize: 0x100 }
  - { offset: 0x17009F, size: 0x8, addend: 0x0, symName: '__ZN4core3ptr74drop_in_place$LT$django_template_oxide..tags..loader_tags..ExtendsNode$GT$17hada9a61a9471a382E', symObjAddr: 0x53F10, symBinAddr: 0x53F18, symSize: 0x100 }
  - { offset: 0x17089F, size: 0x8, addend: 0x0, symName: '__ZN4core3ptr74drop_in_place$LT$django_template_oxide..tags..loader_tags..IncludeNode$GT$17h65959a7298370128E', symObjAddr: 0x54010, symBinAddr: 0x54018, symSize: 0xF8 }
  - { offset: 0x1711A4, size: 0x8, addend: 0x0, symName: '__ZN4core3ptr75drop_in_place$LT$django_template_oxide..tags..loader_tags..BlockNodeRef$GT$17h24f7e33c1e5dbe8dE', symObjAddr: 0x54108, symBinAddr: 0x54110, symSize: 0x4C }
  - { offset: 0x171431, size: 0x8, addend: 0x0, symName: '__ZN4core3ptr79drop_in_place$LT$$u5b$django_template_oxide..context..Value$u3b$$u20$4$u5d$$GT$17h777e527619278d04E', symObjAddr: 0x54154, symBinAddr: 0x5415C, symSize: 0x68 }
  - { offset: 0x17144E, size: 0x8, addend: 0x0, symName: '__ZN4core3ptr79drop_in_place$LT$alloc..vec..Vec$LT$django_template_oxide..lexer..Token$GT$$GT$17h1c63c6de4254528bE', symObjAddr: 0x541BC, symBinAddr: 0x541C4, symSize: 0x70 }
  - { offset: 0x171750, size: 0x8, addend: 0x0, symName: '__ZN4core3ptr79drop_in_place$LT$django_template_oxide..tags..i18n_tags..BlockTranslateNode$GT$17h53efdf7f3912bcf3E', symObjAddr: 0x5422C, symBinAddr: 0x54234, symSize: 0x27C }
  - { offset: 0x17282F, size: 0x8, addend: 0x0, symName: '__ZN4core3ptr80drop_in_place$LT$alloc..boxed..Box$LT$regex_automata..meta..regex..Cache$GT$$GT$17he5ebbb4b34139854E', symObjAddr: 0x544A8, symBinAddr: 0x544B0, symSize: 0x38 }
  - { offset: 0x172A68, size: 0x8, addend: 0x0, symName: '__ZN4core3ptr80drop_in_place$LT$django_template_oxide..tags..i18n_tags..GetLanguageInfoNode$GT$17hb5180b5b3bff3fdaE', symObjAddr: 0x544E0, symBinAddr: 0x544E8, symSize: 0xB4 }
  - { offset: 0x1731CD, size: 0x8, addend: 0x0, symName: '__ZN4core3ptr81drop_in_place$LT$alloc..vec..Vec$LT$django_template_oxide..context..Value$GT$$GT$17hd98357428fbc2261E', symObjAddr: 0x54594, symBinAddr: 0x5459C, symSize: 0xAC }
  - { offset: 0x173512, size: 0x8, addend: 0x0, symName: '__ZN4core3ptr81drop_in_place$LT$alloc..vec..Vec$LT$django_template_oxide..tags..IfBranch$GT$$GT$17h40ceb48606ed9426E', symObjAddr: 0x54640, symBinAddr: 0x54648, symSize: 0xFC }
  - { offset: 0x173894, size: 0x8, addend: 0x0, symName: '__ZN4core3ptr81drop_in_place$LT$alloc..vec..into_iter..IntoIter$LT$alloc..string..String$GT$$GT$17hf1be8d34b1f6a032E', symObjAddr: 0x5473C, symBinAddr: 0x54744, symSize: 0x88 }
  - { offset: 0x173D38, size: 0x8, addend: 0x0, symName: '__ZN4core3ptr81drop_in_place$LT$core..result..Result$LT$$LP$$RP$$C$std..io..error..Error$GT$$GT$17h2c699e407a226f5bE', symObjAddr: 0x547C4, symBinAddr: 0x547CC, symSize: 0x94 }
  - { offset: 0x17425A, size: 0x8, addend: 0x0, symName: '__ZN4core3ptr84drop_in_place$LT$alloc..boxed..Box$LT$django_template_oxide..smartif..IfExpr$GT$$GT$17h69138d5044c11804E', symObjAddr: 0x54858, symBinAddr: 0x54860, symSize: 0x3C }
  - { offset: 0x174497, size: 0x8, addend: 0x0, symName: '__ZN4core3ptr84drop_in_place$LT$core..option..Option$LT$django_template_oxide..lexer..Token$GT$$GT$17hc6cbe385ec4dfa37E', symObjAddr: 0x54894, symBinAddr: 0x5489C, symSize: 0x20 }
  - { offset: 0x174624, size: 0x8, addend: 0x0, symName: '__ZN4core3ptr85drop_in_place$LT$core..option..Option$LT$django_template_oxide..nodes..Origin$GT$$GT$17h61252c43a1efd5a0E', symObjAddr: 0x548B4, symBinAddr: 0x548BC, symSize: 0x74 }
  - { offset: 0x174AD2, size: 0x8, addend: 0x0, symName: '__ZN4core3ptr86drop_in_place$LT$alloc..vec..Vec$LT$django_template_oxide..variable..FilterArg$GT$$GT$17hffc817ce34900b55E', symObjAddr: 0x54928, symBinAddr: 0x54930, symSize: 0x140 }
  - { offset: 0x1753C9, size: 0x8, addend: 0x0, symName: '__ZN4core3ptr87drop_in_place$LT$core..option..Option$LT$django_template_oxide..nodes..NodeList$GT$$GT$17hf3206bb0a37b7e5aE', symObjAddr: 0x54A68, symBinAddr: 0x54A70, symSize: 0x18 }
  - { offset: 0x175401, size: 0x8, addend: 0x0, symName: '__ZN4core3ptr88drop_in_place$LT$$LP$alloc..string..String$C$django_template_oxide..lexer..Token$RP$$GT$17h994fbb1e519f7d5eE', symObjAddr: 0x54A80, symBinAddr: 0x54A88, symSize: 0x44 }
  - { offset: 0x1756D1, size: 0x8, addend: 0x0, symName: '__ZN4core3ptr89drop_in_place$LT$alloc..vec..Vec$LT$django_template_oxide..variable..ParsedFilter$GT$$GT$17he475b62e29442958E', symObjAddr: 0x54AC4, symBinAddr: 0x54ACC, symSize: 0x78 }
  - { offset: 0x1759D3, size: 0x8, addend: 0x0, symName: '__ZN4core3ptr89drop_in_place$LT$core..result..Result$LT$alloc..string..String$C$pyo3..err..PyErr$GT$$GT$17h175a1a8aba055fb1E', symObjAddr: 0x54B3C, symBinAddr: 0x54B44, symSize: 0x28 }
  - { offset: 0x175B4C, size: 0x8, addend: 0x0, symName: '__ZN4core3ptr90drop_in_place$LT$$LP$alloc..string..String$C$django_template_oxide..context..Value$RP$$GT$17hd9dc27c53deea95dE', symObjAddr: 0x54B64, symBinAddr: 0x54B6C, symSize: 0x30 }
  - { offset: 0x175CC3, size: 0x8, addend: 0x0, symName: '__ZN4core3ptr90drop_in_place$LT$core..option..Option$LT$django_template_oxide..variable..Variable$GT$$GT$17hf184ae7eef6320cdE', symObjAddr: 0x54B94, symBinAddr: 0x54B9C, symSize: 0xBC }
  - { offset: 0x176280, size: 0x8, addend: 0x0, symName: '__ZN4core3ptr92drop_in_place$LT$core..option..Option$LT$django_template_oxide..context..TemplateRef$GT$$GT$17h44eab1595f155be8E', symObjAddr: 0x54C50, symBinAddr: 0x54C58, symSize: 0x94 }
  - { offset: 0x17650E, size: 0x8, addend: 0x0, symName: '__ZN4core3ptr93drop_in_place$LT$alloc..vec..Vec$LT$django_template_oxide..variable..FilterExpression$GT$$GT$17hfa437cf0fabc1aafE', symObjAddr: 0x54CE4, symBinAddr: 0x54CEC, symSize: 0x60 }
  - { offset: 0x1766B7, size: 0x8, addend: 0x0, symName: '__ZN4core3ptr93drop_in_place$LT$alloc..vec..Vec$LT$pyo3..instance..Py$LT$pyo3..types..any..PyAny$GT$$GT$$GT$17h9916cc3ebd2b4dfdE', symObjAddr: 0x54D44, symBinAddr: 0x54D4C, symSize: 0xE8 }
  - { offset: 0x176A80, size: 0x8, addend: 0x0, symName: '__ZN4core3ptr93drop_in_place$LT$core..option..Option$LT$alloc..vec..Vec$LT$alloc..string..String$GT$$GT$$GT$17h0011c05c7be267f0E', symObjAddr: 0x54E2C, symBinAddr: 0x54E34, symSize: 0x78 }
  - { offset: 0x176D93, size: 0x8, addend: 0x0, symName: '__ZN4core3ptr93drop_in_place$LT$pyo3..pycell..PyRef$LT$django_template_oxide..py_bindings..PyContext$GT$$GT$17h806a6b9898d5380cE', symObjAddr: 0x54EA4, symBinAddr: 0x54EAC, symSize: 0x28 }
  - { offset: 0x176DAF, size: 0x8, addend: 0x0, symName: '__ZN4core3ptr93drop_in_place$LT$pyo3..pycell..PyRef$LT$django_template_oxide..py_bindings..PyContext$GT$$GT$17h806a6b9898d5380cE', symObjAddr: 0x54EA4, symBinAddr: 0x54EAC, symSize: 0x28 }
  - { offset: 0x176DC4, size: 0x8, addend: 0x0, symName: '__ZN4core3ptr93drop_in_place$LT$pyo3..pycell..PyRef$LT$django_template_oxide..py_bindings..PyContext$GT$$GT$17h806a6b9898d5380cE', symObjAddr: 0x54EA4, symBinAddr: 0x54EAC, symSize: 0x28 }
  - { offset: 0x176DE0, size: 0x8, addend: 0x0, symName: '__ZN4core3ptr93drop_in_place$LT$pyo3..pycell..PyRef$LT$django_template_oxide..py_bindings..PyContext$GT$$GT$17h806a6b9898d5380cE', symObjAddr: 0x54EA4, symBinAddr: 0x54EAC, symSize: 0x28 }
  - { offset: 0x176ED6, size: 0x8, addend: 0x0, symName: '__ZN4core3ptr94drop_in_place$LT$$u5b$pyo3..instance..Bound$LT$pyo3..types..any..PyAny$GT$$u3b$$u20$2$u5d$$GT$17h91bb869655487447E', symObjAddr: 0x54ECC, symBinAddr: 0x54ED4, symSize: 0x5C }
  - { offset: 0x176EF2, size: 0x8, addend: 0x0, symName: '__ZN4core3ptr94drop_in_place$LT$$u5b$pyo3..instance..Bound$LT$pyo3..types..any..PyAny$GT$$u3b$$u20$2$u5d$$GT$17h91bb869655487447E', symObjAddr: 0x54ECC, symBinAddr: 0x54ED4, symSize: 0x5C }
  - { offset: 0x176F07, size: 0x8, addend: 0x0, symName: '__ZN4core3ptr94drop_in_place$LT$$u5b$pyo3..instance..Bound$LT$pyo3..types..any..PyAny$GT$$u3b$$u20$2$u5d$$GT$17h91bb869655487447E', symObjAddr: 0x54ECC, symBinAddr: 0x54ED4, symSize: 0x5C }
  - { offset: 0x176F1C, size: 0x8, addend: 0x0, symName: '__ZN4core3ptr94drop_in_place$LT$$u5b$pyo3..instance..Bound$LT$pyo3..types..any..PyAny$GT$$u3b$$u20$2$u5d$$GT$17h91bb869655487447E', symObjAddr: 0x54ECC, symBinAddr: 0x54ED4, symSize: 0x5C }
  - { offset: 0x176F51, size: 0x8, addend: 0x0, symName: '__ZN4core3ptr94drop_in_place$LT$$u5b$pyo3..instance..Bound$LT$pyo3..types..any..PyAny$GT$$u3b$$u20$3$u5d$$GT$17h0d1a2a9023329be2E', symObjAddr: 0x54F28, symBinAddr: 0x54F30, symSize: 0x88 }
  - { offset: 0x176FB8, size: 0x8, addend: 0x0, symName: '__ZN4core3ptr94drop_in_place$LT$$u5b$pyo3..instance..Bound$LT$pyo3..types..any..PyAny$GT$$u3b$$u20$4$u5d$$GT$17h3777cd071d61c328E', symObjAddr: 0x54FB0, symBinAddr: 0x54FB8, symSize: 0xB0 }
  - { offset: 0x177032, size: 0x8, addend: 0x0, symName: '__ZN4core3ptr96drop_in_place$LT$pyo3..pycell..PyRefMut$LT$django_template_oxide..py_bindings..PyContext$GT$$GT$17hca77c0bc2aca76c0E', symObjAddr: 0x55060, symBinAddr: 0x55068, symSize: 0x20 }
  - { offset: 0x17704E, size: 0x8, addend: 0x0, symName: '__ZN4core3ptr96drop_in_place$LT$pyo3..pycell..PyRefMut$LT$django_template_oxide..py_bindings..PyContext$GT$$GT$17hca77c0bc2aca76c0E', symObjAddr: 0x55060, symBinAddr: 0x55068, symSize: 0x20 }
  - { offset: 0x177063, size: 0x8, addend: 0x0, symName: '__ZN4core3ptr96drop_in_place$LT$pyo3..pycell..PyRefMut$LT$django_template_oxide..py_bindings..PyContext$GT$$GT$17hca77c0bc2aca76c0E', symObjAddr: 0x55060, symBinAddr: 0x55068, symSize: 0x20 }
  - { offset: 0x177082, size: 0x8, addend: 0x0, symName: '__ZN4core3ptr96drop_in_place$LT$pyo3..pycell..PyRefMut$LT$django_template_oxide..py_bindings..PyContext$GT$$GT$17hca77c0bc2aca76c0E', symObjAddr: 0x55060, symBinAddr: 0x55068, symSize: 0x20 }
  - { offset: 0x1770AC, size: 0x8, addend: 0x0, symName: '__ZN4core3ptr96drop_in_place$LT$pyo3..pycell..PyRefMut$LT$django_template_oxide..py_bindings..PyContext$GT$$GT$17hca77c0bc2aca76c0E', symObjAddr: 0x55060, symBinAddr: 0x55068, symSize: 0x20 }
  - { offset: 0x177128, size: 0x8, addend: 0x0, symName: '__ZN4core3ptr97drop_in_place$LT$alloc..boxed..Box$LT$django_template_oxide..tags..loader_tags..BlockNode$GT$$GT$17hf8497fab02508836E', symObjAddr: 0x55080, symBinAddr: 0x55088, symSize: 0x3C }
  - { offset: 0x177365, size: 0x8, addend: 0x0, symName: '__ZN4core3ptr97drop_in_place$LT$alloc..vec..Vec$LT$$LP$alloc..string..String$C$alloc..string..String$RP$$GT$$GT$17h36c0937338761816E', symObjAddr: 0x550BC, symBinAddr: 0x550C4, symSize: 0x80 }
  - { offset: 0x1777BA, size: 0x8, addend: 0x0, symName: '__ZN4core3ptr97drop_in_place$LT$alloc..vec..into_iter..IntoIter$LT$django_template_oxide..context..Value$GT$$GT$17h7c7ed9ff650f1be3E', symObjAddr: 0x5513C, symBinAddr: 0x55144, symSize: 0xC8 }
  - { offset: 0x177BE0, size: 0x8, addend: 0x0, symName: '__ZN4core3ptr98drop_in_place$LT$alloc..vec..Vec$LT$django_template_oxide..tags..loader_tags..BlockNodeRef$GT$$GT$17h593a95f032de1f17E', symObjAddr: 0x55204, symBinAddr: 0x5520C, symSize: 0xD4 }
  - { offset: 0x178137, size: 0x8, addend: 0x0, symName: '__ZN4core3ptr98drop_in_place$LT$core..option..Option$LT$django_template_oxide..variable..FilterExpression$GT$$GT$17h9202bd4920a45b25E', symObjAddr: 0x552D8, symBinAddr: 0x552E0, symSize: 0x14 }
  - { offset: 0x190413, size: 0x8, addend: 0x0, symName: __ZN4core3fmt5Write9write_fmt17h6a4b72550fde79d8E, symObjAddr: 0x4EF0C, symBinAddr: 0x4F1F0, symSize: 0x14 }
  - { offset: 0x1904B1, size: 0x8, addend: 0x0, symName: '__ZN41_$LT$bool$u20$as$u20$core..fmt..Debug$GT$3fmt17h1e5c234bfbf615c8E', symObjAddr: 0x4C048, symBinAddr: 0x4C32C, symSize: 0x34 }
  - { offset: 0x190547, size: 0x8, addend: 0x0, symName: '__ZN42_$LT$$RF$T$u20$as$u20$core..fmt..Debug$GT$3fmt17h09cf43917d74b4d6E', symObjAddr: 0x4C07C, symBinAddr: 0x4C360, symSize: 0x10 }
  - { offset: 0x190588, size: 0x8, addend: 0x0, symName: '__ZN42_$LT$$RF$T$u20$as$u20$core..fmt..Debug$GT$3fmt17h0ced28dd12e8d9f3E', symObjAddr: 0x4C08C, symBinAddr: 0x4C370, symSize: 0x84 }
  - { offset: 0x19062B, size: 0x8, addend: 0x0, symName: '__ZN42_$LT$$RF$T$u20$as$u20$core..fmt..Debug$GT$3fmt17h148ffd475f5a9c78E', symObjAddr: 0x4C110, symBinAddr: 0x4C3F4, symSize: 0x208 }
  - { offset: 0x1908B9, size: 0x8, addend: 0x0, symName: '__ZN42_$LT$$RF$T$u20$as$u20$core..fmt..Debug$GT$3fmt17h186be4a64ceda585E', symObjAddr: 0x4C318, symBinAddr: 0x4C5FC, symSize: 0x210 }
  - { offset: 0x190D51, size: 0x8, addend: 0x0, symName: '__ZN42_$LT$$RF$T$u20$as$u20$core..fmt..Debug$GT$3fmt17h2a049dea5682b41bE', symObjAddr: 0x4C528, symBinAddr: 0x4C80C, symSize: 0x1F0 }
  - { offset: 0x1911EA, size: 0x8, addend: 0x0, symName: '__ZN42_$LT$$RF$T$u20$as$u20$core..fmt..Debug$GT$3fmt17h3fcc434f5c2b6630E', symObjAddr: 0x4C718, symBinAddr: 0x4C9FC, symSize: 0x200 }
  - { offset: 0x1914AC, size: 0x8, addend: 0x0, symName: '__ZN42_$LT$$RF$T$u20$as$u20$core..fmt..Debug$GT$3fmt17h4de46ebfcb81f8dfE', symObjAddr: 0x4C918, symBinAddr: 0x4CBFC, symSize: 0x114 }
  - { offset: 0x191886, size: 0x8, addend: 0x0, symName: '__ZN42_$LT$$RF$T$u20$as$u20$core..fmt..Debug$GT$3fmt17h63d8a0434a5be73dE', symObjAddr: 0x4CA2C, symBinAddr: 0x4CD10, symSize: 0x34 }
  - { offset: 0x191930, size: 0x8, addend: 0x0, symName: '__ZN42_$LT$$RF$T$u20$as$u20$core..fmt..Debug$GT$3fmt17h69ee4f93784f46dfE', symObjAddr: 0x4CA60, symBinAddr: 0x4CD44, symSize: 0x298 }
  - { offset: 0x191CE9, size: 0x8, addend: 0x0, symName: '__ZN42_$LT$$RF$T$u20$as$u20$core..fmt..Debug$GT$3fmt17h6bb2f5a7491e3b4fE', symObjAddr: 0x4CCF8, symBinAddr: 0x4CFDC, symSize: 0xF8 }
  - { offset: 0x191EE2, size: 0x8, addend: 0x0, symName: '__ZN42_$LT$$RF$T$u20$as$u20$core..fmt..Debug$GT$3fmt17h77ab9aac444bea1cE', symObjAddr: 0x4CDF0, symBinAddr: 0x4D0D4, symSize: 0x22C }
  - { offset: 0x19235E, size: 0x8, addend: 0x0, symName: '__ZN42_$LT$$RF$T$u20$as$u20$core..fmt..Debug$GT$3fmt17h81aa4b94ac2b8025E', symObjAddr: 0x4D01C, symBinAddr: 0x4D300, symSize: 0x2A8 }
  - { offset: 0x19291C, size: 0x8, addend: 0x0, symName: '__ZN42_$LT$$RF$T$u20$as$u20$core..fmt..Debug$GT$3fmt17h84f7c70a8b050dddE', symObjAddr: 0x4D2C4, symBinAddr: 0x4D5A8, symSize: 0x110 }
  - { offset: 0x192AB8, size: 0x8, addend: 0x0, symName: '__ZN42_$LT$$RF$T$u20$as$u20$core..fmt..Debug$GT$3fmt17h8993b88fe4c9b650E', symObjAddr: 0x4D3D4, symBinAddr: 0x4D6B8, symSize: 0xE8 }
  - { offset: 0x192BE8, size: 0x8, addend: 0x0, symName: '__ZN42_$LT$$RF$T$u20$as$u20$core..fmt..Debug$GT$3fmt17ha9f826fd30a1ded0E', symObjAddr: 0x4D4BC, symBinAddr: 0x4D7A0, symSize: 0x1F0 }
  - { offset: 0x193084, size: 0x8, addend: 0x0, symName: '__ZN42_$LT$$RF$T$u20$as$u20$core..fmt..Debug$GT$3fmt17hadaab1ec7f1ffd79E', symObjAddr: 0x4D6AC, symBinAddr: 0x4D990, symSize: 0x200 }
  - { offset: 0x193313, size: 0x8, addend: 0x0, symName: '__ZN42_$LT$$RF$T$u20$as$u20$core..fmt..Debug$GT$3fmt17hb7d5a75e0edf5416E', symObjAddr: 0x4D8AC, symBinAddr: 0x4DB90, symSize: 0x168 }
  - { offset: 0x193554, size: 0x8, addend: 0x0, symName: '__ZN42_$LT$$RF$T$u20$as$u20$core..fmt..Debug$GT$3fmt17hc0c4eced6e4a9794E', symObjAddr: 0x4DA14, symBinAddr: 0x4DCF8, symSize: 0x14 }
  - { offset: 0x193649, size: 0x8, addend: 0x0, symName: '__ZN42_$LT$$RF$T$u20$as$u20$core..fmt..Debug$GT$3fmt17hce86bb8c1dd51115E', symObjAddr: 0x4DA28, symBinAddr: 0x4DD0C, symSize: 0x278 }
  - { offset: 0x1939EB, size: 0x8, addend: 0x0, symName: '__ZN42_$LT$$RF$T$u20$as$u20$core..fmt..Debug$GT$3fmt17hcf61ec4245c7fcdfE', symObjAddr: 0x4DCA0, symBinAddr: 0x4DF84, symSize: 0x1DC }
  - { offset: 0x193E41, size: 0x8, addend: 0x0, symName: '__ZN42_$LT$$RF$T$u20$as$u20$core..fmt..Debug$GT$3fmt17hdf70d2306650d030E', symObjAddr: 0x4DE7C, symBinAddr: 0x4E160, symSize: 0x3D8 }
  - { offset: 0x19481C, size: 0x8, addend: 0x0, symName: '__ZN42_$LT$$RF$T$u20$as$u20$core..fmt..Debug$GT$3fmt17hea3af1df46048d77E', symObjAddr: 0x4E254, symBinAddr: 0x4E538, symSize: 0x628 }
  - { offset: 0x1955C1, size: 0x8, addend: 0x0, symName: '__ZN42_$LT$$RF$T$u20$as$u20$core..fmt..Debug$GT$3fmt17hedb3b6921b0813aaE', symObjAddr: 0x4E87C, symBinAddr: 0x4EB60, symSize: 0xEC }
  - { offset: 0x1956F8, size: 0x8, addend: 0x0, symName: '__ZN42_$LT$$RF$T$u20$as$u20$core..fmt..Debug$GT$3fmt17hf5d04a0bffb384f3E', symObjAddr: 0x4E968, symBinAddr: 0x4EC4C, symSize: 0x29C }
  - { offset: 0x195B11, size: 0x8, addend: 0x0, symName: '__ZN42_$LT$$RF$T$u20$as$u20$core..fmt..Debug$GT$3fmt17hff29d728e43f2ec7E', symObjAddr: 0x4EC04, symBinAddr: 0x4EEE8, symSize: 0x150 }
  - { offset: 0x196764, size: 0x8, addend: 0x0, symName: '__ZN4core3fmt3num52_$LT$impl$u20$core..fmt..Debug$u20$for$u20$usize$GT$3fmt17h92cb54035fd7d9bcE', symObjAddr: 0x4EE14, symBinAddr: 0x4F0F8, symSize: 0xF8 }
  - { offset: 0x1968B9, size: 0x8, addend: 0x0, symName: '__ZN44_$LT$$RF$T$u20$as$u20$core..fmt..Display$GT$3fmt17h2185d20997354cd6E', symObjAddr: 0x4ED54, symBinAddr: 0x4F038, symSize: 0x8 }
  - { offset: 0x196933, size: 0x8, addend: 0x0, symName: '__ZN44_$LT$$RF$T$u20$as$u20$core..fmt..Display$GT$3fmt17h84987ac8505ecdb3E', symObjAddr: 0x4ED5C, symBinAddr: 0x4F040, symSize: 0x14 }
  - { offset: 0x1969B4, size: 0x8, addend: 0x0, symName: '__ZN44_$LT$$RF$T$u20$as$u20$core..fmt..Display$GT$3fmt17hcd6927dbbff867d1E', symObjAddr: 0x4ED70, symBinAddr: 0x4F054, symSize: 0x70 }
  - { offset: 0x196A9C, size: 0x8, addend: 0x0, symName: '__ZN44_$LT$$RF$T$u20$as$u20$core..fmt..Display$GT$3fmt17hf62272e63910d26fE', symObjAddr: 0x4EDE0, symBinAddr: 0x4F0C4, symSize: 0x34 }
  - { offset: 0x196B40, size: 0x8, addend: 0x0, symName: '__ZN53_$LT$core..fmt..Error$u20$as$u20$core..fmt..Debug$GT$3fmt17hd599aa5bd8b63259E', symObjAddr: 0x5ECCC, symBinAddr: 0x5E688, symSize: 0x18 }
  - { offset: 0x197C79, size: 0x8, addend: 0x0, symName: __ZN4core4hash11BuildHasher8hash_one17he4a5d4744872476dE, symObjAddr: 0x55754, symBinAddr: 0x556D4, symSize: 0x128 }
  - { offset: 0x19D097, size: 0x8, addend: 0x0, symName: '__ZN4core3str21_$LT$impl$u20$str$GT$12trim_matches17hf71269b5995d3cd2E', symObjAddr: 0x552EC, symBinAddr: 0x552F4, symSize: 0x244 }
  - { offset: 0x19D101, size: 0x8, addend: 0x0, symName: '__ZN4core3str21_$LT$impl$u20$str$GT$12trim_matches17hf71269b5995d3cd2E', symObjAddr: 0x552EC, symBinAddr: 0x552F4, symSize: 0x244 }
  - { offset: 0x19D11F, size: 0x8, addend: 0x0, symName: '__ZN4core3str21_$LT$impl$u20$str$GT$12trim_matches17hf71269b5995d3cd2E', symObjAddr: 0x552EC, symBinAddr: 0x552F4, symSize: 0x244 }
  - { offset: 0x19D13D, size: 0x8, addend: 0x0, symName: '__ZN4core3str21_$LT$impl$u20$str$GT$12trim_matches17hf71269b5995d3cd2E', symObjAddr: 0x552EC, symBinAddr: 0x552F4, symSize: 0x244 }
  - { offset: 0x19D15B, size: 0x8, addend: 0x0, symName: '__ZN4core3str21_$LT$impl$u20$str$GT$12trim_matches17hf71269b5995d3cd2E', symObjAddr: 0x552EC, symBinAddr: 0x552F4, symSize: 0x244 }
  - { offset: 0x19D179, size: 0x8, addend: 0x0, symName: '__ZN4core3str21_$LT$impl$u20$str$GT$12trim_matches17hf71269b5995d3cd2E', symObjAddr: 0x552EC, symBinAddr: 0x552F4, symSize: 0x244 }
  - { offset: 0x19D18E, size: 0x8, addend: 0x0, symName: '__ZN4core3str21_$LT$impl$u20$str$GT$12trim_matches17hf71269b5995d3cd2E', symObjAddr: 0x552EC, symBinAddr: 0x552F4, symSize: 0x244 }
  - { offset: 0x19D1A3, size: 0x8, addend: 0x0, symName: '__ZN4core3str21_$LT$impl$u20$str$GT$12trim_matches17hf71269b5995d3cd2E', symObjAddr: 0x552EC, symBinAddr: 0x552F4, symSize: 0x244 }
  - { offset: 0x19EAEB, size: 0x8, addend: 0x0, symName: '__ZN52_$LT$char$u20$as$u20$core..str..pattern..Pattern$GT$15is_contained_in17h6f6336f83b911868E', symObjAddr: 0x5EAD8, symBinAddr: 0x5E494, symSize: 0x1F4 }
  - { offset: 0x19F33F, size: 0x8, addend: 0x0, symName: '__ZN81_$LT$core..str..pattern..CharSearcher$u20$as$u20$core..str..pattern..Searcher$GT$10next_match17h057e0822e43a1174E', symObjAddr: 0x6648C, symBinAddr: 0x65794, symSize: 0x2A4 }
  - { offset: 0x19FD86, size: 0x8, addend: 0x0, symName: '__ZN80_$LT$core..str..pattern..StrSearcher$u20$as$u20$core..str..pattern..Searcher$GT$10next_match17hec5ac1ff8c43bcccE', symObjAddr: 0x65EAC, symBinAddr: 0x651B4, symSize: 0x1C0 }
  - { offset: 0x1A09DF, size: 0x8, addend: 0x0, symName: '__ZN4core3ops8function6FnOnce40call_once$u7b$$u7b$vtable.shim$u7d$$u7d$17h0ed907a7cd2da2d5E', symObjAddr: 0x4EF90, symBinAddr: 0x4F274, symSize: 0xE4 }
  - { offset: 0x1A1144, size: 0x8, addend: 0x0, symName: '__ZN4core3ops8function6FnOnce40call_once$u7b$$u7b$vtable.shim$u7d$$u7d$17h11456aba8d51b6c6E', symObjAddr: 0x4F074, symBinAddr: 0x4F358, symSize: 0x4 }
  - { offset: 0x1A1176, size: 0x8, addend: 0x0, symName: '__ZN4core3ops8function6FnOnce40call_once$u7b$$u7b$vtable.shim$u7d$$u7d$17h11456aba8d51b6c6E', symObjAddr: 0x4F074, symBinAddr: 0x4F358, symSize: 0x4 }
  - { offset: 0x1A11D3, size: 0x8, addend: 0x0, symName: '__ZN4core3ops8function6FnOnce40call_once$u7b$$u7b$vtable.shim$u7d$$u7d$17h1531f28fe58c275eE', symObjAddr: 0x4F078, symBinAddr: 0x4F35C, symSize: 0x18 }
  - { offset: 0x1A1264, size: 0x8, addend: 0x0, symName: '__ZN4core3ops8function6FnOnce40call_once$u7b$$u7b$vtable.shim$u7d$$u7d$17h1a789747fa841800E', symObjAddr: 0x4F090, symBinAddr: 0x4F374, symSize: 0x10 }
  - { offset: 0x1A1302, size: 0x8, addend: 0x0, symName: '__ZN4core3ops8function6FnOnce40call_once$u7b$$u7b$vtable.shim$u7d$$u7d$17h40669988442df138E', symObjAddr: 0x4F0A0, symBinAddr: 0x4F384, symSize: 0x10 }
  - { offset: 0x1A1363, size: 0x8, addend: 0x0, symName: '__ZN4core3ops8function6FnOnce40call_once$u7b$$u7b$vtable.shim$u7d$$u7d$17h4f2d6babf1bc5a58E', symObjAddr: 0x4F0B0, symBinAddr: 0x4F394, symSize: 0x9C }
  - { offset: 0x1A189F, size: 0x8, addend: 0x0, symName: '__ZN4core3ops8function6FnOnce40call_once$u7b$$u7b$vtable.shim$u7d$$u7d$17h648296aefe0f5ad8E', symObjAddr: 0x4F14C, symBinAddr: 0x4F430, symSize: 0x38 }
  - { offset: 0x1A1903, size: 0x8, addend: 0x0, symName: '__ZN4core3ops8function6FnOnce40call_once$u7b$$u7b$vtable.shim$u7d$$u7d$17h70f0d28151c2a91dE', symObjAddr: 0x4F184, symBinAddr: 0x4F468, symSize: 0xE4 }
  - { offset: 0x1A2068, size: 0x8, addend: 0x0, symName: '__ZN4core3ops8function6FnOnce40call_once$u7b$$u7b$vtable.shim$u7d$$u7d$17h7baeb6a605c08763E', symObjAddr: 0x4F268, symBinAddr: 0x4F54C, symSize: 0x10 }
  - { offset: 0x1A20C9, size: 0x8, addend: 0x0, symName: '__ZN4core3ops8function6FnOnce40call_once$u7b$$u7b$vtable.shim$u7d$$u7d$17h83f8f1b27bfddd49E', symObjAddr: 0x4F278, symBinAddr: 0x4F55C, symSize: 0x78 }
  - { offset: 0x1A2315, size: 0x8, addend: 0x0, symName: '__ZN4core3ops8function6FnOnce40call_once$u7b$$u7b$vtable.shim$u7d$$u7d$17h856a4f91a0463d38E', symObjAddr: 0x4F2F0, symBinAddr: 0x4F5D4, symSize: 0x18 }
  - { offset: 0x1A23A6, size: 0x8, addend: 0x0, symName: '__ZN4core3ops8function6FnOnce40call_once$u7b$$u7b$vtable.shim$u7d$$u7d$17h913724f15d2763ebE', symObjAddr: 0x4F308, symBinAddr: 0x4F5EC, symSize: 0x18 }
  - { offset: 0x1A2406, size: 0x8, addend: 0x0, symName: '__ZN4core3ops8function6FnOnce40call_once$u7b$$u7b$vtable.shim$u7d$$u7d$17ha613995798ee8b67E', symObjAddr: 0x4F320, symBinAddr: 0x4F604, symSize: 0x78 }
  - { offset: 0x1A2652, size: 0x8, addend: 0x0, symName: '__ZN4core3ops8function6FnOnce40call_once$u7b$$u7b$vtable.shim$u7d$$u7d$17ha937f8d3ad3ef989E', symObjAddr: 0x4F398, symBinAddr: 0x4F67C, symSize: 0x18 }
  - { offset: 0x1A26B2, size: 0x8, addend: 0x0, symName: '__ZN4core3ops8function6FnOnce40call_once$u7b$$u7b$vtable.shim$u7d$$u7d$17hc065d9f4513d4368E', symObjAddr: 0x4F3B0, symBinAddr: 0x4F694, symSize: 0xE4 }
  - { offset: 0x1A2E13, size: 0x8, addend: 0x0, symName: '__ZN4core3ops8function6FnOnce40call_once$u7b$$u7b$vtable.shim$u7d$$u7d$17hef8902e7e9c72edaE', symObjAddr: 0x4F494, symBinAddr: 0x4F778, symSize: 0x28 }
  - { offset: 0x1A2EA0, size: 0x8, addend: 0x0, symName: '__ZN4core3ops8function6FnOnce40call_once$u7b$$u7b$vtable.shim$u7d$$u7d$17hf8e5bdc0c90728c1E', symObjAddr: 0x4F4BC, symBinAddr: 0x4F7A0, symSize: 0x10 }
  - { offset: 0x1A2F01, size: 0x8, addend: 0x0, symName: '__ZN4core3ops8function6FnOnce40call_once$u7b$$u7b$vtable.shim$u7d$$u7d$17hfd43e4c3ab4edcf7E', symObjAddr: 0x4F4CC, symBinAddr: 0x4F7B0, symSize: 0x9C }
  - { offset: 0x1A343D, size: 0x8, addend: 0x0, symName: '__ZN4core3ops8function6FnOnce40call_once$u7b$$u7b$vtable.shim$u7d$$u7d$17hffa802173c1e4a4aE', symObjAddr: 0x4F568, symBinAddr: 0x4F84C, symSize: 0x28 }
  - { offset: 0x1A3499, size: 0x8, addend: 0x0, symName: __ZN4core3ops8function6FnOnce9call_once17h0bcbdcb05a7371c0E, symObjAddr: 0x4F590, symBinAddr: 0x4F874, symSize: 0x30 }
  - { offset: 0x1A366F, size: 0x8, addend: 0x0, symName: __ZN4core3ops8function6FnOnce9call_once17h4d29baaca078d4d5E, symObjAddr: 0x4F5C0, symBinAddr: 0x137124, symSize: 0xA4 }
  - { offset: 0x1A386C, size: 0x8, addend: 0x0, symName: __ZN4core3ops8function6FnOnce9call_once17h89bf46fb717d56d0E, symObjAddr: 0x4F664, symBinAddr: 0x1371C8, symSize: 0xA4 }
  - { offset: 0x1A3A69, size: 0x8, addend: 0x0, symName: __ZN4core3ops8function6FnOnce9call_once17hb9089f1d7b7f04c5E, symObjAddr: 0x4F708, symBinAddr: 0x13726C, symSize: 0xA4 }
  - { offset: 0x1A3C67, size: 0x8, addend: 0x0, symName: __ZN4core3ops8function6FnOnce9call_once17hf209dd60440e0f04E, symObjAddr: 0x4F7AC, symBinAddr: 0x137310, symSize: 0xF0 }
  - { offset: 0x1A43DD, size: 0x8, addend: 0x0, symName: __ZN4core3ops8function5FnMut8call_mut17h6dd151751b1abf50E, symObjAddr: 0x4EF60, symBinAddr: 0x4F244, symSize: 0x10 }
  - { offset: 0x1A4420, size: 0x8, addend: 0x0, symName: __ZN4core3ops8function5FnMut8call_mut17h957a57f4fcc1bb0cE, symObjAddr: 0x4EF70, symBinAddr: 0x4F254, symSize: 0x10 }
  - { offset: 0x1A4463, size: 0x8, addend: 0x0, symName: __ZN4core3ops8function5FnMut8call_mut17h996cbb4732d4d365E, symObjAddr: 0x4EF80, symBinAddr: 0x4F264, symSize: 0x10 }
  - { offset: 0x1A450E, size: 0x8, addend: 0x0, symName: __ZN4core3ops8function2Fn4call17h59ef61aaa14a11a2E, symObjAddr: 0x4EF20, symBinAddr: 0x4F204, symSize: 0x10 }
  - { offset: 0x1A4551, size: 0x8, addend: 0x0, symName: __ZN4core3ops8function2Fn4call17h63c63e1eb4af3284E, symObjAddr: 0x4EF30, symBinAddr: 0x4F214, symSize: 0x10 }
  - { offset: 0x1A4599, size: 0x8, addend: 0x0, symName: __ZN4core3ops8function2Fn4call17h8b0bfeb17c38dba8E, symObjAddr: 0x4EF40, symBinAddr: 0x4F224, symSize: 0x10 }
  - { offset: 0x1A45DC, size: 0x8, addend: 0x0, symName: __ZN4core3ops8function2Fn4call17heeb76c9fd56edd4cE, symObjAddr: 0x4EF50, symBinAddr: 0x4F234, symSize: 0x10 }
  - { offset: 0x1A69D6, size: 0x8, addend: 0x0, symName: '__ZN102_$LT$core..iter..adapters..map..Map$LT$I$C$F$GT$$u20$as$u20$core..iter..traits..iterator..Iterator$GT$4next17h2ccbd55f47639c73E', symObjAddr: 0xB8, symBinAddr: 0x900, symSize: 0x118 }
  - { offset: 0x1A6F8F, size: 0x8, addend: 0x0, symName: '__ZN102_$LT$core..iter..adapters..map..Map$LT$I$C$F$GT$$u20$as$u20$core..iter..traits..iterator..Iterator$GT$4next17h327fc39b67b7c3d8E', symObjAddr: 0x1D0, symBinAddr: 0xA18, symSize: 0x19C }
  - { offset: 0x1ADEF5, size: 0x8, addend: 0x0, symName: __ZN4core4iter6traits8iterator8Iterator8try_fold17h4754bffc437daf99E, symObjAddr: 0x5587C, symBinAddr: 0x557FC, symSize: 0x1A8 }
  - { offset: 0x1B6A42, size: 0x8, addend: 0x0, symName: __ZN4core5slice4sort6stable14driftsort_main17h56185456a24928d9E, symObjAddr: 0x55F7C, symBinAddr: 0x55EFC, symSize: 0x134 }
  - { offset: 0x1B6FCB, size: 0x8, addend: 0x0, symName: __ZN4core5slice4sort6stable14driftsort_main17h653f395abf7402e6E, symObjAddr: 0x560B0, symBinAddr: 0x56030, symSize: 0x134 }
  - { offset: 0x1B77BD, size: 0x8, addend: 0x0, symName: __ZN4core5slice4sort6stable5drift4sort17h42ca8081d1140067E, symObjAddr: 0x561E4, symBinAddr: 0x56164, symSize: 0x71C }
  - { offset: 0x1B8F59, size: 0x8, addend: 0x0, symName: __ZN4core5slice4sort6stable5drift4sort17hb2f4b93803c3a793E, symObjAddr: 0x56900, symBinAddr: 0x56880, symSize: 0x71C }
  - { offset: 0x1BABBD, size: 0x8, addend: 0x0, symName: __ZN4core5slice4sort6stable9quicksort9quicksort17h30f24149152ac62aE, symObjAddr: 0x5701C, symBinAddr: 0x56F9C, symSize: 0xD40 }
  - { offset: 0x1BD477, size: 0x8, addend: 0x0, symName: __ZN4core5slice4sort6stable9quicksort9quicksort17hf1620f1da3a34aa8E, symObjAddr: 0x57D5C, symBinAddr: 0x57CDC, symSize: 0xD40 }
  - { offset: 0x1BFBBA, size: 0x8, addend: 0x0, symName: __ZN4core5slice4sort6shared5pivot11median3_rec17h2592680feecccfe3E, symObjAddr: 0x55A24, symBinAddr: 0x559A4, symSize: 0x10C }
  - { offset: 0x1BFDB7, size: 0x8, addend: 0x0, symName: __ZN4core5slice4sort6shared5pivot11median3_rec17h5da140f20d5aff82E, symObjAddr: 0x55B30, symBinAddr: 0x55AB0, symSize: 0x10C }
  - { offset: 0x1C0166, size: 0x8, addend: 0x0, symName: __ZN4core5slice4sort6shared9smallsort25insertion_sort_shift_left17hd70584d3aebdd862E, symObjAddr: 0x55C3C, symBinAddr: 0x55BBC, symSize: 0x1A0 }
  - { offset: 0x1C05D3, size: 0x8, addend: 0x0, symName: __ZN4core5slice4sort6shared9smallsort25insertion_sort_shift_left17heeebc67a25fe68a9E, symObjAddr: 0x55DDC, symBinAddr: 0x55D5C, symSize: 0x1A0 }
  - { offset: 0x1C502A, size: 0x8, addend: 0x0, symName: '__ZN9once_cell3imp17OnceCell$LT$T$GT$10initialize28_$u7b$$u7b$closure$u7d$$u7d$17h471eb238ef1cf055E', symObjAddr: 0x76204, symBinAddr: 0x72460, symSize: 0x390 }
  - { offset: 0x1C5884, size: 0x8, addend: 0x0, symName: '__ZN9once_cell3imp17OnceCell$LT$T$GT$10initialize28_$u7b$$u7b$closure$u7d$$u7d$17haecf90b613e57a84E', symObjAddr: 0x76594, symBinAddr: 0x727F0, symSize: 0x11C }
  - { offset: 0x1C5C9E, size: 0x8, addend: 0x0, symName: '__ZN9once_cell3imp17OnceCell$LT$T$GT$10initialize28_$u7b$$u7b$closure$u7d$$u7d$17hb2702509949877a9E', symObjAddr: 0x766B0, symBinAddr: 0x7290C, symSize: 0x390 }
  - { offset: 0x1C64F8, size: 0x8, addend: 0x0, symName: '__ZN9once_cell3imp17OnceCell$LT$T$GT$10initialize28_$u7b$$u7b$closure$u7d$$u7d$17hdf135a981a76e3e5E', symObjAddr: 0x76A40, symBinAddr: 0x72C9C, symSize: 0x390 }
  - { offset: 0x1C6D52, size: 0x8, addend: 0x0, symName: '__ZN9once_cell3imp17OnceCell$LT$T$GT$10initialize28_$u7b$$u7b$closure$u7d$$u7d$17hf44d9119866c3d18E', symObjAddr: 0x76DD0, symBinAddr: 0x7302C, symSize: 0x330 }
  - { offset: 0x1C809B, size: 0x8, addend: 0x0, symName: __ZN3std3sys12thread_local6native5eager7destroy17h737ea25e94c59708E, symObjAddr: 0x4A578, symBinAddr: 0x4A91C, symSize: 0x2C }
  - { offset: 0x1C85C5, size: 0x8, addend: 0x0, symName: __ZN3std3sys12thread_local6native4lazy7destroy17hbe2dd4a3078a1bceE, symObjAddr: 0x4A544, symBinAddr: 0x4A8E8, symSize: 0x34 }
  - { offset: 0x1C86A7, size: 0x8, addend: 0x0, symName: '__ZN103_$LT$std..sys..thread_local..abort_on_dtor_unwind..DtorUnwindGuard$u20$as$u20$core..ops..drop..Drop$GT$4drop17h71e4e5ab8938526cE', symObjAddr: 0x1448, symBinAddr: 0x136BC0, symSize: 0x14 }
  - { offset: 0x1C8815, size: 0x8, addend: 0x0, symName: '__ZN3std4sync4once4Once15call_once_force28_$u7b$$u7b$closure$u7d$$u7d$17h69b27fde51cadcb2E', symObjAddr: 0x4A5A4, symBinAddr: 0x4A948, symSize: 0x1FC }
  - { offset: 0x1C8C9B, size: 0x8, addend: 0x0, symName: '__ZN3std4sync4once4Once15call_once_force28_$u7b$$u7b$closure$u7d$$u7d$17ha20399f2017b66c6E', symObjAddr: 0x4A7A0, symBinAddr: 0x4AB44, symSize: 0x17E8 }
  - { offset: 0x1D61DD, size: 0x8, addend: 0x0, symName: '__ZN94_$LT$std..collections..hash..map..HashMap$LT$K$C$V$C$S$C$A$GT$$u20$as$u20$core..fmt..Debug$GT$3fmt17hb045a6b6799330d2E', symObjAddr: 0x6DED8, symBinAddr: 0x6D1E0, symSize: 0x15C }
  - { offset: 0x1D6E4E, size: 0x8, addend: 0x0, symName: __ZN3std2io5Write9write_fmt17h1d1a836c4f2cad61E, symObjAddr: 0x4A368, symBinAddr: 0x4A83C, symSize: 0xAC }
  - { offset: 0x1DA0AB, size: 0x8, addend: 0x0, symName: '__ZN58_$LT$alloc..string..String$u20$as$u20$core..fmt..Debug$GT$3fmt17h80152912950d0a9cE', symObjAddr: 0x5ECE4, symBinAddr: 0x5E6A0, symSize: 0x14 }
  - { offset: 0x1DA0D4, size: 0x8, addend: 0x0, symName: '__ZN58_$LT$alloc..string..String$u20$as$u20$core..fmt..Debug$GT$3fmt17h80152912950d0a9cE', symObjAddr: 0x5ECE4, symBinAddr: 0x5E6A0, symSize: 0x14 }
  - { offset: 0x1DA0F0, size: 0x8, addend: 0x0, symName: '__ZN58_$LT$alloc..string..String$u20$as$u20$core..fmt..Debug$GT$3fmt17h80152912950d0a9cE', symObjAddr: 0x5ECE4, symBinAddr: 0x5E6A0, symSize: 0x14 }
  - { offset: 0x1DA10C, size: 0x8, addend: 0x0, symName: '__ZN58_$LT$alloc..string..String$u20$as$u20$core..fmt..Debug$GT$3fmt17h80152912950d0a9cE', symObjAddr: 0x5ECE4, symBinAddr: 0x5E6A0, symSize: 0x14 }
  - { offset: 0x1DA121, size: 0x8, addend: 0x0, symName: '__ZN58_$LT$alloc..string..String$u20$as$u20$core..fmt..Debug$GT$3fmt17h80152912950d0a9cE', symObjAddr: 0x5ECE4, symBinAddr: 0x5E6A0, symSize: 0x14 }
  - { offset: 0x1DA136, size: 0x8, addend: 0x0, symName: '__ZN58_$LT$alloc..string..String$u20$as$u20$core..fmt..Debug$GT$3fmt17h80152912950d0a9cE', symObjAddr: 0x5ECE4, symBinAddr: 0x5E6A0, symSize: 0x14 }
  - { offset: 0x1DA14B, size: 0x8, addend: 0x0, symName: '__ZN58_$LT$alloc..string..String$u20$as$u20$core..fmt..Debug$GT$3fmt17h80152912950d0a9cE', symObjAddr: 0x5ECE4, symBinAddr: 0x5E6A0, symSize: 0x14 }
  - { offset: 0x1DA160, size: 0x8, addend: 0x0, symName: '__ZN58_$LT$alloc..string..String$u20$as$u20$core..fmt..Debug$GT$3fmt17h80152912950d0a9cE', symObjAddr: 0x5ECE4, symBinAddr: 0x5E6A0, symSize: 0x14 }
  - { offset: 0x1DADA1, size: 0x8, addend: 0x0, symName: '__ZN51_$LT$i64$u20$as$u20$alloc..string..SpecToString$GT$14spec_to_string17h3286e51c8f7b19f8E', symObjAddr: 0x5E9AC, symBinAddr: 0x5E368, symSize: 0x12C }
  - { offset: 0x1DB603, size: 0x8, addend: 0x0, symName: '__ZN58_$LT$alloc..string..String$u20$as$u20$core..fmt..Write$GT$10write_char17h5a90e0e0b6d91f2fE', symObjAddr: 0x5ECF8, symBinAddr: 0x5E6B4, symSize: 0x120 }
  - { offset: 0x1DB96B, size: 0x8, addend: 0x0, symName: '__ZN58_$LT$alloc..string..String$u20$as$u20$core..fmt..Write$GT$9write_str17hfaf892e59da79312E', symObjAddr: 0x5EE18, symBinAddr: 0x5E7D4, symSize: 0x80 }
  - { offset: 0x1DBC10, size: 0x8, addend: 0x0, symName: '__ZN60_$LT$alloc..string..String$u20$as$u20$core..fmt..Display$GT$3fmt17hf4ed6bc6dff88b09E', symObjAddr: 0x60408, symBinAddr: 0x5F710, symSize: 0x10 }
  - { offset: 0x1DF3B6, size: 0x8, addend: 0x0, symName: '__ZN67_$LT$alloc..vec..Vec$LT$T$C$A$GT$$u20$as$u20$core..clone..Clone$GT$5clone17h2e5529d008269ecdE', symObjAddr: 0x62D70, symBinAddr: 0x62078, symSize: 0x350 }
  - { offset: 0x1E0301, size: 0x8, addend: 0x0, symName: '__ZN67_$LT$alloc..vec..Vec$LT$T$C$A$GT$$u20$as$u20$core..clone..Clone$GT$5clone17h8b37661d3c747790E', symObjAddr: 0x630C0, symBinAddr: 0x623C8, symSize: 0x10C }
  - { offset: 0x1E075A, size: 0x8, addend: 0x0, symName: '__ZN67_$LT$alloc..vec..Vec$LT$T$C$A$GT$$u20$as$u20$core..clone..Clone$GT$5clone17hc83043ab697bf388E', symObjAddr: 0x631CC, symBinAddr: 0x624D4, symSize: 0xE8 }
  - { offset: 0x1E474D, size: 0x8, addend: 0x0, symName: '__ZN111_$LT$alloc..vec..Vec$LT$T$GT$$u20$as$u20$alloc..vec..spec_from_iter_nested..SpecFromIterNested$LT$T$C$I$GT$$GT$9from_iter17h1c81823c8129ff08E', symObjAddr: 0x5B7C, symBinAddr: 0x63B0, symSize: 0x124 }
  - { offset: 0x1E4DEB, size: 0x8, addend: 0x0, symName: '__ZN111_$LT$alloc..vec..Vec$LT$T$GT$$u20$as$u20$alloc..vec..spec_from_iter_nested..SpecFromIterNested$LT$T$C$I$GT$$GT$9from_iter17h484c326b5527ae7aE', symObjAddr: 0x5CA0, symBinAddr: 0x64D4, symSize: 0x208 }
  - { offset: 0x1E878C, size: 0x8, addend: 0x0, symName: '__ZN65_$LT$alloc..vec..Vec$LT$T$C$A$GT$$u20$as$u20$core..fmt..Debug$GT$3fmt17h0acdf8f2d6f107baE', symObjAddr: 0x606B0, symBinAddr: 0x5F9B8, symSize: 0x1FC }
  - { offset: 0x1E8AA5, size: 0x8, addend: 0x0, symName: '__ZN65_$LT$alloc..vec..Vec$LT$T$C$A$GT$$u20$as$u20$core..fmt..Debug$GT$3fmt17h2e8195b0078ded28E', symObjAddr: 0x608AC, symBinAddr: 0x5FBB4, symSize: 0x3FC }
  - { offset: 0x1E8E2E, size: 0x8, addend: 0x0, symName: '__ZN65_$LT$alloc..vec..Vec$LT$T$C$A$GT$$u20$as$u20$core..fmt..Debug$GT$3fmt17h61ba20bbe97a67fbE', symObjAddr: 0x60CA8, symBinAddr: 0x5FFB0, symSize: 0x208 }
  - { offset: 0x1E91A5, size: 0x8, addend: 0x0, symName: '__ZN65_$LT$alloc..vec..Vec$LT$T$C$A$GT$$u20$as$u20$core..fmt..Debug$GT$3fmt17h99ae89e0e30b0232E', symObjAddr: 0x60EB0, symBinAddr: 0x601B8, symSize: 0x1FC }
  - { offset: 0x1E94BE, size: 0x8, addend: 0x0, symName: '__ZN65_$LT$alloc..vec..Vec$LT$T$C$A$GT$$u20$as$u20$core..fmt..Debug$GT$3fmt17hdd817a75fc47ecfdE', symObjAddr: 0x610AC, symBinAddr: 0x603B4, symSize: 0x1D8 }
  - { offset: 0x1E9807, size: 0x8, addend: 0x0, symName: '__ZN65_$LT$alloc..vec..Vec$LT$T$C$A$GT$$u20$as$u20$core..fmt..Debug$GT$3fmt17he1a138e86153392fE', symObjAddr: 0x61284, symBinAddr: 0x6058C, symSize: 0x1F8 }
  - { offset: 0x1E9B20, size: 0x8, addend: 0x0, symName: '__ZN65_$LT$alloc..vec..Vec$LT$T$C$A$GT$$u20$as$u20$core..fmt..Debug$GT$3fmt17hfa9042e90fc2a70aE', symObjAddr: 0x6147C, symBinAddr: 0x60784, symSize: 0x1DC }
  - { offset: 0x1EA6EE, size: 0x8, addend: 0x0, symName: __ZN5alloc5alloc15exchange_malloc17hb1e0529d4a040f06E, symObjAddr: 0x5FBFC, symBinAddr: 0x5F5B8, symSize: 0x28 }
  - { offset: 0x1ECAAB, size: 0x8, addend: 0x0, symName: '__ZN5alloc7raw_vec20RawVecInner$LT$A$GT$7reserve21do_reserve_and_handle17hc40be48a9725f344E', symObjAddr: 0x6037C, symBinAddr: 0x138074, symSize: 0x8C }
  - { offset: 0x1ED20D, size: 0x8, addend: 0x0, symName: '__ZN63_$LT$alloc..rc..Rc$LT$T$C$A$GT$$u20$as$u20$core..fmt..Debug$GT$3fmt17h697adc03c126d46aE', symObjAddr: 0x60418, symBinAddr: 0x5F720, symSize: 0x298 }
  - { offset: 0x1F1F61, size: 0x8, addend: 0x0, symName: '__ZN5alloc5slice29_$LT$impl$u20$$u5b$T$u5d$$GT$7sort_by28_$u7b$$u7b$closure$u7d$$u7d$17he6444ebab7a243e1E', symObjAddr: 0x5FC24, symBinAddr: 0x5F5E0, symSize: 0x98 }
  - { offset: 0x1F2140, size: 0x8, addend: 0x0, symName: '__ZN5alloc5slice29_$LT$impl$u20$$u5b$T$u5d$$GT$7sort_by28_$u7b$$u7b$closure$u7d$$u7d$17hf3cef7b929bb4c16E', symObjAddr: 0x5FCBC, symBinAddr: 0x5F678, symSize: 0x98 }
  - { offset: 0x1F56B1, size: 0x8, addend: 0x0, symName: '__ZN5alloc3str21_$LT$impl$u20$str$GT$7replace17h4116198209000c87E', symObjAddr: 0x5F4B8, symBinAddr: 0x5EE74, symSize: 0x32C }
  - { offset: 0x1F685A, size: 0x8, addend: 0x0, symName: '__ZN5alloc3str21_$LT$impl$u20$str$GT$7replace17h8b2fbf41c23b058fE', symObjAddr: 0x5F7E4, symBinAddr: 0x5F1A0, symSize: 0x1D8 }
  - { offset: 0x1F7599, size: 0x8, addend: 0x0, symName: '__ZN5alloc3str21_$LT$impl$u20$str$GT$7replace17he2056340f376e621E', symObjAddr: 0x5F9BC, symBinAddr: 0x5F378, symSize: 0x1AC }
  - { offset: 0x1F81C3, size: 0x8, addend: 0x0, symName: __ZN5alloc3str17join_generic_copy17h352ed3de1223cf6dE, symObjAddr: 0x5EF10, symBinAddr: 0x5E8CC, symSize: 0x224 }
  - { offset: 0x1F91AD, size: 0x8, addend: 0x0, symName: __ZN5alloc3str17join_generic_copy17h5583cc3b756bff45E, symObjAddr: 0x5F134, symBinAddr: 0x5EAF0, symSize: 0x384 }
  - { offset: 0x1FBA81, size: 0x8, addend: 0x0, symName: '__ZN67_$LT$alloc..boxed..Box$LT$T$C$A$GT$$u20$as$u20$core..fmt..Debug$GT$3fmt17h197ffe4fc5340c3dE', symObjAddr: 0x62730, symBinAddr: 0x61A38, symSize: 0x640 }
  - { offset: 0x201675, size: 0x8, addend: 0x0, symName: '__ZN9hashbrown3raw21RawTable$LT$T$C$A$GT$14reserve_rehash28_$u7b$$u7b$closure$u7d$$u7d$17hfad939efdb811872E', symObjAddr: 0x75DE8, symBinAddr: 0x723A4, symSize: 0xBC }
  - { offset: 0x21280B, size: 0x8, addend: 0x0, symName: __ZN14regex_automata4util4iter8Searcher7advance17h0da68e346dbd5955E, symObjAddr: 0xBF44, symBinAddr: 0xC778, symSize: 0x27C }
  - { offset: 0x2133B7, size: 0x8, addend: 0x0, symName: '__ZN14regex_automata4util4pool5inner17Pool$LT$T$C$F$GT$8get_slow17h9db5a81655ddcc95E', symObjAddr: 0xC1C0, symBinAddr: 0x136BD4, symSize: 0x2D4 }
  - { offset: 0x214483, size: 0x8, addend: 0x0, symName: '__ZN14regex_automata4util4pool5inner17Pool$LT$T$C$F$GT$9put_value17ha1173ab3ad0df210E', symObjAddr: 0xC494, symBinAddr: 0xC9F4, symSize: 0x6E0 }
  - { offset: 0x215A68, size: 0x8, addend: 0x0, symName: __ZN21django_template_oxide11py_bindings10PyTemplate19__pymethod_render__17h1445f7be78726d06E, symObjAddr: 0xCB74, symBinAddr: 0xD0D4, symSize: 0xAC0 }
  - { offset: 0x218D71, size: 0x8, addend: 0x0, symName: __ZN21django_template_oxide11py_bindings10PyTemplate20__pymethod___new____17hf172c491bc88b721E, symObjAddr: 0xD634, symBinAddr: 0xDB94, symSize: 0x844 }
  - { offset: 0x21A732, size: 0x8, addend: 0x0, symName: __ZN21django_template_oxide11py_bindings10PyTemplate21__pymethod___repr____17h5ae0203baabaeb0eE, symObjAddr: 0xDE78, symBinAddr: 0xE3D8, symSize: 0x178 }
  - { offset: 0x21B46B, size: 0x8, addend: 0x0, symName: __ZN21django_template_oxide11py_bindings10PyTemplate21__pymethod_get_name__17h23dee39a818fc2cbE, symObjAddr: 0xDFF0, symBinAddr: 0xE550, symSize: 0xE4 }
  - { offset: 0x21BB93, size: 0x8, addend: 0x0, symName: __ZN21django_template_oxide11py_bindings10PyTemplate23__pymethod_get_engine__17hcc7be176a3e26557E, symObjAddr: 0xE0D4, symBinAddr: 0xE634, symSize: 0xC8 }
  - { offset: 0x21BF9E, size: 0x8, addend: 0x0, symName: __ZN21django_template_oxide11py_bindings10PyTemplate23__pymethod_get_origin__17hdd95165dfe7e314dE, symObjAddr: 0xE19C, symBinAddr: 0xE6FC, symSize: 0xC8 }
  - { offset: 0x21C422, size: 0x8, addend: 0x0, symName: __ZN21django_template_oxide11py_bindings10PyTemplate23__pymethod_get_source__17h7a463029df54701fE, symObjAddr: 0xE264, symBinAddr: 0xE7C4, symSize: 0xB8 }
  - { offset: 0x21CCD9, size: 0x8, addend: 0x0, symName: __ZN21django_template_oxide11py_bindings19NativeFilterWrapper21__pymethod___repr____17h204136d895c9222bE, symObjAddr: 0xE640, symBinAddr: 0xEBA0, symSize: 0x26C }
  - { offset: 0x21EAE1, size: 0x8, addend: 0x0, symName: __ZN21django_template_oxide11py_bindings8PyEngine20__pymethod___new____17hfbe7840cee139104E, symObjAddr: 0xF24C, symBinAddr: 0xF7AC, symSize: 0xB04 }
  - { offset: 0x22104C, size: 0x8, addend: 0x0, symName: __ZN21django_template_oxide11py_bindings8PyEngine21__pymethod___repr____17h7e8bfacbaba88c56E, symObjAddr: 0xFD50, symBinAddr: 0x102B0, symSize: 0x12C }
  - { offset: 0x221AA8, size: 0x8, addend: 0x0, symName: __ZN21django_template_oxide11py_bindings8PyEngine21__pymethod_get_dirs__17h76fe15b8e1a4d695E, symObjAddr: 0xFE7C, symBinAddr: 0x103DC, symSize: 0x2E8 }
  - { offset: 0x222CBD, size: 0x8, addend: 0x0, symName: __ZN21django_template_oxide11py_bindings8PyEngine22__pymethod_get_debug__17h779177e69f2059aaE, symObjAddr: 0x10164, symBinAddr: 0x106C4, symSize: 0xC8 }
  - { offset: 0x22354E, size: 0x8, addend: 0x0, symName: __ZN21django_template_oxide11py_bindings8PyEngine24__pymethod_from_string__17h21610890aa84e162E, symObjAddr: 0x1022C, symBinAddr: 0x1078C, symSize: 0x7B4 }
  - { offset: 0x224FB7, size: 0x8, addend: 0x0, symName: __ZN21django_template_oxide11py_bindings8PyEngine24__pymethod_get_default__17haadde6f1a7f8465cE, symObjAddr: 0x109E0, symBinAddr: 0x10F40, symSize: 0x36C }
  - { offset: 0x225A12, size: 0x8, addend: 0x0, symName: __ZN21django_template_oxide11py_bindings8PyEngine25__pymethod_get_template__17haf9b870e06fc6265E, symObjAddr: 0x10D4C, symBinAddr: 0x112AC, symSize: 0x548 }
  - { offset: 0x2267C8, size: 0x8, addend: 0x0, symName: __ZN21django_template_oxide11py_bindings8PyEngine27__pymethod_get_autoescape__17h68d36071cbdaa74bE, symObjAddr: 0x11294, symBinAddr: 0x117F4, symSize: 0xC8 }
  - { offset: 0x226CAE, size: 0x8, addend: 0x0, symName: __ZN21django_template_oxide11py_bindings8PyEngine34__pymethod_get_string_if_invalid__17h1bddd08971602202E, symObjAddr: 0x1135C, symBinAddr: 0x118BC, symSize: 0xB8 }
  - { offset: 0x227364, size: 0x8, addend: 0x0, symName: __ZN21django_template_oxide11py_bindings9PyContext16__pymethod_get__17h9c6b7173e929c9d6E, symObjAddr: 0x11414, symBinAddr: 0x11974, symSize: 0x2D4 }
  - { offset: 0x228192, size: 0x8, addend: 0x0, symName: __ZN21django_template_oxide11py_bindings9PyContext16__pymethod_pop__17hb36bed7c67b7696cE, symObjAddr: 0x116E8, symBinAddr: 0x11C48, symSize: 0x230 }
  - { offset: 0x229191, size: 0x8, addend: 0x0, symName: __ZN21django_template_oxide11py_bindings9PyContext19__pymethod_update__17hd49a8e0f88e63d7fE, symObjAddr: 0x11918, symBinAddr: 0x11E78, symSize: 0x6F0 }
  - { offset: 0x22B46E, size: 0x8, addend: 0x0, symName: __ZN21django_template_oxide11py_bindings9PyContext20__pymethod___new____17h60ffdec6f01aa648E, symObjAddr: 0x12008, symBinAddr: 0x12568, symSize: 0x9BC }
  - { offset: 0x22D1CD, size: 0x8, addend: 0x0, symName: __ZN21django_template_oxide11py_bindings9PyContext20__pymethod_flatten__17hd8e08c0a6581a0efE, symObjAddr: 0x129C4, symBinAddr: 0x12F24, symSize: 0x1A8 }
  - { offset: 0x22DAFB, size: 0x8, addend: 0x0, symName: __ZN21django_template_oxide11py_bindings9PyContext21__pymethod___exit____17hdf15d38f37ce8cf0E, symObjAddr: 0x12B6C, symBinAddr: 0x130CC, symSize: 0x1A8 }
  - { offset: 0x22E829, size: 0x8, addend: 0x0, symName: __ZN21django_template_oxide11py_bindings9PyContext21__pymethod___repr____17hb711a0b7f47728b8E, symObjAddr: 0x12D14, symBinAddr: 0x13274, symSize: 0x394 }
  - { offset: 0x2305AC, size: 0x8, addend: 0x0, symName: __ZN21django_template_oxide11py_bindings9PyContext22__pymethod___enter____17h27786943ad7c2f37E, symObjAddr: 0x130A8, symBinAddr: 0x13608, symSize: 0x1B4 }
  - { offset: 0x231408, size: 0x8, addend: 0x0, symName: __ZN21django_template_oxide11py_bindings9PyContext22__pymethod_new_child__17h334d604b36dcd4a8E, symObjAddr: 0x1325C, symBinAddr: 0x137BC, symSize: 0x8F4 }
  - { offset: 0x23358F, size: 0x8, addend: 0x0, symName: __ZN21django_template_oxide11py_bindings9PyContext23__pymethod_get_use_tz__17he579a7470561ad98E, symObjAddr: 0x13B50, symBinAddr: 0x140B0, symSize: 0x160 }
  - { offset: 0x233CD2, size: 0x8, addend: 0x0, symName: __ZN21django_template_oxide11py_bindings9PyContext25__pymethod_get_use_l10n__17h36808856371cf415E, symObjAddr: 0x13CB0, symBinAddr: 0x14210, symSize: 0x160 }
  - { offset: 0x234414, size: 0x8, addend: 0x0, symName: __ZN21django_template_oxide11py_bindings9PyContext27__pymethod_get_autoescape__17h64fa9af01df8be1dE, symObjAddr: 0x13E10, symBinAddr: 0x14370, symSize: 0x144 }
  - { offset: 0x234B84, size: 0x8, addend: 0x0, symName: __ZN21django_template_oxide11py_bindings9PyContext27__pymethod_set_set_use_tz__17hb2f44684aabb9244E, symObjAddr: 0x13F54, symBinAddr: 0x144B4, symSize: 0x1DC }
  - { offset: 0x2352D0, size: 0x8, addend: 0x0, symName: __ZN21django_template_oxide11py_bindings9PyContext29__pymethod_set_set_use_l10n__17h99ea392af50b8bf0E, symObjAddr: 0x14130, symBinAddr: 0x14690, symSize: 0x1DC }
  - { offset: 0x235A1C, size: 0x8, addend: 0x0, symName: __ZN21django_template_oxide11py_bindings9PyContext31__pymethod_set_set_autoescape__17h1277177c11a978c7E, symObjAddr: 0x1430C, symBinAddr: 0x1486C, symSize: 0x19C }
  - { offset: 0x2380DB, size: 0x8, addend: 0x0, symName: __ZN21django_template_oxide4tags11loader_tags12BlockContext10add_blocks17hfb51b07b46aeaeb3E, symObjAddr: 0x163A8, symBinAddr: 0x16908, symSize: 0x288 }
  - { offset: 0x23924B, size: 0x8, addend: 0x0, symName: __ZN21django_template_oxide4tags11loader_tags12BlockContext3pop17h7c595d12cdbf6bd8E, symObjAddr: 0x16630, symBinAddr: 0x16B90, symSize: 0x13C }
  - { offset: 0x239ABD, size: 0x8, addend: 0x0, symName: __ZN21django_template_oxide4tags11loader_tags12BlockContext4push17h9474d6d6a9ce7067E, symObjAddr: 0x1676C, symBinAddr: 0x16CCC, symSize: 0x1F8 }
  - { offset: 0x2430EA, size: 0x8, addend: 0x0, symName: __ZN21django_template_oxide4tags7ForNode11render_body17hf6326f6301f92396E, symObjAddr: 0x2244C, symBinAddr: 0x229AC, symSize: 0x1A20 }
  - { offset: 0x24CAAD, size: 0x8, addend: 0x0, symName: __ZN21django_template_oxide5lexer5Token14split_contents17had63afd8294f09b9E, symObjAddr: 0x28484, symBinAddr: 0x289E4, symSize: 0x794 }
  - { offset: 0x254D95, size: 0x8, addend: 0x0, symName: __ZN21django_template_oxide5nodes8NodeList6render17ha2a80342c4d1eed8E, symObjAddr: 0x316B8, symBinAddr: 0x31C18, symSize: 0x1DC }
  - { offset: 0x25728D, size: 0x8, addend: 0x0, symName: __ZN21django_template_oxide6parser6Parser14compile_filter17hc0993db57f520958E, symObjAddr: 0x32430, symBinAddr: 0x32990, symSize: 0x1978 }
  - { offset: 0x25D909, size: 0x8, addend: 0x0, symName: __ZN21django_template_oxide6parser6Parser15extend_nodelist17h3a2490503808dafcE, symObjAddr: 0x33DA8, symBinAddr: 0x34308, symSize: 0x350 }
  - { offset: 0x25E69D, size: 0x8, addend: 0x0, symName: __ZN21django_template_oxide6parser6Parser18delete_first_token17h00c1fc8080b08c02E, symObjAddr: 0x340F8, symBinAddr: 0x34658, symSize: 0x3C }
  - { offset: 0x25FCF7, size: 0x8, addend: 0x0, symName: __ZN21django_template_oxide6parser6Parser5parse17hb6918efbb33807fdE, symObjAddr: 0x34134, symBinAddr: 0x34694, symSize: 0x10F8 }
  - { offset: 0x265068, size: 0x8, addend: 0x0, symName: __ZN21django_template_oxide7context11BaseContext11with_values17h221753f2ed2dc637E, symObjAddr: 0x3522C, symBinAddr: 0x3578C, symSize: 0xC4 }
  - { offset: 0x265397, size: 0x8, addend: 0x0, symName: __ZN21django_template_oxide7context11BaseContext19get_in_lower_scopes17h2991c089e822ea65E, symObjAddr: 0x352F0, symBinAddr: 0x136EA8, symSize: 0x8C }
  - { offset: 0x265E2B, size: 0x8, addend: 0x0, symName: __ZN21django_template_oxide7context5Value11to_pyobject17ha4b02ef172063d25E, symObjAddr: 0x35644, symBinAddr: 0x35B18, symSize: 0x4E8 }
  - { offset: 0x266FAC, size: 0x8, addend: 0x0, symName: __ZN21django_template_oxide7context7Context3new17hecb7f72b80406218E, symObjAddr: 0x35B2C, symBinAddr: 0x36000, symSize: 0x11C }
  - { offset: 0x26760C, size: 0x8, addend: 0x0, symName: __ZN21django_template_oxide7context7Context3pop17hfd80cdfdf0510f77E, symObjAddr: 0x35C48, symBinAddr: 0x3611C, symSize: 0x360 }
  - { offset: 0x2688E2, size: 0x8, addend: 0x0, symName: __ZN21django_template_oxide7context7Context3set17h87816d4e61232f3bE, symObjAddr: 0x35FA8, symBinAddr: 0x3647C, symSize: 0xAC }
  - { offset: 0x268D30, size: 0x8, addend: 0x0, symName: __ZN21django_template_oxide7context7Context7flatten17h470a0fc5421bfd32E, symObjAddr: 0x36054, symBinAddr: 0x36528, symSize: 0x20C }
  - { offset: 0x2718F3, size: 0x8, addend: 0x0, symName: __ZN21django_template_oxide7smartif8IfParser10expression17ha865785f28ec54baE, symObjAddr: 0x46CC4, symBinAddr: 0x47198, symSize: 0x720 }
  - { offset: 0x274220, size: 0x8, addend: 0x0, symName: __ZN21django_template_oxide8template8Template16compile_nodelist17h99a15a178bb7c48dE, symObjAddr: 0x473E4, symBinAddr: 0x478B8, symSize: 0x1BF8 }
  - { offset: 0x27DB6A, size: 0x8, addend: 0x0, symName: __ZN21django_template_oxide8template8Template3new17h4cbbcf5a7c36d30cE, symObjAddr: 0x48FDC, symBinAddr: 0x494B0, symSize: 0x1E4 }
  - { offset: 0x27E91F, size: 0x8, addend: 0x0, symName: __ZN21django_template_oxide8template8Template6render17ha97586fa98b52c92E, symObjAddr: 0x491C0, symBinAddr: 0x49694, symSize: 0x220 }
  - { offset: 0x27FA15, size: 0x8, addend: 0x0, symName: __ZN21django_template_oxide8variable8Variable3new17h7b895af267ab541dE, symObjAddr: 0x493E0, symBinAddr: 0x498B4, symSize: 0xF88 }
  - { offset: 0x283F24, size: 0x8, addend: 0x0, symName: '__ZN3std3sys12thread_local6native4lazy20Storage$LT$T$C$D$GT$16get_or_init_slow17h78ab81498180f667E', symObjAddr: 0x4A414, symBinAddr: 0x136F34, symSize: 0x130 }
  - { offset: 0x2850BE, size: 0x8, addend: 0x0, symName: '__ZN3std4sync9once_lock17OnceLock$LT$T$GT$10initialize17h44dc351b7d8ba1beE', symObjAddr: 0x4BF88, symBinAddr: 0x137064, symSize: 0x64 }
  - { offset: 0x28524A, size: 0x8, addend: 0x0, symName: '__ZN3std4sync9once_lock17OnceLock$LT$T$GT$10initialize17hcace77aded1b114aE', symObjAddr: 0x4BFEC, symBinAddr: 0x1370C8, symSize: 0x5C }
  - { offset: 0x2852BF, size: 0x8, addend: 0x0, symName: '__ZN3std4sync9once_lock17OnceLock$LT$T$GT$10initialize17hcace77aded1b114aE', symObjAddr: 0x4BFEC, symBinAddr: 0x1370C8, symSize: 0x5C }
  - { offset: 0x2852DC, size: 0x8, addend: 0x0, symName: '__ZN3std4sync9once_lock17OnceLock$LT$T$GT$10initialize17hcace77aded1b114aE', symObjAddr: 0x4BFEC, symBinAddr: 0x1370C8, symSize: 0x5C }
  - { offset: 0x2852FF, size: 0x8, addend: 0x0, symName: '__ZN3std4sync9once_lock17OnceLock$LT$T$GT$10initialize17hcace77aded1b114aE', symObjAddr: 0x4BFEC, symBinAddr: 0x1370C8, symSize: 0x5C }
  - { offset: 0x288695, size: 0x8, addend: 0x0, symName: __ZN4core3str7pattern14TwoWaySearcher4next17h21f48ff76a900776E, symObjAddr: 0x55530, symBinAddr: 0x55538, symSize: 0x19C }
  - { offset: 0x288A15, size: 0x8, addend: 0x0, symName: '__ZN4core4cell4once17OnceCell$LT$T$GT$8try_init17hcfaea5239794e59dE', symObjAddr: 0x556CC, symBinAddr: 0x137400, symSize: 0x88 }
  - { offset: 0x288A56, size: 0x8, addend: 0x0, symName: '__ZN4core4cell4once17OnceCell$LT$T$GT$8try_init17hcfaea5239794e59dE', symObjAddr: 0x556CC, symBinAddr: 0x137400, symSize: 0x88 }
  - { offset: 0x288A78, size: 0x8, addend: 0x0, symName: '__ZN4core4cell4once17OnceCell$LT$T$GT$8try_init17hcfaea5239794e59dE', symObjAddr: 0x556CC, symBinAddr: 0x137400, symSize: 0x88 }
  - { offset: 0x288A94, size: 0x8, addend: 0x0, symName: '__ZN4core4cell4once17OnceCell$LT$T$GT$8try_init17hcfaea5239794e59dE', symObjAddr: 0x556CC, symBinAddr: 0x137400, symSize: 0x88 }
  - { offset: 0x288AAF, size: 0x8, addend: 0x0, symName: '__ZN4core4cell4once17OnceCell$LT$T$GT$8try_init17hcfaea5239794e59dE', symObjAddr: 0x556CC, symBinAddr: 0x137400, symSize: 0x88 }
  - { offset: 0x28946B, size: 0x8, addend: 0x0, symName: '__ZN4pyo312pyclass_init27PyClassInitializer$LT$T$GT$27create_class_object_of_type17h2ec6778fa7090d45E', symObjAddr: 0x58A9C, symBinAddr: 0x58A1C, symSize: 0x12C }
  - { offset: 0x28CD0E, size: 0x8, addend: 0x0, symName: __ZN4pyo35impl_16extract_argument19FunctionDescription13handle_kwargs17h8800fe0694c7ff73E, symObjAddr: 0x5C848, symBinAddr: 0x5C4E4, symSize: 0x428 }
  - { offset: 0x28DC48, size: 0x8, addend: 0x0, symName: __ZN4pyo35impl_16extract_argument19FunctionDescription26extract_arguments_fastcall17h3f107ac330faa145E, symObjAddr: 0x5CC70, symBinAddr: 0x5C90C, symSize: 0x754 }
  - { offset: 0x28EED6, size: 0x8, addend: 0x0, symName: __ZN4pyo35impl_16extract_argument19FunctionDescription28extract_arguments_tuple_dict17h0ce3f7fa3a446284E, symObjAddr: 0x5D3C4, symBinAddr: 0x5D060, symSize: 0x28C }
  - { offset: 0x28F82B, size: 0x8, addend: 0x0, symName: '__ZN4pyo35impl_7pyclass16lazy_type_object23LazyTypeObject$LT$T$GT$8try_init17h089b5e29505552a3E', symObjAddr: 0x5DB00, symBinAddr: 0x13776C, symSize: 0x54 }
  - { offset: 0x28F8CB, size: 0x8, addend: 0x0, symName: '__ZN4pyo35impl_7pyclass16lazy_type_object23LazyTypeObject$LT$T$GT$8try_init17h27a04714a8c84b57E', symObjAddr: 0x5DB54, symBinAddr: 0x1377C0, symSize: 0x54 }
  - { offset: 0x28F96A, size: 0x8, addend: 0x0, symName: '__ZN4pyo35impl_7pyclass16lazy_type_object23LazyTypeObject$LT$T$GT$8try_init17h6ac522eec68441a0E', symObjAddr: 0x5DBA8, symBinAddr: 0x137814, symSize: 0x54 }
  - { offset: 0x28FA0A, size: 0x8, addend: 0x0, symName: '__ZN4pyo35impl_7pyclass16lazy_type_object23LazyTypeObject$LT$T$GT$8try_init17hb71be0061a8b59c5E', symObjAddr: 0x5DBFC, symBinAddr: 0x137868, symSize: 0x54 }
  - { offset: 0x28FEEC, size: 0x8, addend: 0x0, symName: __ZN4pyo35types6module8PyModule6import17h831f3e8cd4a36597E, symObjAddr: 0x5E3F4, symBinAddr: 0x5DF40, symSize: 0x10C }
  - { offset: 0x290289, size: 0x8, addend: 0x0, symName: __ZN4pyo35types6module8PyModule6import17he23855fc5422df29E, symObjAddr: 0x5E500, symBinAddr: 0x5E04C, symSize: 0xF4 }
  - { offset: 0x290476, size: 0x8, addend: 0x0, symName: '__ZN4pyo38instance14Bound$LT$T$GT$4cast17h80b0dc8768d97cf9E', symObjAddr: 0x5E784, symBinAddr: 0x5E140, symSize: 0x124 }
  - { offset: 0x290A2F, size: 0x8, addend: 0x0, symName: '__ZN5alloc2rc15Rc$LT$T$C$A$GT$9drop_slow17he8558a1e7f3ad2a3E', symObjAddr: 0x5EE98, symBinAddr: 0x5E854, symSize: 0x78 }
  - { offset: 0x2918B4, size: 0x8, addend: 0x0, symName: '__ZN5alloc3vec16Vec$LT$T$C$A$GT$8push_mut17hf113edf9f37c4c52E', symObjAddr: 0x5FB68, symBinAddr: 0x5F524, symSize: 0x94 }
  - { offset: 0x291B00, size: 0x8, addend: 0x0, symName: '__ZN5alloc7raw_vec19RawVec$LT$T$C$A$GT$8grow_one17h15320ad7e5806e15E', symObjAddr: 0x5FD54, symBinAddr: 0x137A4C, symSize: 0x68 }
  - { offset: 0x291C8C, size: 0x8, addend: 0x0, symName: '__ZN5alloc7raw_vec19RawVec$LT$T$C$A$GT$8grow_one17h2f3a97fb3c737a08E', symObjAddr: 0x5FDBC, symBinAddr: 0x137AB4, symSize: 0x68 }
  - { offset: 0x291E18, size: 0x8, addend: 0x0, symName: '__ZN5alloc7raw_vec19RawVec$LT$T$C$A$GT$8grow_one17h309ee18a1cc630eaE', symObjAddr: 0x5FE24, symBinAddr: 0x137B1C, symSize: 0x68 }
  - { offset: 0x291FA4, size: 0x8, addend: 0x0, symName: '__ZN5alloc7raw_vec19RawVec$LT$T$C$A$GT$8grow_one17h36be71a83a451c5cE', symObjAddr: 0x5FE8C, symBinAddr: 0x137B84, symSize: 0x68 }
  - { offset: 0x292130, size: 0x8, addend: 0x0, symName: '__ZN5alloc7raw_vec19RawVec$LT$T$C$A$GT$8grow_one17h4dd7c16029819db5E', symObjAddr: 0x5FEF4, symBinAddr: 0x137BEC, symSize: 0x68 }
  - { offset: 0x2922BC, size: 0x8, addend: 0x0, symName: '__ZN5alloc7raw_vec19RawVec$LT$T$C$A$GT$8grow_one17h6805798b1eb86740E', symObjAddr: 0x5FF5C, symBinAddr: 0x137C54, symSize: 0x68 }
  - { offset: 0x292448, size: 0x8, addend: 0x0, symName: '__ZN5alloc7raw_vec19RawVec$LT$T$C$A$GT$8grow_one17h6ccd3eea9a528378E', symObjAddr: 0x5FFC4, symBinAddr: 0x137CBC, symSize: 0x68 }
  - { offset: 0x2925D4, size: 0x8, addend: 0x0, symName: '__ZN5alloc7raw_vec19RawVec$LT$T$C$A$GT$8grow_one17ha20717e80fef3623E', symObjAddr: 0x6002C, symBinAddr: 0x137D24, symSize: 0x68 }
  - { offset: 0x292760, size: 0x8, addend: 0x0, symName: '__ZN5alloc7raw_vec19RawVec$LT$T$C$A$GT$8grow_one17ha2795c5bbfdc3461E', symObjAddr: 0x60094, symBinAddr: 0x137D8C, symSize: 0x68 }
  - { offset: 0x2928EC, size: 0x8, addend: 0x0, symName: '__ZN5alloc7raw_vec19RawVec$LT$T$C$A$GT$8grow_one17hcf417a38fe9d61e8E', symObjAddr: 0x600FC, symBinAddr: 0x137DF4, symSize: 0x68 }
  - { offset: 0x292A78, size: 0x8, addend: 0x0, symName: '__ZN5alloc7raw_vec19RawVec$LT$T$C$A$GT$8grow_one17hebf461b28a28f1f4E', symObjAddr: 0x60164, symBinAddr: 0x137E5C, symSize: 0x68 }
  - { offset: 0x292C04, size: 0x8, addend: 0x0, symName: '__ZN5alloc7raw_vec19RawVec$LT$T$C$A$GT$8grow_one17hf1b857620dc18638E', symObjAddr: 0x601CC, symBinAddr: 0x137EC4, symSize: 0x68 }
  - { offset: 0x292EB7, size: 0x8, addend: 0x0, symName: '__ZN5alloc7raw_vec20RawVecInner$LT$A$GT$11finish_grow17h088c979d54db5fe0E', symObjAddr: 0x60234, symBinAddr: 0x137F2C, symSize: 0x148 }
  - { offset: 0x295D86, size: 0x8, addend: 0x0, symName: '__ZN8indexmap3map25IndexMap$LT$K$C$V$C$S$GT$11insert_full17hff9a8c1e2ca2766aE', symObjAddr: 0x6733C, symBinAddr: 0x66644, symSize: 0x4D0 }
  - { offset: 0x297449, size: 0x8, addend: 0x0, symName: '__ZN8indexmap3map25IndexMap$LT$K$C$V$C$S$GT$12get_index_of17h3996ffdc66aee5ebE', symObjAddr: 0x6780C, symBinAddr: 0x66B14, symSize: 0x1A8 }
  - { offset: 0x297EB3, size: 0x8, addend: 0x0, symName: '__ZN8indexmap3map25IndexMap$LT$K$C$V$C$S$GT$3get17h5818fb5a8bf98ce2E', symObjAddr: 0x679B4, symBinAddr: 0x66CBC, symSize: 0x1C4 }
  - { offset: 0x29CEE8, size: 0x8, addend: 0x0, symName: '__ZN9hashbrown11rustc_entry62_$LT$impl$u20$hashbrown..map..HashMap$LT$K$C$V$C$S$C$A$GT$$GT$11rustc_entry17haa38222d4352fdd8E', symObjAddr: 0x714AC, symBinAddr: 0x707B4, symSize: 0x1B4 }
  - { offset: 0x29D738, size: 0x8, addend: 0x0, symName: '__ZN9hashbrown3map28HashMap$LT$K$C$V$C$S$C$A$GT$12contains_key17h542583fe47118734E', symObjAddr: 0x71660, symBinAddr: 0x70968, symSize: 0x1C8 }
  - { offset: 0x29D76F, size: 0x8, addend: 0x0, symName: '__ZN9hashbrown3map28HashMap$LT$K$C$V$C$S$C$A$GT$12contains_key17h542583fe47118734E', symObjAddr: 0x71660, symBinAddr: 0x70968, symSize: 0x1C8 }
  - { offset: 0x29D78B, size: 0x8, addend: 0x0, symName: '__ZN9hashbrown3map28HashMap$LT$K$C$V$C$S$C$A$GT$12contains_key17h542583fe47118734E', symObjAddr: 0x71660, symBinAddr: 0x70968, symSize: 0x1C8 }
  - { offset: 0x29E062, size: 0x8, addend: 0x0, symName: '__ZN9hashbrown3map28HashMap$LT$K$C$V$C$S$C$A$GT$3get17hfbe80556705e138dE', symObjAddr: 0x71828, symBinAddr: 0x70B30, symSize: 0x1D4 }
  - { offset: 0x29E08B, size: 0x8, addend: 0x0, symName: '__ZN9hashbrown3map28HashMap$LT$K$C$V$C$S$C$A$GT$3get17hfbe80556705e138dE', symObjAddr: 0x71828, symBinAddr: 0x70B30, symSize: 0x1D4 }
  - { offset: 0x29E0A7, size: 0x8, addend: 0x0, symName: '__ZN9hashbrown3map28HashMap$LT$K$C$V$C$S$C$A$GT$3get17hfbe80556705e138dE', symObjAddr: 0x71828, symBinAddr: 0x70B30, symSize: 0x1D4 }
  - { offset: 0x29ECE8, size: 0x8, addend: 0x0, symName: '__ZN9hashbrown3map28HashMap$LT$K$C$V$C$S$C$A$GT$6insert17h0362082269cdca7dE', symObjAddr: 0x719FC, symBinAddr: 0x70D04, symSize: 0x288 }
  - { offset: 0x29FC9A, size: 0x8, addend: 0x0, symName: '__ZN9hashbrown3map28HashMap$LT$K$C$V$C$S$C$A$GT$6insert17h273e459b83248df8E', symObjAddr: 0x71C84, symBinAddr: 0x70F8C, symSize: 0x22C }
  - { offset: 0x2A0C3F, size: 0x8, addend: 0x0, symName: '__ZN9hashbrown3map28HashMap$LT$K$C$V$C$S$C$A$GT$6insert17h46cd11ebbff041c0E', symObjAddr: 0x71EB0, symBinAddr: 0x711B8, symSize: 0x250 }
  - { offset: 0x2A1BF0, size: 0x8, addend: 0x0, symName: '__ZN9hashbrown3map28HashMap$LT$K$C$V$C$S$C$A$GT$6insert17h4b6b2325bce117aaE', symObjAddr: 0x72100, symBinAddr: 0x71408, symSize: 0x2B0 }
  - { offset: 0x2A2C6F, size: 0x8, addend: 0x0, symName: '__ZN9hashbrown3map28HashMap$LT$K$C$V$C$S$C$A$GT$6insert17h61a8a7830a25add9E', symObjAddr: 0x723B0, symBinAddr: 0x716B8, symSize: 0x2D8 }
  - { offset: 0x2A3A3B, size: 0x8, addend: 0x0, symName: '__ZN9hashbrown3map28HashMap$LT$K$C$V$C$S$C$A$GT$6insert17h9c21971c3d53473bE', symObjAddr: 0x72688, symBinAddr: 0x71990, symSize: 0x394 }
  - { offset: 0x2A4D29, size: 0x8, addend: 0x0, symName: '__ZN9hashbrown3map28HashMap$LT$K$C$V$C$S$C$A$GT$6insert17hfb466b5af7344c4cE', symObjAddr: 0x72A1C, symBinAddr: 0x71D24, symSize: 0x298 }
  - { offset: 0x2A5C25, size: 0x8, addend: 0x0, symName: __ZN9hashbrown3raw13RawTableInner15rehash_in_place17h44ed7b510f9ef305E, symObjAddr: 0x72CB4, symBinAddr: 0x71FBC, symSize: 0x26C }
  - { offset: 0x2A6761, size: 0x8, addend: 0x0, symName: __ZN9hashbrown3raw13RawTableInner22fallible_with_capacity17h0f4890da48a917b6E, symObjAddr: 0x72F20, symBinAddr: 0x72228, symSize: 0x17C }
  - { offset: 0x2A7213, size: 0x8, addend: 0x0, symName: '__ZN9hashbrown3raw21RawTable$LT$T$C$A$GT$14reserve_rehash17h26deab1091b4a0f8E', symObjAddr: 0x7309C, symBinAddr: 0x138100, symSize: 0x46C }
  - { offset: 0x2A89FE, size: 0x8, addend: 0x0, symName: '__ZN9hashbrown3raw21RawTable$LT$T$C$A$GT$14reserve_rehash17h336dd4edb1ec84a5E', symObjAddr: 0x73508, symBinAddr: 0x13856C, symSize: 0x41C }
  - { offset: 0x2AAC2F, size: 0x8, addend: 0x0, symName: '__ZN9hashbrown3raw21RawTable$LT$T$C$A$GT$14reserve_rehash17h550eb99308c1f75bE', symObjAddr: 0x73924, symBinAddr: 0x138988, symSize: 0x564 }
  - { offset: 0x2ACAF3, size: 0x8, addend: 0x0, symName: '__ZN9hashbrown3raw21RawTable$LT$T$C$A$GT$14reserve_rehash17h5761319f9e63a71cE', symObjAddr: 0x73E88, symBinAddr: 0x138EEC, symSize: 0x2BC }
  - { offset: 0x2ADC93, size: 0x8, addend: 0x0, symName: '__ZN9hashbrown3raw21RawTable$LT$T$C$A$GT$14reserve_rehash17h6f11176253c06e0cE', symObjAddr: 0x74144, symBinAddr: 0x1391A8, symSize: 0x42C }
  - { offset: 0x2AF476, size: 0x8, addend: 0x0, symName: '__ZN9hashbrown3raw21RawTable$LT$T$C$A$GT$14reserve_rehash17h87cbfff82877d44dE', symObjAddr: 0x74570, symBinAddr: 0x1395D4, symSize: 0x400 }
  - { offset: 0x2B0C6A, size: 0x8, addend: 0x0, symName: '__ZN9hashbrown3raw21RawTable$LT$T$C$A$GT$14reserve_rehash17h93d038b9e7a37b7aE', symObjAddr: 0x74970, symBinAddr: 0x1399D4, symSize: 0x428 }
  - { offset: 0x2B2450, size: 0x8, addend: 0x0, symName: '__ZN9hashbrown3raw21RawTable$LT$T$C$A$GT$14reserve_rehash17hb743644588f65173E', symObjAddr: 0x74D98, symBinAddr: 0x139DFC, symSize: 0x41C }
  - { offset: 0x2B3C25, size: 0x8, addend: 0x0, symName: '__ZN9hashbrown3raw21RawTable$LT$T$C$A$GT$14reserve_rehash17hd29e52ddd6d5e4f3E', symObjAddr: 0x751B4, symBinAddr: 0x13A218, symSize: 0x428 }
  - { offset: 0x2B540B, size: 0x8, addend: 0x0, symName: '__ZN9hashbrown3raw21RawTable$LT$T$C$A$GT$14reserve_rehash17he268c60b4999071cE', symObjAddr: 0x755DC, symBinAddr: 0x13A640, symSize: 0x41C }
  - { offset: 0x2B6BDE, size: 0x8, addend: 0x0, symName: '__ZN9hashbrown3raw21RawTable$LT$T$C$A$GT$14reserve_rehash17hf4882bacdd1cfc97E', symObjAddr: 0x759F8, symBinAddr: 0x13AA5C, symSize: 0x3F0 }
  - { offset: 0x2B83FE, size: 0x8, addend: 0x0, symName: '__ZN9once_cell3imp17OnceCell$LT$T$GT$10initialize17h0a5c1a99b6914d5bE', symObjAddr: 0x75EA4, symBinAddr: 0x13AE4C, symSize: 0x44 }
  - { offset: 0x2B84DC, size: 0x8, addend: 0x0, symName: '__ZN9once_cell3imp17OnceCell$LT$T$GT$10initialize17h16c2d26e65c6bb3cE', symObjAddr: 0x75EE8, symBinAddr: 0x13AE90, symSize: 0xBC }
  - { offset: 0x2B885A, size: 0x8, addend: 0x0, symName: '__ZN9once_cell3imp17OnceCell$LT$T$GT$10initialize17hb006b3c4e1cccf00E', symObjAddr: 0x75FA4, symBinAddr: 0x13AF4C, symSize: 0xBC }
  - { offset: 0x2B8BD8, size: 0x8, addend: 0x0, symName: '__ZN9once_cell3imp17OnceCell$LT$T$GT$10initialize17he5c0c33d6f0d414aE', symObjAddr: 0x76060, symBinAddr: 0x13B008, symSize: 0xBC }
  - { offset: 0x2B8F56, size: 0x8, addend: 0x0, symName: '__ZN9once_cell3imp17OnceCell$LT$T$GT$10initialize17hf95fc079ad70c529E', symObjAddr: 0x7611C, symBinAddr: 0x13B0C4, symSize: 0xE8 }
  - { offset: 0x2B9625, size: 0x8, addend: 0x0, symName: _OUTLINED_FUNCTION_34, symObjAddr: 0x149F58, symBinAddr: 0x136AFC, symSize: 0xC }
  - { offset: 0x63B2C8, size: 0x8, addend: 0x0, symName: __ZN3std3sys3pal4unix4sync5mutex5Mutex4init17hf94936681caac3c3E, symObjAddr: 0x126D44, symBinAddr: 0x117024, symSize: 0x168 }
  - { offset: 0x63B37B, size: 0x8, addend: 0x0, symName: __ZN3std3sys3pal4unix4sync5mutex5Mutex4lock4fail17h27fd9fd3f29feaf0E, symObjAddr: 0x126A70, symBinAddr: 0x147000, symSize: 0xBC }
  - { offset: 0x63B776, size: 0x8, addend: 0x0, symName: __ZN3std3sys3pal4unix14abort_internal17h9d0d3f88703c956aE, symObjAddr: 0x147854, symBinAddr: 0x14A218, symSize: 0xC }
  - { offset: 0x63B80D, size: 0x8, addend: 0x0, symName: __ZN3std3sys12thread_local5guard5apple6enable9run_dtors17h69ff88f474eb0fc5E, symObjAddr: 0x147574, symBinAddr: 0x134898, symSize: 0xE8 }
  - { offset: 0x63BC9F, size: 0x8, addend: 0x0, symName: __ZN3std3sys12thread_local11destructors4list8register17h3abdc15219a0ccf3E, symObjAddr: 0x147480, symBinAddr: 0x1347A4, symSize: 0xF4 }
  - { offset: 0x63BFFB, size: 0x8, addend: 0x0, symName: '__ZN64_$LT$std..sys..stdio..unix..Stderr$u20$as$u20$std..io..Write$GT$5write17h5e96bf46774afa4bE', symObjAddr: 0x147198, symBinAddr: 0x1344BC, symSize: 0x54 }
  - { offset: 0x63C0CE, size: 0x8, addend: 0x0, symName: '__ZN64_$LT$std..sys..stdio..unix..Stderr$u20$as$u20$std..io..Write$GT$14write_vectored17h1dfb115413d1abd0E', symObjAddr: 0x1471EC, symBinAddr: 0x134510, symSize: 0x54 }
  - { offset: 0x63C1A2, size: 0x8, addend: 0x0, symName: '__ZN64_$LT$std..sys..stdio..unix..Stderr$u20$as$u20$std..io..Write$GT$17is_write_vectored17hc3c95e157df71f2eE', symObjAddr: 0x147240, symBinAddr: 0x134564, symSize: 0x8 }
  - { offset: 0x63C1BC, size: 0x8, addend: 0x0, symName: '__ZN64_$LT$std..sys..stdio..unix..Stderr$u20$as$u20$std..io..Write$GT$5flush17hba49253999847814E', symObjAddr: 0x147248, symBinAddr: 0x13456C, symSize: 0x8 }
  - { offset: 0x63C308, size: 0x8, addend: 0x0, symName: __ZN3std3sys4sync6rwlock5queue6RwLock12unlock_queue17h748b73aedc25d007E, symObjAddr: 0x125ED4, symBinAddr: 0x1164E4, symSize: 0x1B8 }
  - { offset: 0x63C98D, size: 0x8, addend: 0x0, symName: __ZN3std3sys4sync6rwlock5queue6RwLock21read_unlock_contended17hb6fd5aa1819f6bd0E, symObjAddr: 0x14777C, symBinAddr: 0x14A198, symSize: 0x40 }
  - { offset: 0x63C9AB, size: 0x8, addend: 0x0, symName: __ZN3std3sys4sync6rwlock5queue6RwLock21read_unlock_contended17hb6fd5aa1819f6bd0E, symObjAddr: 0x14777C, symBinAddr: 0x14A198, symSize: 0x40 }
  - { offset: 0x63C9C0, size: 0x8, addend: 0x0, symName: __ZN3std3sys4sync6rwlock5queue6RwLock21read_unlock_contended17hb6fd5aa1819f6bd0E, symObjAddr: 0x14777C, symBinAddr: 0x14A198, symSize: 0x40 }
  - { offset: 0x63CAFC, size: 0x8, addend: 0x0, symName: __ZN3std3sys4sync6rwlock5queue6RwLock16unlock_contended17he7ce9de1643dcbc4E, symObjAddr: 0x147814, symBinAddr: 0x14A1D8, symSize: 0x40 }
  - { offset: 0x63CC87, size: 0x8, addend: 0x0, symName: '__ZN83_$LT$std..sys..sync..rwlock..queue..PanicGuard$u20$as$u20$core..ops..drop..Drop$GT$4drop17h8a72ff712470b11eE', symObjAddr: 0x12608C, symBinAddr: 0x146D8C, symSize: 0x28 }
  - { offset: 0x63CCDC, size: 0x8, addend: 0x0, symName: '__ZN82_$LT$std..sys..sync..once..queue..WaiterQueue$u20$as$u20$core..ops..drop..Drop$GT$4drop17hecfff6284036590bE', symObjAddr: 0x149704, symBinAddr: 0x13648C, symSize: 0xD8 }
  - { offset: 0x63CEAE, size: 0x8, addend: 0x0, symName: __ZN3std3sys4sync4once5queue4Once4call17hc3cb84e2dfd92ad0E, symObjAddr: 0x1493AC, symBinAddr: 0x14A398, symSize: 0x1E8 }
  - { offset: 0x63D148, size: 0x8, addend: 0x0, symName: __ZN3std3sys4sync4once5queue4wait17h9062e2d37e9dc0d7E, symObjAddr: 0x149594, symBinAddr: 0x13631C, symSize: 0x170 }
  - { offset: 0x63D685, size: 0x8, addend: 0x0, symName: __ZN3std3sys9backtrace4lock17h495d8d49f62939aaE, symObjAddr: 0x127CB8, symBinAddr: 0x117F70, symSize: 0x68 }
  - { offset: 0x63D7EA, size: 0x8, addend: 0x0, symName: '__ZN98_$LT$std..sys..backtrace..BacktraceLock..print..DisplayBacktrace$u20$as$u20$core..fmt..Display$GT$3fmt17hbeea7a819b623c65E', symObjAddr: 0x1280B0, symBinAddr: 0x118368, symSize: 0x2EC }
  - { offset: 0x63E40A, size: 0x8, addend: 0x0, symName: '__ZN3std3sys9backtrace10_print_fmt28_$u7b$$u7b$closure$u7d$$u7d$17hb5bdc4957bce0fcfE', symObjAddr: 0x128404, symBinAddr: 0x11869C, symSize: 0x2744 }
  - { offset: 0x6449B2, size: 0x8, addend: 0x0, symName: '__ZN3std3sys9backtrace10_print_fmt28_$u7b$$u7b$closure$u7d$$u7d$28_$u7b$$u7b$closure$u7d$$u7d$17hd70ad3dad3287948E', symObjAddr: 0x146014, symBinAddr: 0x133358, symSize: 0x244 }
  - { offset: 0x644BD5, size: 0x8, addend: 0x0, symName: '__ZN3std3sys9backtrace10_print_fmt28_$u7b$$u7b$closure$u7d$$u7d$17h3eed6b308b6ef3c3E', symObjAddr: 0x146758, symBinAddr: 0x133A9C, symSize: 0x24 }
  - { offset: 0x644BFE, size: 0x8, addend: 0x0, symName: __ZN3std3sys9backtrace15output_filename17hd1e4e29bcc40a7e5E, symObjAddr: 0x14677C, symBinAddr: 0x133AC0, symSize: 0x3AC }
  - { offset: 0x644EEA, size: 0x8, addend: 0x0, symName: __ZN3std3sys9backtrace26__rust_end_short_backtrace17hbd8bf96e4ee54567E, symObjAddr: 0x148964, symBinAddr: 0x135914, symSize: 0xC }
  - { offset: 0x644F04, size: 0x8, addend: 0x0, symName: __ZN3std3sys9backtrace26__rust_end_short_backtrace17hd0ebba2ea28c8fdaE, symObjAddr: 0x148F1C, symBinAddr: 0x14A37C, symSize: 0xC }
  - { offset: 0x644F44, size: 0x8, addend: 0x0, symName: _rust_eh_personality, symObjAddr: 0x1254E4, symBinAddr: 0x115BE8, symSize: 0x344 }
  - { offset: 0x64530F, size: 0x8, addend: 0x0, symName: '__ZN3std3sys11personality3gcc14find_eh_action28_$u7b$$u7b$closure$u7d$$u7d$17h73cb4bcf8a3dd329E', symObjAddr: 0x148820, symBinAddr: 0x1357D0, symSize: 0xC }
  - { offset: 0x645331, size: 0x8, addend: 0x0, symName: '__ZN3std3sys11personality3gcc14find_eh_action28_$u7b$$u7b$closure$u7d$$u7d$17h3d1279e8159cfdf3E', symObjAddr: 0x148838, symBinAddr: 0x1357E8, symSize: 0xC }
  - { offset: 0x645384, size: 0x8, addend: 0x0, symName: __ZN3std3sys11personality5dwarf2eh19read_encoded_offset17h87b06c5a3076dfe8E, symObjAddr: 0x1486CC, symBinAddr: 0x13567C, symSize: 0x148 }
  - { offset: 0x645627, size: 0x8, addend: 0x0, symName: __ZN3std3sys7helpers14small_c_string24run_with_cstr_allocating17h2460fb7524d8e978E, symObjAddr: 0x13CF04, symBinAddr: 0x149C8C, symSize: 0xA4 }
  - { offset: 0x6456FF, size: 0x8, addend: 0x0, symName: __ZN3std3sys7helpers14small_c_string24run_with_cstr_allocating17h13f241f78bd1aa0fE, symObjAddr: 0x145E2C, symBinAddr: 0x149FA0, symSize: 0xB8 }
  - { offset: 0x645AC1, size: 0x8, addend: 0x0, symName: __ZN3std3sys2fs4unix4File6open_c17h0466f5a622c2e68fE, symObjAddr: 0x145C94, symBinAddr: 0x133090, symSize: 0x198 }
  - { offset: 0x645C13, size: 0x8, addend: 0x0, symName: '__ZN71_$LT$std..sys..fs..unix..DirStream$u20$as$u20$core..ops..drop..Drop$GT$4drop17hf42a3659fe80ec27E', symObjAddr: 0x13CE54, symBinAddr: 0x12A564, symSize: 0xB0 }
  - { offset: 0x645CC8, size: 0x8, addend: 0x0, symName: __ZN3std3sys2fs8read_dir17ha353ee9b9b706035E, symObjAddr: 0x12E83C, symBinAddr: 0x11EA6C, symSize: 0x24C }
  - { offset: 0x6460F8, size: 0x8, addend: 0x0, symName: __ZN3std3sys6random19hashmap_random_keys17h8d42fafffd67301dE, symObjAddr: 0x149A90, symBinAddr: 0x136818, symSize: 0x5C }
  - { offset: 0x6461F7, size: 0x8, addend: 0x0, symName: __RNvCs1Y7DaGC1cwg_7___rustc26___rust_alloc_error_handler, symObjAddr: 0x148EF8, symBinAddr: 0x14A358, symSize: 0x18 }
  - { offset: 0x646213, size: 0x8, addend: 0x0, symName: __ZN3std5alloc8rust_oom17h01e17934033662bdE, symObjAddr: 0x148F10, symBinAddr: 0x14A370, symSize: 0xC }
  - { offset: 0x646233, size: 0x8, addend: 0x0, symName: '__ZN3std5alloc8rust_oom28_$u7b$$u7b$closure$u7d$$u7d$17h595b3d07c5ad9c69E', symObjAddr: 0x148F28, symBinAddr: 0x14A388, symSize: 0x10 }
  - { offset: 0x64624F, size: 0x8, addend: 0x0, symName: __ZN3std5alloc24default_alloc_error_hook17h5aee8ad0f1e6bb33E, symObjAddr: 0x148F38, symBinAddr: 0x135EA8, symSize: 0xE8 }
  - { offset: 0x6463BF, size: 0x8, addend: 0x0, symName: '__ZN3std6thread7current17with_current_name28_$u7b$$u7b$closure$u7d$$u7d$17h52cf6d274de52f4dE', symObjAddr: 0x127D20, symBinAddr: 0x117FD8, symSize: 0x390 }
  - { offset: 0x646E7D, size: 0x8, addend: 0x0, symName: __ZN3std6thread7current12init_current17hefc330fd1d3ddbbaE, symObjAddr: 0x147B7C, symBinAddr: 0x14A224, symSize: 0x134 }
  - { offset: 0x6471AA, size: 0x8, addend: 0x0, symName: __ZN3std6thread6thread6Thread3new17h1b33bfb19256fc2cE, symObjAddr: 0x147CB0, symBinAddr: 0x134CF4, symSize: 0x21C }
  - { offset: 0x647702, size: 0x8, addend: 0x0, symName: '__ZN76_$LT$std..thread..functions..PanicGuard$u20$as$u20$core..ops..drop..Drop$GT$4drop17h0d0d46041c325962E', symObjAddr: 0x149C9C, symBinAddr: 0x14A678, symSize: 0x28 }
  - { offset: 0x6477BB, size: 0x8, addend: 0x0, symName: '__ZN68_$LT$std..thread..local..AccessError$u20$as$u20$core..fmt..Debug$GT$3fmt17h059423669edbf4f4E', symObjAddr: 0x149020, symBinAddr: 0x135F90, symSize: 0x18 }
  - { offset: 0x6477D9, size: 0x8, addend: 0x0, symName: '__ZN68_$LT$std..thread..local..AccessError$u20$as$u20$core..fmt..Debug$GT$3fmt17h059423669edbf4f4E', symObjAddr: 0x149020, symBinAddr: 0x135F90, symSize: 0x18 }
  - { offset: 0x6477EE, size: 0x8, addend: 0x0, symName: '__ZN68_$LT$std..thread..local..AccessError$u20$as$u20$core..fmt..Debug$GT$3fmt17h059423669edbf4f4E', symObjAddr: 0x149020, symBinAddr: 0x135F90, symSize: 0x18 }
  - { offset: 0x647803, size: 0x8, addend: 0x0, symName: '__ZN68_$LT$std..thread..local..AccessError$u20$as$u20$core..fmt..Debug$GT$3fmt17h059423669edbf4f4E', symObjAddr: 0x149020, symBinAddr: 0x135F90, symSize: 0x18 }
  - { offset: 0x647818, size: 0x8, addend: 0x0, symName: __ZN3std6thread5local18panic_access_error17hebb7068053c3bb3bE, symObjAddr: 0x149C68, symBinAddr: 0x14A644, symSize: 0x34 }
  - { offset: 0x647857, size: 0x8, addend: 0x0, symName: __ZN3std6thread2id8ThreadId3new9exhausted17h06e90dbe4cc0d83cE, symObjAddr: 0x146E50, symBinAddr: 0x14A058, symSize: 0x20 }
  - { offset: 0x6478CA, size: 0x8, addend: 0x0, symName: __ZN3std2io5error5Error3new17h311cf880a0f7d574E, symObjAddr: 0x145EE4, symBinAddr: 0x133228, symSize: 0xD4 }
  - { offset: 0x647D77, size: 0x8, addend: 0x0, symName: '__ZN60_$LT$std..io..error..Error$u20$as$u20$core..fmt..Display$GT$3fmt17hf61de93af5dc52bcE', symObjAddr: 0x126B2C, symBinAddr: 0x116E0C, symSize: 0x218 }
  - { offset: 0x6481E5, size: 0x8, addend: 0x0, symName: '__ZN62_$LT$std..io..error..ErrorKind$u20$as$u20$core..fmt..Debug$GT$3fmt17h1b87b50d1e7ac6f3E', symObjAddr: 0x127B7C, symBinAddr: 0x117E34, symSize: 0x30 }
  - { offset: 0x648214, size: 0x8, addend: 0x0, symName: '__ZN58_$LT$std..io..error..Error$u20$as$u20$core..fmt..Debug$GT$3fmt17h4f9296e90cd4afe5E', symObjAddr: 0x127028, symBinAddr: 0x1172E0, symSize: 0xB54 }
  - { offset: 0x649563, size: 0x8, addend: 0x0, symName: __ZN3std2io5Write9write_fmt17hdd87f23e14dc5d26E, symObjAddr: 0x126114, symBinAddr: 0x1166FC, symSize: 0x100 }
  - { offset: 0x6498F6, size: 0x8, addend: 0x0, symName: __ZN3std2io5Write9write_all17hb0ca647d4a285b11E, symObjAddr: 0x147250, symBinAddr: 0x134574, symSize: 0xAC }
  - { offset: 0x6499B8, size: 0x8, addend: 0x0, symName: __ZN3std2io5Write18write_all_vectored17h421707584f7f4b95E, symObjAddr: 0x1472FC, symBinAddr: 0x134620, symSize: 0x184 }
  - { offset: 0x649C6D, size: 0x8, addend: 0x0, symName: '__ZN81_$LT$std..io..default_write_fmt..Adapter$LT$T$GT$$u20$as$u20$core..fmt..Write$GT$9write_str17h4a2efdcbebafcd88E', symObjAddr: 0x146F04, symBinAddr: 0x134228, symSize: 0xF4 }
  - { offset: 0x64A0CD, size: 0x8, addend: 0x0, symName: '__ZN81_$LT$std..io..default_write_fmt..Adapter$LT$T$GT$$u20$as$u20$core..fmt..Write$GT$9write_str17hacd329136046d3fcE', symObjAddr: 0x147860, symBinAddr: 0x1349D8, symSize: 0x13C }
  - { offset: 0x64A4CA, size: 0x8, addend: 0x0, symName: '__ZN81_$LT$std..io..default_write_fmt..Adapter$LT$T$GT$$u20$as$u20$core..fmt..Write$GT$9write_str17h30646592fed809f2E', symObjAddr: 0x14913C, symBinAddr: 0x1360AC, symSize: 0xBC }
  - { offset: 0x64A896, size: 0x8, addend: 0x0, symName: '__ZN61_$LT$std..io..stdio..StderrLock$u20$as$u20$std..io..Write$GT$9write_all17h53bad3e6d565d56fE', symObjAddr: 0x149038, symBinAddr: 0x135FA8, symSize: 0x104 }
  - { offset: 0x64AB58, size: 0x8, addend: 0x0, symName: __ZN3std2io5stdio7_eprint17h51dcc255cdd7ed50E, symObjAddr: 0x1497DC, symBinAddr: 0x136564, symSize: 0x2B4 }
  - { offset: 0x64B3D7, size: 0x8, addend: 0x0, symName: __ZN3std9panicking11panic_count17is_zero_slow_path17hbe4f1645e48c7385E, symObjAddr: 0x1267DC, symBinAddr: 0x146E00, symSize: 0x2C }
  - { offset: 0x64B4E7, size: 0x8, addend: 0x0, symName: __ZN3std9panicking15panic_with_hook17h657ee82e431041f8E, symObjAddr: 0x125828, symBinAddr: 0x115F2C, symSize: 0x54C }
  - { offset: 0x64BFC3, size: 0x8, addend: 0x0, symName: __RNvCs1Y7DaGC1cwg_7___rustc10rust_panic, symObjAddr: 0x1262B4, symBinAddr: 0x146DC0, symSize: 0x40 }
  - { offset: 0x64BFFF, size: 0x8, addend: 0x0, symName: __ZN3std9panicking12catch_unwind7cleanup17h3fef8c9a7d337a30E, symObjAddr: 0x149CC4, symBinAddr: 0x14A6A0, symSize: 0x90 }
  - { offset: 0x64C21C, size: 0x8, addend: 0x0, symName: __RNvCs1Y7DaGC1cwg_7___rustc17___rust_drop_panic, symObjAddr: 0x148844, symBinAddr: 0x1357F4, symSize: 0x100 }
  - { offset: 0x64C642, size: 0x8, addend: 0x0, symName: __RNvCs1Y7DaGC1cwg_7___rustc17rust_begin_unwind, symObjAddr: 0x148944, symBinAddr: 0x1358F4, symSize: 0x20 }
  - { offset: 0x64C678, size: 0x8, addend: 0x0, symName: '__ZN3std9panicking13panic_handler28_$u7b$$u7b$closure$u7d$$u7d$17hd0ef6f87b4fd1427E', symObjAddr: 0x148970, symBinAddr: 0x135920, symSize: 0x98 }
  - { offset: 0x64C81A, size: 0x8, addend: 0x0, symName: '__ZN89_$LT$std..panicking..panic_handler..FormatStringPayload$u20$as$u20$core..fmt..Display$GT$3fmt17h0573058d1c89f351E', symObjAddr: 0x148A20, symBinAddr: 0x1359D0, symSize: 0x38 }
  - { offset: 0x64C958, size: 0x8, addend: 0x0, symName: '__ZN96_$LT$std..panicking..panic_handler..FormatStringPayload$u20$as$u20$core..panic..PanicPayload$GT$8take_box17hdd86d722c4344985E', symObjAddr: 0x148A58, symBinAddr: 0x135A08, symSize: 0xE4 }
  - { offset: 0x64CBD6, size: 0x8, addend: 0x0, symName: '__ZN96_$LT$std..panicking..panic_handler..FormatStringPayload$u20$as$u20$core..panic..PanicPayload$GT$3get17h16106ceab7e9e590E', symObjAddr: 0x148B3C, symBinAddr: 0x135AEC, symSize: 0x9C }
  - { offset: 0x64CD63, size: 0x8, addend: 0x0, symName: '__ZN86_$LT$std..panicking..panic_handler..StaticStrPayload$u20$as$u20$core..fmt..Display$GT$3fmt17ha7b4dbdc309b292aE', symObjAddr: 0x148D8C, symBinAddr: 0x135D3C, symSize: 0x14 }
  - { offset: 0x64CD9A, size: 0x8, addend: 0x0, symName: '__ZN93_$LT$std..panicking..panic_handler..StaticStrPayload$u20$as$u20$core..panic..PanicPayload$GT$8take_box17he6f6fdc077471527E', symObjAddr: 0x148DA0, symBinAddr: 0x135D50, symSize: 0x40 }
  - { offset: 0x64CE53, size: 0x8, addend: 0x0, symName: '__ZN93_$LT$std..panicking..panic_handler..StaticStrPayload$u20$as$u20$core..panic..PanicPayload$GT$3get17h62868b121f1a99c0E', symObjAddr: 0x148DE0, symBinAddr: 0x135D90, symSize: 0xC }
  - { offset: 0x64CE6E, size: 0x8, addend: 0x0, symName: '__ZN93_$LT$std..panicking..panic_handler..StaticStrPayload$u20$as$u20$core..panic..PanicPayload$GT$6as_str17hb0b1f0179ac70d2bE', symObjAddr: 0x148DEC, symBinAddr: 0x135D9C, symSize: 0xC }
  - { offset: 0x64CE8B, size: 0x8, addend: 0x0, symName: __RNvCs1Y7DaGC1cwg_7___rustc24___rust_foreign_exception, symObjAddr: 0x148DF8, symBinAddr: 0x135DA8, symSize: 0x100 }
  - { offset: 0x64D2B1, size: 0x8, addend: 0x0, symName: __ZN3std9panicking13resume_unwind17h031b414ab28ec741E, symObjAddr: 0x149AF8, symBinAddr: 0x14A58C, symSize: 0xB8 }
  - { offset: 0x64D581, size: 0x8, addend: 0x0, symName: '__ZN79_$LT$std..panicking..resume_unwind..RewrapBox$u20$as$u20$core..fmt..Display$GT$3fmt17head2d32346e81b0dE', symObjAddr: 0x149C14, symBinAddr: 0x1368D8, symSize: 0x18 }
  - { offset: 0x64D5B8, size: 0x8, addend: 0x0, symName: '__ZN86_$LT$std..panicking..resume_unwind..RewrapBox$u20$as$u20$core..panic..PanicPayload$GT$8take_box17hf076e59c669d3be5E', symObjAddr: 0x149C2C, symBinAddr: 0x1368F0, symSize: 0x1C }
  - { offset: 0x64D5D6, size: 0x8, addend: 0x0, symName: '__ZN86_$LT$std..panicking..resume_unwind..RewrapBox$u20$as$u20$core..panic..PanicPayload$GT$8take_box17hf076e59c669d3be5E', symObjAddr: 0x149C2C, symBinAddr: 0x1368F0, symSize: 0x1C }
  - { offset: 0x64D5E9, size: 0x8, addend: 0x0, symName: '__ZN86_$LT$std..panicking..resume_unwind..RewrapBox$u20$as$u20$core..panic..PanicPayload$GT$3get17ha454b28cbcaab719E', symObjAddr: 0x149C48, symBinAddr: 0x13690C, symSize: 0xC }
  - { offset: 0x64D772, size: 0x8, addend: 0x0, symName: __ZN3std5panic19get_backtrace_style17h7eb4927f404d6282E, symObjAddr: 0x1262F4, symBinAddr: 0x116890, symSize: 0x4E8 }
  - { offset: 0x64E97C, size: 0x8, addend: 0x0, symName: __ZN3std5panic13resume_unwind17h77dd1fc5a43b371aE, symObjAddr: 0x149AEC, symBinAddr: 0x14A580, symSize: 0xC }
  - { offset: 0x64E99E, size: 0x8, addend: 0x0, symName: __ZN3std7process5abort17hd520a7101c5fdc83E, symObjAddr: 0x1262A8, symBinAddr: 0x146DB4, symSize: 0xC }
  - { offset: 0x64EBA2, size: 0x8, addend: 0x0, symName: __ZN3std12backtrace_rs5print17BacktraceFrameFmt21print_raw_with_column17h72538a2b7bead287E, symObjAddr: 0x12AB48, symBinAddr: 0x11ADE0, symSize: 0x380 }
  - { offset: 0x64EE69, size: 0x8, addend: 0x0, symName: __ZN3std12backtrace_rs9backtrace9libunwind5trace8trace_fn17h73fe0b2dd7d7e016E, symObjAddr: 0x12839C, symBinAddr: 0x118654, symSize: 0x44 }
  - { offset: 0x64F0CE, size: 0x8, addend: 0x0, symName: __ZN3std12backtrace_rs9symbolize5gimli5macho6Object5parse17hfeb86c29413e7775E, symObjAddr: 0x12BDB4, symBinAddr: 0x11BFE4, symSize: 0xCA0 }
  - { offset: 0x6510FB, size: 0x8, addend: 0x0, symName: __ZN3std12backtrace_rs9symbolize5gimli5macho6Object7section17he8d0fb77ef28a235E, symObjAddr: 0x13D000, symBinAddr: 0x12A66C, symSize: 0x154 }
  - { offset: 0x6514EF, size: 0x8, addend: 0x0, symName: __ZN3std12backtrace_rs9symbolize5gimli5macho11find_header17hb81c5e0965dadc43E, symObjAddr: 0x12B52C, symBinAddr: 0x11B75C, symSize: 0x1E4 }
  - { offset: 0x65150C, size: 0x8, addend: 0x0, symName: __ZN3std12backtrace_rs9symbolize5gimli5macho11find_header17hb81c5e0965dadc43E, symObjAddr: 0x12B52C, symBinAddr: 0x11B75C, symSize: 0x1E4 }
  - { offset: 0x651520, size: 0x8, addend: 0x0, symName: __ZN3std12backtrace_rs9symbolize5gimli5macho11find_header17hb81c5e0965dadc43E, symObjAddr: 0x12B52C, symBinAddr: 0x11B75C, symSize: 0x1E4 }
  - { offset: 0x651534, size: 0x8, addend: 0x0, symName: __ZN3std12backtrace_rs9symbolize5gimli5macho11find_header17hb81c5e0965dadc43E, symObjAddr: 0x12B52C, symBinAddr: 0x11B75C, symSize: 0x1E4 }
  - { offset: 0x651548, size: 0x8, addend: 0x0, symName: __ZN3std12backtrace_rs9symbolize5gimli5macho11find_header17hb81c5e0965dadc43E, symObjAddr: 0x12B52C, symBinAddr: 0x11B75C, symSize: 0x1E4 }
  - { offset: 0x65155D, size: 0x8, addend: 0x0, symName: __ZN3std12backtrace_rs9symbolize5gimli5macho11find_header17hb81c5e0965dadc43E, symObjAddr: 0x12B52C, symBinAddr: 0x11B75C, symSize: 0x1E4 }
  - { offset: 0x651572, size: 0x8, addend: 0x0, symName: __ZN3std12backtrace_rs9symbolize5gimli5macho11find_header17hb81c5e0965dadc43E, symObjAddr: 0x12B52C, symBinAddr: 0x11B75C, symSize: 0x1E4 }
  - { offset: 0x651CDD, size: 0x8, addend: 0x0, symName: __ZN3std12backtrace_rs9symbolize5gimli4mmap17ha1d9cf74d583e70eE, symObjAddr: 0x12B1E8, symBinAddr: 0x11B418, symSize: 0x2A4 }
  - { offset: 0x652445, size: 0x8, addend: 0x0, symName: __ZN3std12backtrace_rs9symbolize5gimli7Context3new17hc9c00ac88be32e35E, symObjAddr: 0x12CA54, symBinAddr: 0x11CC84, symSize: 0x1DE8 }
  - { offset: 0x656BC7, size: 0x8, addend: 0x0, symName: __ZN3std12backtrace_rs9symbolize5gimli7Context11find_frames17h5c29678ead51124cE, symObjAddr: 0x12EF98, symBinAddr: 0x11F1C8, symSize: 0x3B0 }
  - { offset: 0x6571ED, size: 0x8, addend: 0x0, symName: '__ZN79_$LT$std..backtrace_rs..symbolize..SymbolName$u20$as$u20$core..fmt..Display$GT$3fmt17h3263905465bac453E', symObjAddr: 0x12AF84, symBinAddr: 0x11B21C, symSize: 0x1FC }
  - { offset: 0x6572EA, size: 0x8, addend: 0x0, symName: __ZN3std12backtrace_rs9symbolize6Symbol4name17h91d4c127fa474decE, symObjAddr: 0x146258, symBinAddr: 0x13359C, symSize: 0xD4 }
  - { offset: 0x6574AB, size: 0x8, addend: 0x0, symName: __ZN3std4path4Path5_join17h46a64ed49ec529e9E, symObjAddr: 0x12EC94, symBinAddr: 0x11EEC4, symSize: 0x178 }
  - { offset: 0x657A5B, size: 0x8, addend: 0x0, symName: __ZN3std4path10Components7as_path17h079cc95f14999833E, symObjAddr: 0x12BB7C, symBinAddr: 0x11BDAC, symSize: 0x238 }
  - { offset: 0x657BEA, size: 0x8, addend: 0x0, symName: __ZN3std4path10Components25parse_next_component_back17h728c4dce095122cdE, symObjAddr: 0x145B30, symBinAddr: 0x132F2C, symSize: 0x164 }
  - { offset: 0x657D68, size: 0x8, addend: 0x0, symName: '__ZN95_$LT$std..path..Components$u20$as$u20$core..iter..traits..double_ended..DoubleEndedIterator$GT$9next_back17h56b072ed5e68aa84E', symObjAddr: 0x12B710, symBinAddr: 0x11B940, symSize: 0x46C }
  - { offset: 0x657FAA, size: 0x8, addend: 0x0, symName: '__ZN80_$LT$std..path..Components$u20$as$u20$core..iter..traits..iterator..Iterator$GT$4next17h2e9501df58ad8270E', symObjAddr: 0x146B28, symBinAddr: 0x133E6C, symSize: 0x328 }
  - { offset: 0x65816A, size: 0x8, addend: 0x0, symName: '__ZN75_$LT$std..fs..ReadDir$u20$as$u20$core..iter..traits..iterator..Iterator$GT$4next17hcbd8a6bdaabc6208E', symObjAddr: 0x12EA88, symBinAddr: 0x11ECB8, symSize: 0x164 }
  - { offset: 0x658746, size: 0x8, addend: 0x0, symName: '__ZN4core4cell4once17OnceCell$LT$T$GT$8try_init17h6e677814c1a7813aE', symObjAddr: 0x125DE0, symBinAddr: 0x146C98, symSize: 0xF4 }
  - { offset: 0x658A54, size: 0x8, addend: 0x0, symName: '__ZN4core4cell4once17OnceCell$LT$T$GT$8try_init17h106096a90ff76f10E', symObjAddr: 0x130258, symBinAddr: 0x14716C, symSize: 0x16EC }
  - { offset: 0x65C88A, size: 0x8, addend: 0x0, symName: '__ZN4core4cell4once17OnceCell$LT$T$GT$8try_init17h102d334c8beb4b3eE', symObjAddr: 0x1341F4, symBinAddr: 0x1488C0, symSize: 0xBC4 }
  - { offset: 0x65E4BB, size: 0x8, addend: 0x0, symName: '__ZN4core4cell4once17OnceCell$LT$T$GT$8try_init17h011e26eef33dcdabE', symObjAddr: 0x134DB8, symBinAddr: 0x149484, symSize: 0x620 }
  - { offset: 0x65F178, size: 0x8, addend: 0x0, symName: '__ZN4core4cell4once17OnceCell$LT$T$GT$8try_init17h6e531beec0fa4499E', symObjAddr: 0x13C330, symBinAddr: 0x149BDC, symSize: 0x48 }
  - { offset: 0x65F196, size: 0x8, addend: 0x0, symName: '__ZN4core4cell4once17OnceCell$LT$T$GT$8try_init17h6e531beec0fa4499E', symObjAddr: 0x13C330, symBinAddr: 0x149BDC, symSize: 0x48 }
  - { offset: 0x65F1AB, size: 0x8, addend: 0x0, symName: '__ZN4core4cell4once17OnceCell$LT$T$GT$8try_init17h6e531beec0fa4499E', symObjAddr: 0x13C330, symBinAddr: 0x149BDC, symSize: 0x48 }
  - { offset: 0x65F1BF, size: 0x8, addend: 0x0, symName: '__ZN4core4cell4once17OnceCell$LT$T$GT$8try_init17h6e531beec0fa4499E', symObjAddr: 0x13C330, symBinAddr: 0x149BDC, symSize: 0x48 }
  - { offset: 0x65F200, size: 0x8, addend: 0x0, symName: '__ZN4core4cell4once17OnceCell$LT$T$GT$8try_init17h8972385c78dc932cE', symObjAddr: 0x13C66C, symBinAddr: 0x149C24, symSize: 0x68 }
  - { offset: 0x66076B, size: 0x8, addend: 0x0, symName: '__ZN4core3ptr81drop_in_place$LT$core..result..Result$LT$$LP$$RP$$C$std..io..error..Error$GT$$GT$17h07e7a33e3e0db561E', symObjAddr: 0x126214, symBinAddr: 0x1167FC, symSize: 0x94 }
  - { offset: 0x660B36, size: 0x8, addend: 0x0, symName: '__ZN4core3ptr42drop_in_place$LT$std..io..error..Error$GT$17h2a581fa124b9c39dE', symObjAddr: 0x126894, symBinAddr: 0x116D78, symSize: 0x94 }
  - { offset: 0x660E8D, size: 0x8, addend: 0x0, symName: '__ZN4core3ptr64drop_in_place$LT$std..sys..pal..unix..sync..mutex..AttrGuard$GT$17ha4c14460210b2525E', symObjAddr: 0x126EAC, symBinAddr: 0x11718C, symSize: 0x44 }
  - { offset: 0x660EF5, size: 0x8, addend: 0x0, symName: '__ZN4core3ptr66drop_in_place$LT$std..backtrace_rs..backtrace..libunwind..Bomb$GT$17h6f5f39747d960df4E', symObjAddr: 0x1283E0, symBinAddr: 0x1470E4, symSize: 0x20 }
  - { offset: 0x6611FE, size: 0x8, addend: 0x0, symName: '__ZN4core3ptr70drop_in_place$LT$std..backtrace_rs..symbolize..gimli..stash..Stash$GT$17h2a2fe413fd97d962E', symObjAddr: 0x12B48C, symBinAddr: 0x11B6BC, symSize: 0xA0 }
  - { offset: 0x661937, size: 0x8, addend: 0x0, symName: '__ZN4core3ptr65drop_in_place$LT$std..backtrace_rs..symbolize..gimli..Context$GT$17haab8e1fda23d5fa5E', symObjAddr: 0x12EE0C, symBinAddr: 0x11F03C, symSize: 0x18C }
  - { offset: 0x661FE3, size: 0x8, addend: 0x0, symName: '__ZN4core3ptr275drop_in_place$LT$gimli..read..line..LineRows$LT$gimli..read..endian_slice..EndianSlice$LT$gimli..endianity..LittleEndian$GT$$C$gimli..read..line..IncompleteLineProgram$LT$gimli..read..endian_slice..EndianSlice$LT$gimli..endianity..LittleEndian$GT$$C$usize$GT$$C$usize$GT$$GT$17h1d03e883a17d383bE', symObjAddr: 0x131DBC, symBinAddr: 0x120898, symSize: 0x64 }
  - { offset: 0x66235B, size: 0x8, addend: 0x0, symName: '__ZN4core3ptr73drop_in_place$LT$alloc..vec..Vec$LT$addr2line..line..LineSequence$GT$$GT$17ha16223ace49baf81E', symObjAddr: 0x131E20, symBinAddr: 0x1208FC, symSize: 0x70 }
  - { offset: 0x66251E, size: 0x8, addend: 0x0, symName: '__ZN4core3ptr77drop_in_place$LT$alloc..boxed..Box$LT$$u5b$alloc..string..String$u5d$$GT$$GT$17h5b1f65b91ef5f48dE', symObjAddr: 0x131E90, symBinAddr: 0x12096C, symSize: 0x5C }
  - { offset: 0x662535, size: 0x8, addend: 0x0, symName: '__ZN4core3ptr77drop_in_place$LT$alloc..boxed..Box$LT$$u5b$alloc..string..String$u5d$$GT$$GT$17h5b1f65b91ef5f48dE', symObjAddr: 0x131E90, symBinAddr: 0x12096C, symSize: 0x5C }
  - { offset: 0x6626EB, size: 0x8, addend: 0x0, symName: '__ZN4core3ptr65drop_in_place$LT$alloc..vec..Vec$LT$alloc..string..String$GT$$GT$17h7ebbe7dfd7bc1ccbE', symObjAddr: 0x1320A4, symBinAddr: 0x120B80, symSize: 0x70 }
  - { offset: 0x66292B, size: 0x8, addend: 0x0, symName: '__ZN4core3ptr284drop_in_place$LT$core..result..Result$LT$$RF$core..result..Result$LT$addr2line..line..Lines$C$gimli..read..Error$GT$$C$$LP$$RF$core..result..Result$LT$addr2line..line..Lines$C$gimli..read..Error$GT$$C$core..result..Result$LT$addr2line..line..Lines$C$gimli..read..Error$GT$$RP$$GT$$GT$17h8586ac29c68f6f8dE', symObjAddr: 0x132570, symBinAddr: 0x12104C, symSize: 0xB8 }
  - { offset: 0x662C65, size: 0x8, addend: 0x0, symName: '__ZN4core3ptr92drop_in_place$LT$core..result..Result$LT$addr2line..line..Lines$C$gimli..read..Error$GT$$GT$17h918b544443b7be6fE', symObjAddr: 0x132628, symBinAddr: 0x121104, symSize: 0xAC }
  - { offset: 0x66322A, size: 0x8, addend: 0x0, symName: '__ZN4core3ptr557drop_in_place$LT$core..result..Result$LT$$RF$core..result..Result$LT$addr2line..function..Function$LT$gimli..read..endian_slice..EndianSlice$LT$gimli..endianity..LittleEndian$GT$$GT$$C$gimli..read..Error$GT$$C$$LP$$RF$core..result..Result$LT$addr2line..function..Function$LT$gimli..read..endian_slice..EndianSlice$LT$gimli..endianity..LittleEndian$GT$$GT$$C$gimli..read..Error$GT$$C$core..result..Result$LT$addr2line..function..Function$LT$gimli..read..endian_slice..EndianSlice$LT$gimli..endianity..LittleEndian$GT$$GT$$C$gimli..read..Error$GT$$RP$$GT$$GT$17hbf4e721ce4c33644E', symObjAddr: 0x138054, symBinAddr: 0x12594C, symSize: 0x50 }
  - { offset: 0x6634A3, size: 0x8, addend: 0x0, symName: '__ZN4core3ptr138drop_in_place$LT$addr2line..function..LazyFunction$LT$gimli..read..endian_slice..EndianSlice$LT$gimli..endianity..LittleEndian$GT$$GT$$GT$17h461cf33acc6a5599E', symObjAddr: 0x13AB14, symBinAddr: 0x12833C, symSize: 0x50 }
  - { offset: 0x6634BA, size: 0x8, addend: 0x0, symName: '__ZN4core3ptr138drop_in_place$LT$addr2line..function..LazyFunction$LT$gimli..read..endian_slice..EndianSlice$LT$gimli..endianity..LittleEndian$GT$$GT$$GT$17h461cf33acc6a5599E', symObjAddr: 0x13AB14, symBinAddr: 0x12833C, symSize: 0x50 }
  - { offset: 0x6634CF, size: 0x8, addend: 0x0, symName: '__ZN4core3ptr138drop_in_place$LT$addr2line..function..LazyFunction$LT$gimli..read..endian_slice..EndianSlice$LT$gimli..endianity..LittleEndian$GT$$GT$$GT$17h461cf33acc6a5599E', symObjAddr: 0x13AB14, symBinAddr: 0x12833C, symSize: 0x50 }
  - { offset: 0x6634E4, size: 0x8, addend: 0x0, symName: '__ZN4core3ptr138drop_in_place$LT$addr2line..function..LazyFunction$LT$gimli..read..endian_slice..EndianSlice$LT$gimli..endianity..LittleEndian$GT$$GT$$GT$17h461cf33acc6a5599E', symObjAddr: 0x13AB14, symBinAddr: 0x12833C, symSize: 0x50 }
  - { offset: 0x66366F, size: 0x8, addend: 0x0, symName: '__ZN4core3ptr161drop_in_place$LT$alloc..vec..Vec$LT$addr2line..function..LazyFunction$LT$gimli..read..endian_slice..EndianSlice$LT$gimli..endianity..LittleEndian$GT$$GT$$GT$$GT$17hd6e134544d630cd7E', symObjAddr: 0x13AB64, symBinAddr: 0x12838C, symSize: 0x8C }
  - { offset: 0x663935, size: 0x8, addend: 0x0, symName: '__ZN4core3ptr173drop_in_place$LT$alloc..boxed..Box$LT$$u5b$addr2line..function..LazyFunction$LT$gimli..read..endian_slice..EndianSlice$LT$gimli..endianity..LittleEndian$GT$$GT$$u5d$$GT$$GT$17hc5210d9f07fdafb2E', symObjAddr: 0x13ABF0, symBinAddr: 0x128418, symSize: 0x78 }
  - { offset: 0x66394C, size: 0x8, addend: 0x0, symName: '__ZN4core3ptr173drop_in_place$LT$alloc..boxed..Box$LT$$u5b$addr2line..function..LazyFunction$LT$gimli..read..endian_slice..EndianSlice$LT$gimli..endianity..LittleEndian$GT$$GT$$u5d$$GT$$GT$17hc5210d9f07fdafb2E', symObjAddr: 0x13ABF0, symBinAddr: 0x128418, symSize: 0x78 }
  - { offset: 0x663BEA, size: 0x8, addend: 0x0, symName: '__ZN4core3ptr560drop_in_place$LT$core..result..Result$LT$$RF$core..result..Result$LT$addr2line..function..Functions$LT$gimli..read..endian_slice..EndianSlice$LT$gimli..endianity..LittleEndian$GT$$GT$$C$gimli..read..Error$GT$$C$$LP$$RF$core..result..Result$LT$addr2line..function..Functions$LT$gimli..read..endian_slice..EndianSlice$LT$gimli..endianity..LittleEndian$GT$$GT$$C$gimli..read..Error$GT$$C$core..result..Result$LT$addr2line..function..Functions$LT$gimli..read..endian_slice..EndianSlice$LT$gimli..endianity..LittleEndian$GT$$GT$$C$gimli..read..Error$GT$$RP$$GT$$GT$17hec042495284d0bbcE', symObjAddr: 0x13AC68, symBinAddr: 0x128490, symSize: 0xA8 }
  - { offset: 0x663F55, size: 0x8, addend: 0x0, symName: '__ZN4core3ptr184drop_in_place$LT$core..result..Result$LT$addr2line..function..Functions$LT$gimli..read..endian_slice..EndianSlice$LT$gimli..endianity..LittleEndian$GT$$GT$$C$gimli..read..Error$GT$$GT$17hbc00da9635afbf80E', symObjAddr: 0x13AD10, symBinAddr: 0x128538, symSize: 0x9C }
  - { offset: 0x66436D, size: 0x8, addend: 0x0, symName: '__ZN4core3ptr701drop_in_place$LT$core..result..Result$LT$$RF$core..result..Result$LT$core..option..Option$LT$alloc..boxed..Box$LT$addr2line..unit..DwoUnit$LT$gimli..read..endian_slice..EndianSlice$LT$gimli..endianity..LittleEndian$GT$$GT$$GT$$GT$$C$gimli..read..Error$GT$$C$$LP$$RF$core..result..Result$LT$core..option..Option$LT$alloc..boxed..Box$LT$addr2line..unit..DwoUnit$LT$gimli..read..endian_slice..EndianSlice$LT$gimli..endianity..LittleEndian$GT$$GT$$GT$$GT$$C$gimli..read..Error$GT$$C$core..result..Result$LT$core..option..Option$LT$alloc..boxed..Box$LT$addr2line..unit..DwoUnit$LT$gimli..read..endian_slice..EndianSlice$LT$gimli..endianity..LittleEndian$GT$$GT$$GT$$GT$$C$gimli..read..Error$GT$$RP$$GT$$GT$17h88daae4c53ffefdaE', symObjAddr: 0x13BB78, symBinAddr: 0x1293A0, symSize: 0x4 }
  - { offset: 0x66438B, size: 0x8, addend: 0x0, symName: '__ZN4core3ptr701drop_in_place$LT$core..result..Result$LT$$RF$core..result..Result$LT$core..option..Option$LT$alloc..boxed..Box$LT$addr2line..unit..DwoUnit$LT$gimli..read..endian_slice..EndianSlice$LT$gimli..endianity..LittleEndian$GT$$GT$$GT$$GT$$C$gimli..read..Error$GT$$C$$LP$$RF$core..result..Result$LT$core..option..Option$LT$alloc..boxed..Box$LT$addr2line..unit..DwoUnit$LT$gimli..read..endian_slice..EndianSlice$LT$gimli..endianity..LittleEndian$GT$$GT$$GT$$GT$$C$gimli..read..Error$GT$$C$core..result..Result$LT$core..option..Option$LT$alloc..boxed..Box$LT$addr2line..unit..DwoUnit$LT$gimli..read..endian_slice..EndianSlice$LT$gimli..endianity..LittleEndian$GT$$GT$$GT$$GT$$C$gimli..read..Error$GT$$RP$$GT$$GT$17h88daae4c53ffefdaE', symObjAddr: 0x13BB78, symBinAddr: 0x1293A0, symSize: 0x4 }
  - { offset: 0x6643C7, size: 0x8, addend: 0x0, symName: '__ZN4core3ptr231drop_in_place$LT$core..result..Result$LT$core..option..Option$LT$alloc..boxed..Box$LT$addr2line..unit..DwoUnit$LT$gimli..read..endian_slice..EndianSlice$LT$gimli..endianity..LittleEndian$GT$$GT$$GT$$GT$$C$gimli..read..Error$GT$$GT$17hcd0e8ef49a887a43E', symObjAddr: 0x13BB7C, symBinAddr: 0x1293A4, symSize: 0x100 }
  - { offset: 0x6649B6, size: 0x8, addend: 0x0, symName: '__ZN4core3ptr137drop_in_place$LT$gimli..read..dwarf..Unit$LT$gimli..read..endian_slice..EndianSlice$LT$gimli..endianity..LittleEndian$GT$$C$usize$GT$$GT$17hdcb4d5c2a34ca995E', symObjAddr: 0x13BC7C, symBinAddr: 0x1294A4, symSize: 0xA4 }
  - { offset: 0x664DE8, size: 0x8, addend: 0x0, symName: '__ZN4core3ptr181drop_in_place$LT$core..option..Option$LT$gimli..read..line..IncompleteLineProgram$LT$gimli..read..endian_slice..EndianSlice$LT$gimli..endianity..LittleEndian$GT$$C$usize$GT$$GT$$GT$17h352b45f70877c5a7E', symObjAddr: 0x13BDA8, symBinAddr: 0x1295D0, symSize: 0x70 }
  - { offset: 0x665216, size: 0x8, addend: 0x0, symName: '__ZN4core3ptr55drop_in_place$LT$gimli..read..abbrev..Abbreviations$GT$17h8ab6045e1a32d6e5E', symObjAddr: 0x13BE18, symBinAddr: 0x129640, symSize: 0x200 }
  - { offset: 0x665A42, size: 0x8, addend: 0x0, symName: '__ZN4core3ptr60drop_in_place$LT$gimli..read..abbrev..AbbreviationsCache$GT$17ha8109f95237a3308E', symObjAddr: 0x13C018, symBinAddr: 0x129840, symSize: 0xB8 }
  - { offset: 0x665C22, size: 0x8, addend: 0x0, symName: '__ZN4core3ptr280drop_in_place$LT$$LT$alloc..collections..btree..map..IntoIter$LT$K$C$V$C$A$GT$$u20$as$u20$core..ops..drop..Drop$GT$..drop..DropGuard$LT$u64$C$core..result..Result$LT$alloc..sync..Arc$LT$gimli..read..abbrev..Abbreviations$GT$$C$gimli..read..Error$GT$$C$alloc..alloc..Global$GT$$GT$17ha970c8e3d78077b9E', symObjAddr: 0x13C258, symBinAddr: 0x129A80, symSize: 0x70 }
  - { offset: 0x665D91, size: 0x8, addend: 0x0, symName: '__ZN4core3ptr130drop_in_place$LT$addr2line..unit..ResUnits$LT$gimli..read..endian_slice..EndianSlice$LT$gimli..endianity..LittleEndian$GT$$GT$$GT$17h63ae483049bcf3d2E', symObjAddr: 0x13C6D4, symBinAddr: 0x129DE4, symSize: 0xB0 }
  - { offset: 0x665FBC, size: 0x8, addend: 0x0, symName: '__ZN4core3ptr130drop_in_place$LT$addr2line..unit..SupUnits$LT$gimli..read..endian_slice..EndianSlice$LT$gimli..endianity..LittleEndian$GT$$GT$$GT$17hda109fee7e094186E', symObjAddr: 0x13C784, symBinAddr: 0x129E94, symSize: 0x128 }
  - { offset: 0x66654D, size: 0x8, addend: 0x0, symName: '__ZN4core3ptr71drop_in_place$LT$std..backtrace_rs..symbolize..gimli..macho..Object$GT$17hff274e6b6839ff9fE', symObjAddr: 0x13C8AC, symBinAddr: 0x129FBC, symSize: 0xA0 }
  - { offset: 0x666962, size: 0x8, addend: 0x0, symName: '__ZN4core3ptr93drop_in_place$LT$core..option..Option$LT$std..backtrace_rs..symbolize..gimli..Mapping$GT$$GT$17h660820b1b79ec8a2E', symObjAddr: 0x13C94C, symBinAddr: 0x12A05C, symSize: 0xE8 }
  - { offset: 0x666D41, size: 0x8, addend: 0x0, symName: '__ZN4core3ptr131drop_in_place$LT$$u5b$core..option..Option$LT$core..option..Option$LT$std..backtrace_rs..symbolize..gimli..Mapping$GT$$GT$$u5d$$GT$17hd05d3f4fb2ea2296E', symObjAddr: 0x13CA34, symBinAddr: 0x12A144, symSize: 0x170 }
  - { offset: 0x667151, size: 0x8, addend: 0x0, symName: '__ZN4core3ptr129drop_in_place$LT$addr2line..unit..SupUnit$LT$gimli..read..endian_slice..EndianSlice$LT$gimli..endianity..LittleEndian$GT$$GT$$GT$17hdcaacab12c409641E', symObjAddr: 0x13CBA4, symBinAddr: 0x12A2B4, symSize: 0xA4 }
  - { offset: 0x6675E5, size: 0x8, addend: 0x0, symName: '__ZN4core3ptr129drop_in_place$LT$addr2line..unit..ResUnit$LT$gimli..read..endian_slice..EndianSlice$LT$gimli..endianity..LittleEndian$GT$$GT$$GT$17ha71cd4ad8ca92f51E', symObjAddr: 0x13CC48, symBinAddr: 0x12A358, symSize: 0x20C }
  - { offset: 0x668205, size: 0x8, addend: 0x0, symName: '__ZN4core3ptr82drop_in_place$LT$alloc..sync..ArcInner$LT$std..sys..fs..unix..InnerReadDir$GT$$GT$17hdb6d8f86ff00af8aE', symObjAddr: 0x13CFA8, symBinAddr: 0x12A614, symSize: 0x58 }
  - { offset: 0x668453, size: 0x8, addend: 0x0, symName: '__ZN4core3ptr159drop_in_place$LT$alloc..sync..ArcInner$LT$gimli..read..dwarf..Dwarf$LT$gimli..read..endian_slice..EndianSlice$LT$gimli..endianity..LittleEndian$GT$$GT$$GT$$GT$17h8d31cf90ed6c40e7E', symObjAddr: 0x13D154, symBinAddr: 0x12A7C0, symSize: 0x5C }
  - { offset: 0x668517, size: 0x8, addend: 0x0, symName: '__ZN4core3ptr152drop_in_place$LT$alloc..vec..Vec$LT$addr2line..unit..ResUnit$LT$gimli..read..endian_slice..EndianSlice$LT$gimli..endianity..LittleEndian$GT$$GT$$GT$$GT$17heba7c5ac9d2f820fE', symObjAddr: 0x13F75C, symBinAddr: 0x12CD60, symSize: 0xAC }
  - { offset: 0x668704, size: 0x8, addend: 0x0, symName: '__ZN4core3ptr152drop_in_place$LT$alloc..vec..Vec$LT$addr2line..unit..SupUnit$LT$gimli..read..endian_slice..EndianSlice$LT$gimli..endianity..LittleEndian$GT$$GT$$GT$$GT$17h860ae9c39ec7865aE', symObjAddr: 0x13F808, symBinAddr: 0x12CE0C, symSize: 0x138 }
  - { offset: 0x668D17, size: 0x8, addend: 0x0, symName: '__ZN4core3ptr123drop_in_place$LT$addr2line..Context$LT$gimli..read..endian_slice..EndianSlice$LT$gimli..endianity..LittleEndian$GT$$GT$$GT$17hbcf72d1bc339d862E', symObjAddr: 0x140090, symBinAddr: 0x12D62C, symSize: 0x70 }
  - { offset: 0x668F65, size: 0x8, addend: 0x0, symName: '__ZN4core3ptr144drop_in_place$LT$alloc..vec..Vec$LT$core..option..Option$LT$core..option..Option$LT$std..backtrace_rs..symbolize..gimli..Mapping$GT$$GT$$GT$$GT$17he70e02edf56c9189E', symObjAddr: 0x142F64, symBinAddr: 0x130430, symSize: 0x68 }
  - { offset: 0x6691A0, size: 0x8, addend: 0x0, symName: '__ZN4core3ptr44drop_in_place$LT$object..read..ObjectMap$GT$17h6dd5dff8e4fa51b9E', symObjAddr: 0x143594, symBinAddr: 0x130990, symSize: 0x44 }
  - { offset: 0x66935E, size: 0x8, addend: 0x0, symName: '__ZN4core3ptr72drop_in_place$LT$core..option..Option$LT$object..read..ObjectMap$GT$$GT$17h77b373644c79eec6E', symObjAddr: 0x1435D8, symBinAddr: 0x1309D4, symSize: 0x50 }
  - { offset: 0x66979F, size: 0x8, addend: 0x0, symName: '__ZN4core3ptr43drop_in_place$LT$std..io..error..Custom$GT$17h6ddcae3878c803a6E', symObjAddr: 0x145FB8, symBinAddr: 0x1332FC, symSize: 0x34 }
  - { offset: 0x6697B6, size: 0x8, addend: 0x0, symName: '__ZN4core3ptr43drop_in_place$LT$std..io..error..Custom$GT$17h6ddcae3878c803a6E', symObjAddr: 0x145FB8, symBinAddr: 0x1332FC, symSize: 0x34 }
  - { offset: 0x6697CB, size: 0x8, addend: 0x0, symName: '__ZN4core3ptr43drop_in_place$LT$std..io..error..Custom$GT$17h6ddcae3878c803a6E', symObjAddr: 0x145FB8, symBinAddr: 0x1332FC, symSize: 0x34 }
  - { offset: 0x6697E0, size: 0x8, addend: 0x0, symName: '__ZN4core3ptr43drop_in_place$LT$std..io..error..Custom$GT$17h6ddcae3878c803a6E', symObjAddr: 0x145FB8, symBinAddr: 0x1332FC, symSize: 0x34 }
  - { offset: 0x6697F5, size: 0x8, addend: 0x0, symName: '__ZN4core3ptr43drop_in_place$LT$std..io..error..Custom$GT$17h6ddcae3878c803a6E', symObjAddr: 0x145FB8, symBinAddr: 0x1332FC, symSize: 0x34 }
  - { offset: 0x669962, size: 0x8, addend: 0x0, symName: '__ZN4core3ptr119drop_in_place$LT$std..io..default_write_fmt..Adapter$LT$std..io..cursor..Cursor$LT$$RF$mut$u20$$u5b$u8$u5d$$GT$$GT$$GT$17h43c163d7220ed1c9E', symObjAddr: 0x146E70, symBinAddr: 0x134194, symSize: 0x94 }
  - { offset: 0x669D11, size: 0x8, addend: 0x0, symName: '__ZN4core3ptr79drop_in_place$LT$std..sync..poison..rwlock..RwLockReadGuard$LT$$LP$$RP$$GT$$GT$17hd1db8e4b007d81c2E', symObjAddr: 0x1477BC, symBinAddr: 0x134980, symSize: 0x58 }
  - { offset: 0x669DFF, size: 0x8, addend: 0x0, symName: '__ZN4core3ptr152drop_in_place$LT$core..result..Result$LT$$RF$std..thread..thread..Thread$C$$LP$$RF$std..thread..thread..Thread$C$std..thread..thread..Thread$RP$$GT$$GT$17h50bda3150702fe22E', symObjAddr: 0x147ECC, symBinAddr: 0x134F10, symSize: 0x1C }
  - { offset: 0x669ED6, size: 0x8, addend: 0x0, symName: '__ZN4core3ptr48drop_in_place$LT$alloc..ffi..c_str..NulError$GT$17h700e8646eea93603E', symObjAddr: 0x147F10, symBinAddr: 0x134F54, symSize: 0x14 }
  - { offset: 0x669EED, size: 0x8, addend: 0x0, symName: '__ZN4core3ptr48drop_in_place$LT$alloc..ffi..c_str..NulError$GT$17h700e8646eea93603E', symObjAddr: 0x147F10, symBinAddr: 0x134F54, symSize: 0x14 }
  - { offset: 0x66A04C, size: 0x8, addend: 0x0, symName: '__ZN4core3ptr71drop_in_place$LT$std..panicking..panic_handler..FormatStringPayload$GT$17h54812e3768a5adedE', symObjAddr: 0x148A08, symBinAddr: 0x1359B8, symSize: 0x18 }
  - { offset: 0x66A1CD, size: 0x8, addend: 0x0, symName: '__ZN4core3ptr61drop_in_place$LT$std..panicking..resume_unwind..RewrapBox$GT$17hd7cb86007472ee4bE', symObjAddr: 0x149BB0, symBinAddr: 0x136874, symSize: 0x64 }
  - { offset: 0x66BC3E, size: 0x8, addend: 0x0, symName: '__ZN4core3ops8function6FnOnce40call_once$u7b$$u7b$vtable.shim$u7d$$u7d$17h879ee2ac1920fd87E', symObjAddr: 0x128400, symBinAddr: 0x118698, symSize: 0x4 }
  - { offset: 0x66BC5B, size: 0x8, addend: 0x0, symName: '__ZN4core3ops8function6FnOnce40call_once$u7b$$u7b$vtable.shim$u7d$$u7d$17h879ee2ac1920fd87E', symObjAddr: 0x128400, symBinAddr: 0x118698, symSize: 0x4 }
  - { offset: 0x66BCE1, size: 0x8, addend: 0x0, symName: '__ZN4core3ops8function6FnOnce40call_once$u7b$$u7b$vtable.shim$u7d$$u7d$17h7d092bb5143e405eE', symObjAddr: 0x1466BC, symBinAddr: 0x133A00, symSize: 0x9C }
  - { offset: 0x66BFC7, size: 0x8, addend: 0x0, symName: '__ZN4core3ops8function6FnOnce40call_once$u7b$$u7b$vtable.shim$u7d$$u7d$17hdee2568c0d8585d3E', symObjAddr: 0x148814, symBinAddr: 0x1357C4, symSize: 0xC }
  - { offset: 0x66C017, size: 0x8, addend: 0x0, symName: '__ZN4core3ops8function6FnOnce40call_once$u7b$$u7b$vtable.shim$u7d$$u7d$17h91555c7ea8afd78bE', symObjAddr: 0x14882C, symBinAddr: 0x1357DC, symSize: 0xC }
  - { offset: 0x66D413, size: 0x8, addend: 0x0, symName: '__ZN36_$LT$T$u20$as$u20$core..any..Any$GT$7type_id17h6c3a8cfe24881123E', symObjAddr: 0x1486B8, symBinAddr: 0x135668, symSize: 0x14 }
  - { offset: 0x66D430, size: 0x8, addend: 0x0, symName: '__ZN36_$LT$T$u20$as$u20$core..any..Any$GT$7type_id17h6c3a8cfe24881123E', symObjAddr: 0x1486B8, symBinAddr: 0x135668, symSize: 0x14 }
  - { offset: 0x66D441, size: 0x8, addend: 0x0, symName: '__ZN36_$LT$T$u20$as$u20$core..any..Any$GT$7type_id17hd20e8d5a59f6a25bE', symObjAddr: 0x149C54, symBinAddr: 0x136918, symSize: 0x14 }
  - { offset: 0x66D45E, size: 0x8, addend: 0x0, symName: '__ZN36_$LT$T$u20$as$u20$core..any..Any$GT$7type_id17hd20e8d5a59f6a25bE', symObjAddr: 0x149C54, symBinAddr: 0x136918, symSize: 0x14 }
  - { offset: 0x66DDF1, size: 0x8, addend: 0x0, symName: __ZN4core5panic12PanicPayload6as_str17h320c81ceb0f82bebE, symObjAddr: 0x1486B0, symBinAddr: 0x135660, symSize: 0x8 }
  - { offset: 0x66DF1C, size: 0x8, addend: 0x0, symName: '__ZN44_$LT$$RF$T$u20$as$u20$core..fmt..Display$GT$3fmt17h5556f0297f2fd1caE', symObjAddr: 0x1260B4, symBinAddr: 0x11669C, symSize: 0x60 }
  - { offset: 0x66DFC0, size: 0x8, addend: 0x0, symName: '__ZN4core3fmt3num50_$LT$impl$u20$core..fmt..Debug$u20$for$u20$i32$GT$3fmt17h8203a6e54d979cdaE.1822', symObjAddr: 0x127BAC, symBinAddr: 0x117E64, symSize: 0x10C }
  - { offset: 0x66E128, size: 0x8, addend: 0x0, symName: '__ZN42_$LT$$RF$T$u20$as$u20$core..fmt..Debug$GT$3fmt17hb3b87348d2a2e08eE', symObjAddr: 0x126F18, symBinAddr: 0x1171D0, symSize: 0x110 }
  - { offset: 0x66E2AA, size: 0x8, addend: 0x0, symName: '__ZN42_$LT$$RF$T$u20$as$u20$core..fmt..Debug$GT$3fmt17h1b291d698eb12ba7E', symObjAddr: 0x1482C4, symBinAddr: 0x135308, symSize: 0x1F8 }
  - { offset: 0x66E52E, size: 0x8, addend: 0x0, symName: '__ZN42_$LT$$RF$T$u20$as$u20$core..fmt..Debug$GT$3fmt17h040513171ae6591eE', symObjAddr: 0x1484BC, symBinAddr: 0x135500, symSize: 0x160 }
  - { offset: 0x66E6AD, size: 0x8, addend: 0x0, symName: '__ZN50_$LT$$BP$mut$u20$T$u20$as$u20$core..fmt..Debug$GT$3fmt17h6aced92d6477d86aE', symObjAddr: 0x12AEC8, symBinAddr: 0x11B160, symSize: 0xBC }
  - { offset: 0x66E7CE, size: 0x8, addend: 0x0, symName: __ZN4core3fmt5Write10write_char17hd8f5ba739a16d1beE, symObjAddr: 0x146FF8, symBinAddr: 0x13431C, symSize: 0x18C }
  - { offset: 0x66ECC8, size: 0x8, addend: 0x0, symName: __ZN4core3fmt5Write9write_fmt17h7ad11c4403f9d11eE, symObjAddr: 0x147184, symBinAddr: 0x1344A8, symSize: 0x14 }
  - { offset: 0x66ECF6, size: 0x8, addend: 0x0, symName: __ZN4core3fmt5Write10write_char17ha2efda81adfce684E, symObjAddr: 0x14799C, symBinAddr: 0x134B14, symSize: 0x1CC }
  - { offset: 0x66F14D, size: 0x8, addend: 0x0, symName: __ZN4core3fmt5Write9write_fmt17h2c8182b954462204E, symObjAddr: 0x147B68, symBinAddr: 0x134CE0, symSize: 0x14 }
  - { offset: 0x66F17B, size: 0x8, addend: 0x0, symName: __ZN4core3fmt5Write9write_fmt17h798233193b14ab69E, symObjAddr: 0x148D78, symBinAddr: 0x135D28, symSize: 0x14 }
  - { offset: 0x66F1A9, size: 0x8, addend: 0x0, symName: __ZN4core3fmt5Write10write_char17h39a39a5dc3c4fa4bE, symObjAddr: 0x1491F8, symBinAddr: 0x136168, symSize: 0x1A0 }
  - { offset: 0x66F554, size: 0x8, addend: 0x0, symName: __ZN4core3fmt5Write9write_fmt17h5dce252a7efc3c1dE, symObjAddr: 0x149398, symBinAddr: 0x136308, symSize: 0x14 }
  - { offset: 0x67089C, size: 0x8, addend: 0x0, symName: __ZN4core5slice4sort8unstable7ipnsort17h0a0512af13cc06a6E, symObjAddr: 0x142FCC, symBinAddr: 0x130498, symSize: 0xC4 }
  - { offset: 0x6708B9, size: 0x8, addend: 0x0, symName: __ZN4core5slice4sort8unstable7ipnsort17h0a0512af13cc06a6E, symObjAddr: 0x142FCC, symBinAddr: 0x130498, symSize: 0xC4 }
  - { offset: 0x6709E4, size: 0x8, addend: 0x0, symName: __ZN4core5slice4sort8unstable7ipnsort17h502fce36f743139eE, symObjAddr: 0x143090, symBinAddr: 0x13055C, symSize: 0x174 }
  - { offset: 0x670D14, size: 0x8, addend: 0x0, symName: __ZN4core5slice4sort8unstable9quicksort9quicksort17h70a0c9f3576c05b0E, symObjAddr: 0x144424, symBinAddr: 0x131820, symSize: 0x4E0 }
  - { offset: 0x671754, size: 0x8, addend: 0x0, symName: __ZN4core5slice4sort8unstable9quicksort9quicksort17h324c95ad922d2016E, symObjAddr: 0x1450FC, symBinAddr: 0x1324F8, symSize: 0x3D0 }
  - { offset: 0x671E6F, size: 0x8, addend: 0x0, symName: __ZN4core5slice4sort8unstable8heapsort8heapsort17he327f90913754eb5E, symObjAddr: 0x144CEC, symBinAddr: 0x1320E8, symSize: 0x15C }
  - { offset: 0x672166, size: 0x8, addend: 0x0, symName: __ZN4core5slice4sort8unstable8heapsort8heapsort17h10b1620aeb7d2d9bE, symObjAddr: 0x145964, symBinAddr: 0x132D60, symSize: 0xFC }
  - { offset: 0x67237E, size: 0x8, addend: 0x0, symName: __ZN4core5slice4sort6stable14driftsort_main17hab4f063fa19951e9E, symObjAddr: 0x131EEC, symBinAddr: 0x1209C8, symSize: 0x114 }
  - { offset: 0x67283E, size: 0x8, addend: 0x0, symName: __ZN4core5slice4sort6stable5drift4sort17h501954fcd897ef96E, symObjAddr: 0x1328F4, symBinAddr: 0x1213D0, symSize: 0x4EC }
  - { offset: 0x672EEF, size: 0x8, addend: 0x0, symName: __ZN4core5slice4sort6stable5drift4sort17hbba22eb7cb8243f1E, symObjAddr: 0x1380A4, symBinAddr: 0x12599C, symSize: 0x5FC }
  - { offset: 0x6735E8, size: 0x8, addend: 0x0, symName: __ZN4core5slice4sort6stable5drift4sort17h5c0bd4c0de4b3698E, symObjAddr: 0x13ADAC, symBinAddr: 0x1285D4, symSize: 0x530 }
  - { offset: 0x673C85, size: 0x8, addend: 0x0, symName: __ZN4core5slice4sort6stable5drift4sort17h34883c2ac2f5271dE, symObjAddr: 0x1412B0, symBinAddr: 0x12E77C, symSize: 0x4EC }
  - { offset: 0x674336, size: 0x8, addend: 0x0, symName: __ZN4core5slice4sort6stable5drift4sort17h499aec6506322728E, symObjAddr: 0x141F20, symBinAddr: 0x12F3EC, symSize: 0x4D4 }
  - { offset: 0x674957, size: 0x8, addend: 0x0, symName: __ZN4core5slice4sort6stable5drift4sort17ha0570459d19483b1E, symObjAddr: 0x143628, symBinAddr: 0x130A24, symSize: 0x538 }
  - { offset: 0x675220, size: 0x8, addend: 0x0, symName: __ZN4core5slice4sort6stable9quicksort9quicksort17h77aa5dbef63ca362E, symObjAddr: 0x132DE0, symBinAddr: 0x1218BC, symSize: 0x6B0 }
  - { offset: 0x675CA8, size: 0x8, addend: 0x0, symName: __ZN4core5slice4sort6stable9quicksort9quicksort17h79b6c465ad58398bE, symObjAddr: 0x1386A0, symBinAddr: 0x125F98, symSize: 0x704 }
  - { offset: 0x6763AD, size: 0x8, addend: 0x0, symName: __ZN4core5slice4sort6stable9quicksort9quicksort17hc0a2a721e5d41753E, symObjAddr: 0x13B2DC, symBinAddr: 0x128B04, symSize: 0x7CC }
  - { offset: 0x676F15, size: 0x8, addend: 0x0, symName: __ZN4core5slice4sort6stable9quicksort9quicksort17h4e2b32995f15cf78E, symObjAddr: 0x14179C, symBinAddr: 0x12EC68, symSize: 0x6B8 }
  - { offset: 0x67799D, size: 0x8, addend: 0x0, symName: __ZN4core5slice4sort6stable9quicksort9quicksort17h1609a8299efffbefE, symObjAddr: 0x1423F4, symBinAddr: 0x12F8C0, symSize: 0x7EC }
  - { offset: 0x6788B8, size: 0x8, addend: 0x0, symName: __ZN4core5slice4sort6stable9quicksort9quicksort17h93a9f06c303edb50E, symObjAddr: 0x143B60, symBinAddr: 0x130F5C, symSize: 0x7F4 }
  - { offset: 0x67942E, size: 0x8, addend: 0x0, symName: __ZN4core5slice4sort6stable14driftsort_main17hf1c1a8a8ac2b901fE, symObjAddr: 0x137E98, symBinAddr: 0x125790, symSize: 0x104 }
  - { offset: 0x6797D5, size: 0x8, addend: 0x0, symName: __ZN4core5slice4sort6stable14driftsort_main17hde2353fe72c418b7E, symObjAddr: 0x13A998, symBinAddr: 0x128228, symSize: 0x114 }
  - { offset: 0x679B74, size: 0x8, addend: 0x0, symName: __ZN4core5slice4sort6stable14driftsort_main17h9645c7edece7dde6E, symObjAddr: 0x13D458, symBinAddr: 0x12AAC4, symSize: 0x104 }
  - { offset: 0x679F1B, size: 0x8, addend: 0x0, symName: __ZN4core5slice4sort6stable14driftsort_main17h7906cf8a57880c64E, symObjAddr: 0x13DA78, symBinAddr: 0x12B0E4, symSize: 0x104 }
  - { offset: 0x67A2C2, size: 0x8, addend: 0x0, symName: __ZN4core5slice4sort6stable14driftsort_main17ha8f1205c8a1b0be1E, symObjAddr: 0x1433C8, symBinAddr: 0x1307C4, symSize: 0x114 }
  - { offset: 0x67A736, size: 0x8, addend: 0x0, symName: __ZN4core5slice4sort6shared9smallsort25insertion_sort_shift_left17hdfd28577810a2608E, symObjAddr: 0x132000, symBinAddr: 0x120ADC, symSize: 0xA4 }
  - { offset: 0x67A8D8, size: 0x8, addend: 0x0, symName: __ZN4core5slice4sort6shared9smallsort25insertion_sort_shift_left17h77c6665666d5c375E, symObjAddr: 0x137F9C, symBinAddr: 0x125894, symSize: 0xB8 }
  - { offset: 0x67AA2B, size: 0x8, addend: 0x0, symName: __ZN4core5slice4sort6shared9smallsort12sort4_stable17h22f354dfc4360d8fE, symObjAddr: 0x138DA4, symBinAddr: 0x12669C, symSize: 0x194 }
  - { offset: 0x67AC9D, size: 0x8, addend: 0x0, symName: __ZN4core5slice4sort6shared9smallsort12sort8_stable17h4f8efffcd77ba938E, symObjAddr: 0x142BE0, symBinAddr: 0x1300AC, symSize: 0x2B8 }
  - { offset: 0x67B147, size: 0x8, addend: 0x0, symName: __ZN4core5slice4sort6shared9smallsort25insertion_sort_shift_left17h08026f5eee1d8b5bE, symObjAddr: 0x143204, symBinAddr: 0x1306D0, symSize: 0xF4 }
  - { offset: 0x67B30B, size: 0x8, addend: 0x0, symName: __ZN4core5slice4sort6shared9smallsort25insertion_sort_shift_left17h06f7e0bf7559ff7dE, symObjAddr: 0x1434DC, symBinAddr: 0x1308D8, symSize: 0xB8 }
  - { offset: 0x67B4A5, size: 0x8, addend: 0x0, symName: __ZN4core5slice4sort6shared9smallsort18small_sort_general17h98f61aba69ee5728E, symObjAddr: 0x144904, symBinAddr: 0x131D00, symSize: 0x3E8 }
  - { offset: 0x67B9C1, size: 0x8, addend: 0x0, symName: __ZN4core5slice4sort6shared9smallsort12sort4_stable17h1a9ecce6dce46fa9E, symObjAddr: 0x144F7C, symBinAddr: 0x132378, symSize: 0x180 }
  - { offset: 0x67BDEE, size: 0x8, addend: 0x0, symName: __ZN4core5slice4sort6shared9smallsort18small_sort_general17hbef35dbc5bb6f4a6E, symObjAddr: 0x1454CC, symBinAddr: 0x1328C8, symSize: 0x498 }
  - { offset: 0x67C4EC, size: 0x8, addend: 0x0, symName: __ZN4core5slice4sort6shared5pivot11median3_rec17h238b529999c6d492E, symObjAddr: 0x133490, symBinAddr: 0x121F6C, symSize: 0xCC }
  - { offset: 0x67C5EF, size: 0x8, addend: 0x0, symName: __ZN4core5slice4sort6shared5pivot11median3_rec17h9640e1954690b4acE, symObjAddr: 0x138F38, symBinAddr: 0x126830, symSize: 0x11C }
  - { offset: 0x67C6F3, size: 0x8, addend: 0x0, symName: __ZN4core5slice4sort6shared5pivot11median3_rec17h7fcfe1b62eab07fbE, symObjAddr: 0x13BAA8, symBinAddr: 0x1292D0, symSize: 0xD0 }
  - { offset: 0x67C7F6, size: 0x8, addend: 0x0, symName: __ZN4core5slice4sort6shared5pivot11median3_rec17h54949ce01317ee94E, symObjAddr: 0x141E54, symBinAddr: 0x12F320, symSize: 0xCC }
  - { offset: 0x67C8F9, size: 0x8, addend: 0x0, symName: __ZN4core5slice4sort6shared5pivot11median3_rec17heb9420491d1f67d9E, symObjAddr: 0x142E98, symBinAddr: 0x130364, symSize: 0xCC }
  - { offset: 0x67CA28, size: 0x8, addend: 0x0, symName: __ZN4core5slice4sort6shared5pivot11median3_rec17h3e4d6346d1d119a2E, symObjAddr: 0x144354, symBinAddr: 0x131750, symSize: 0xD0 }
  - { offset: 0x67CB2B, size: 0x8, addend: 0x0, symName: __ZN4core5slice4sort6shared5pivot11median3_rec17h3be155342c6c44ddE, symObjAddr: 0x144E48, symBinAddr: 0x132244, symSize: 0x134 }
  - { offset: 0x67CD5C, size: 0x8, addend: 0x0, symName: __ZN4core5slice4sort6shared5pivot11median3_rec17h7aefd803b1dfacb5E, symObjAddr: 0x145A60, symBinAddr: 0x132E5C, symSize: 0xD0 }
  - { offset: 0x67CF93, size: 0x8, addend: 0x0, symName: __ZN4core9panicking13assert_failed17h91a4aade06645873E, symObjAddr: 0x126EF0, symBinAddr: 0x1470BC, symSize: 0x28 }
  - { offset: 0x67CFAE, size: 0x8, addend: 0x0, symName: __ZN4core9panicking13assert_failed17h3929c47b3b297d91E, symObjAddr: 0x149D54, symBinAddr: 0x14A730, symSize: 0x34 }
  - { offset: 0x67D8FE, size: 0x8, addend: 0x0, symName: '__ZN55_$LT$$RF$str$u20$as$u20$core..str..pattern..Pattern$GT$15is_contained_in17h430773999f818014E', symObjAddr: 0x14632C, symBinAddr: 0x133670, symSize: 0x390 }
  - { offset: 0x67DE2A, size: 0x8, addend: 0x0, symName: __ZN4core5error5Error7type_id17h2e9fc2d3cb58850fE, symObjAddr: 0x145FEC, symBinAddr: 0x133330, symSize: 0x14 }
  - { offset: 0x67DE47, size: 0x8, addend: 0x0, symName: __ZN4core5error5Error7type_id17h2e9fc2d3cb58850fE, symObjAddr: 0x145FEC, symBinAddr: 0x133330, symSize: 0x14 }
  - { offset: 0x67DE59, size: 0x8, addend: 0x0, symName: __ZN4core5error5Error11description17h4589987446fd5ac6E, symObjAddr: 0x146000, symBinAddr: 0x133344, symSize: 0x10 }
  - { offset: 0x67DE73, size: 0x8, addend: 0x0, symName: __ZN4core5error5Error7provide17h1f3fdd0db7c7e182E, symObjAddr: 0x146010, symBinAddr: 0x133354, symSize: 0x4 }
  - { offset: 0x67DEAD, size: 0x8, addend: 0x0, symName: '__ZN5alloc4sync16Arc$LT$T$C$A$GT$9drop_slow17hd1b70e3b8458b067E', symObjAddr: 0x125D74, symBinAddr: 0x116478, symSize: 0x6C }
  - { offset: 0x67E135, size: 0x8, addend: 0x0, symName: '__ZN5alloc4sync16Arc$LT$T$C$A$GT$9drop_slow17hc70d573bd026517aE', symObjAddr: 0x12EBEC, symBinAddr: 0x11EE1C, symSize: 0xA8 }
  - { offset: 0x67E5F7, size: 0x8, addend: 0x0, symName: '__ZN5alloc4sync16Arc$LT$T$C$A$GT$9drop_slow17hf2c19f3499b53b5fE', symObjAddr: 0x133D40, symBinAddr: 0x12281C, symSize: 0xC0 }
  - { offset: 0x67E8C5, size: 0x8, addend: 0x0, symName: '__ZN5alloc4sync16Arc$LT$T$C$A$GT$9drop_slow17ha50ff6a1a3f62c11E', symObjAddr: 0x13BD20, symBinAddr: 0x129548, symSize: 0x88 }
  - { offset: 0x67EB70, size: 0x8, addend: 0x0, symName: '__ZN5alloc4sync16Arc$LT$T$C$A$GT$9drop_slow17h71df4fd48406dc60E', symObjAddr: 0x147EE8, symBinAddr: 0x134F2C, symSize: 0x28 }
  - { offset: 0x67EB8E, size: 0x8, addend: 0x0, symName: '__ZN5alloc4sync16Arc$LT$T$C$A$GT$9drop_slow17h71df4fd48406dc60E', symObjAddr: 0x147EE8, symBinAddr: 0x134F2C, symSize: 0x28 }
  - { offset: 0x67EBA3, size: 0x8, addend: 0x0, symName: '__ZN5alloc4sync16Arc$LT$T$C$A$GT$9drop_slow17h71df4fd48406dc60E', symObjAddr: 0x147EE8, symBinAddr: 0x134F2C, symSize: 0x28 }
  - { offset: 0x67EBB8, size: 0x8, addend: 0x0, symName: '__ZN5alloc4sync16Arc$LT$T$C$A$GT$9drop_slow17h71df4fd48406dc60E', symObjAddr: 0x147EE8, symBinAddr: 0x134F2C, symSize: 0x28 }
  - { offset: 0x67F20F, size: 0x8, addend: 0x0, symName: '__ZN5alloc7raw_vec20RawVecInner$LT$A$GT$11finish_grow17h4077e62a367bc7b9E', symObjAddr: 0x126928, symBinAddr: 0x146EB8, symSize: 0x148 }
  - { offset: 0x67FB47, size: 0x8, addend: 0x0, symName: '__ZN5alloc7raw_vec20RawVecInner$LT$A$GT$14grow_amortized17h3db576a3a1182e40E', symObjAddr: 0x147684, symBinAddr: 0x14A0A0, symSize: 0x70 }
  - { offset: 0x67FBFF, size: 0x8, addend: 0x0, symName: '__ZN5alloc7raw_vec20RawVecInner$LT$A$GT$11finish_grow17h0882e8a07a9209c8E', symObjAddr: 0x1476F4, symBinAddr: 0x14A110, symSize: 0x88 }
  - { offset: 0x67FE53, size: 0x8, addend: 0x0, symName: '__ZN5alloc7raw_vec19RawVec$LT$T$C$A$GT$8grow_one17h3c120d29cb6a6b4fE', symObjAddr: 0x12B180, symBinAddr: 0x147104, symSize: 0x68 }
  - { offset: 0x68011D, size: 0x8, addend: 0x0, symName: '__ZN5alloc7raw_vec19RawVec$LT$T$C$A$GT$8grow_one17h090f7e6dbb8050b0E', symObjAddr: 0x131D54, symBinAddr: 0x148858, symSize: 0x68 }
  - { offset: 0x68027D, size: 0x8, addend: 0x0, symName: '__ZN5alloc7raw_vec19RawVec$LT$T$C$A$GT$8grow_one17h076af5c3b727c7faE', symObjAddr: 0x139AF4, symBinAddr: 0x149AA4, symSize: 0x68 }
  - { offset: 0x68030C, size: 0x8, addend: 0x0, symName: '__ZN5alloc7raw_vec19RawVec$LT$T$C$A$GT$8grow_one17hef233765ef5fcff7E', symObjAddr: 0x13AAAC, symBinAddr: 0x149B0C, symSize: 0x68 }
  - { offset: 0x68038E, size: 0x8, addend: 0x0, symName: '__ZN5alloc7raw_vec19RawVec$LT$T$C$A$GT$8grow_one17h26ee37121cbeae46E', symObjAddr: 0x13C2C8, symBinAddr: 0x149B74, symSize: 0x68 }
  - { offset: 0x680446, size: 0x8, addend: 0x0, symName: '__ZN5alloc7raw_vec19RawVec$LT$T$C$A$GT$8grow_one17h561d0d5b833eb902E', symObjAddr: 0x13F6F4, symBinAddr: 0x149D30, symSize: 0x68 }
  - { offset: 0x6804C8, size: 0x8, addend: 0x0, symName: '__ZN5alloc7raw_vec19RawVec$LT$T$C$A$GT$8grow_one17h4aa8e58bef6d4f51E', symObjAddr: 0x13F940, symBinAddr: 0x149D98, symSize: 0x68 }
  - { offset: 0x680573, size: 0x8, addend: 0x0, symName: '__ZN5alloc7raw_vec19RawVec$LT$T$C$A$GT$8grow_one17h172a6fcdd003e802E', symObjAddr: 0x140540, symBinAddr: 0x149E00, symSize: 0x68 }
  - { offset: 0x6805F5, size: 0x8, addend: 0x0, symName: '__ZN5alloc7raw_vec19RawVec$LT$T$C$A$GT$8grow_one17hd39f848ae2b60a23E', symObjAddr: 0x141248, symBinAddr: 0x149E68, symSize: 0x68 }
  - { offset: 0x680677, size: 0x8, addend: 0x0, symName: '__ZN5alloc7raw_vec19RawVec$LT$T$C$A$GT$8grow_one17h7eb2cbbb8a0db089E', symObjAddr: 0x1432F8, symBinAddr: 0x149ED0, symSize: 0x68 }
  - { offset: 0x6806F9, size: 0x8, addend: 0x0, symName: '__ZN5alloc7raw_vec19RawVec$LT$T$C$A$GT$8grow_one17h0bee2fa1ccfa10eaE', symObjAddr: 0x143360, symBinAddr: 0x149F38, symSize: 0x68 }
  - { offset: 0x6807B2, size: 0x8, addend: 0x0, symName: '__ZN5alloc7raw_vec19RawVec$LT$T$C$A$GT$8grow_one17h75b7531a042fa7ccE', symObjAddr: 0x14765C, symBinAddr: 0x14A078, symSize: 0x28 }
  - { offset: 0x6809A8, size: 0x8, addend: 0x0, symName: '__ZN5alloc7raw_vec20RawVecInner$LT$A$GT$7reserve21do_reserve_and_handle17h8dee76af07027cbbE', symObjAddr: 0x126808, symBinAddr: 0x146E2C, symSize: 0x8C }
  - { offset: 0x68192D, size: 0x8, addend: 0x0, symName: '__ZN58_$LT$alloc..string..String$u20$as$u20$core..fmt..Write$GT$9write_str17hfaf892e59da79312E.1843', symObjAddr: 0x148BD8, symBinAddr: 0x135B88, symSize: 0x80 }
  - { offset: 0x681A7F, size: 0x8, addend: 0x0, symName: '__ZN58_$LT$alloc..string..String$u20$as$u20$core..fmt..Write$GT$10write_char17h5a90e0e0b6d91f2fE.1844', symObjAddr: 0x148C58, symBinAddr: 0x135C08, symSize: 0x120 }
  - { offset: 0x681C93, size: 0x8, addend: 0x0, symName: '__ZN64_$LT$alloc..ffi..c_str..NulError$u20$as$u20$core..fmt..Debug$GT$3fmt17h168a13496cd5cc5cE', symObjAddr: 0x147F24, symBinAddr: 0x134F68, symSize: 0x3A0 }
  - { offset: 0x682530, size: 0x8, addend: 0x0, symName: '__ZN5alloc11collections5btree3map25IntoIter$LT$K$C$V$C$A$GT$10dying_next17h7a8ee336420e7b95E', symObjAddr: 0x13C0D0, symBinAddr: 0x1298F8, symSize: 0x188 }
  - { offset: 0x6832E3, size: 0x8, addend: 0x0, symName: __ZN6object4read7archive13ArchiveMember5parse17h95faa19ee50b9bbfE, symObjAddr: 0x12F5F8, symBinAddr: 0x11F828, symSize: 0xC60 }
  - { offset: 0x684878, size: 0x8, addend: 0x0, symName: '__ZN5gimli4read5dwarf14Dwarf$LT$R$GT$11attr_string17h689adca9e21a2f4aE', symObjAddr: 0x1326D4, symBinAddr: 0x1211B0, symSize: 0x220 }
  - { offset: 0x684F95, size: 0x8, addend: 0x0, symName: '__ZN5gimli4read5dwarf13Unit$LT$R$GT$3new17h89cbf227e57a51d0E', symObjAddr: 0x13DB7C, symBinAddr: 0x12B1E8, symSize: 0x1B78 }
  - { offset: 0x6889F7, size: 0x8, addend: 0x0, symName: '__ZN5gimli4read7aranges30ArangeHeader$LT$R$C$Offset$GT$5parse17ha948e1d4548f6d11E', symObjAddr: 0x13D1B0, symBinAddr: 0x12A81C, symSize: 0x2A8 }
  - { offset: 0x689406, size: 0x8, addend: 0x0, symName: '__ZN5gimli4read4unit18Attribute$LT$R$GT$5value17h151f62fffb6fbf33E', symObjAddr: 0x13740C, symBinAddr: 0x124D04, symSize: 0x808 }
  - { offset: 0x689A84, size: 0x8, addend: 0x0, symName: '__ZN5gimli4read4unit22EntriesCursor$LT$R$GT$10next_entry17h7c1af575df8a4674E', symObjAddr: 0x13C378, symBinAddr: 0x129AF0, symSize: 0x2F4 }
  - { offset: 0x68A0DD, size: 0x8, addend: 0x0, symName: __ZN5gimli4read4unit15parse_attribute17h27e9c78b8c1ac48bE, symObjAddr: 0x1353D8, symBinAddr: 0x122CD0, symSize: 0xF10 }
  - { offset: 0x68C960, size: 0x8, addend: 0x0, symName: '__ZN5gimli4read4unit32AttributeValue$LT$R$C$Offset$GT$8u8_value17h50e14451dcb8cad7E', symObjAddr: 0x139414, symBinAddr: 0x126D0C, symSize: 0x94 }
  - { offset: 0x68C996, size: 0x8, addend: 0x0, symName: '__ZN5gimli4read4unit32AttributeValue$LT$R$C$Offset$GT$9u16_value17h2d7eaf37ff0a5842E', symObjAddr: 0x1394A8, symBinAddr: 0x126DA0, symSize: 0x94 }
  - { offset: 0x68C9CD, size: 0x8, addend: 0x0, symName: __ZN5gimli4read4unit15skip_attributes17he0f07f55939a5ca1E, symObjAddr: 0x13953C, symBinAddr: 0x126E34, symSize: 0x5B8 }
  - { offset: 0x68D288, size: 0x8, addend: 0x0, symName: '__ZN5gimli4read4unit33DebugInfoUnitHeadersIter$LT$R$GT$4next17h4d1dce6cff058e13E', symObjAddr: 0x13D55C, symBinAddr: 0x12ABC8, symSize: 0x51C }
  - { offset: 0x68E3E8, size: 0x8, addend: 0x0, symName: __ZN5gimli4read6reader6Reader12read_sleb12817h8557ab285ed9094cE, symObjAddr: 0x131B18, symBinAddr: 0x12065C, symSize: 0x23C }
  - { offset: 0x68E4DC, size: 0x8, addend: 0x0, symName: __ZN5gimli4read6reader6Reader17read_sized_offset17hec2b40ed1e51cae5E, symObjAddr: 0x13A7D8, symBinAddr: 0x128068, symSize: 0x10C }
  - { offset: 0x68E821, size: 0x8, addend: 0x0, symName: __ZN5gimli4read6reader6Reader11read_offset17h46e8a2a18e8b10b8E, symObjAddr: 0x13A8E4, symBinAddr: 0x128174, symSize: 0xB4 }
  - { offset: 0x68EA4C, size: 0x8, addend: 0x0, symName: __ZN5gimli4read6reader6Reader12read_uleb12817h62b12b0daaddce59E, symObjAddr: 0x1403B0, symBinAddr: 0x12D94C, symSize: 0xAC }
  - { offset: 0x68EE1D, size: 0x8, addend: 0x0, symName: '__ZN5gimli4read8rnglists20RngListIter$LT$R$GT$4next17ha0add38c23e78896E', symObjAddr: 0x139B5C, symBinAddr: 0x1273EC, symSize: 0xC7C }
  - { offset: 0x691606, size: 0x8, addend: 0x0, symName: '__ZN5gimli4read5index18UnitIndex$LT$R$GT$5parse17h5f35e7620a98c0b5E', symObjAddr: 0x13F9A8, symBinAddr: 0x12CF44, symSize: 0x6E8 }
  - { offset: 0x691D0B, size: 0x8, addend: 0x0, symName: '__ZN5gimli4read4line27FileEntry$LT$R$C$Offset$GT$5parse17h118cfabb3c070fa8E', symObjAddr: 0x140850, symBinAddr: 0x12DD84, symSize: 0x1E8 }
  - { offset: 0x691FEB, size: 0x8, addend: 0x0, symName: '__ZN85_$LT$gimli..read..line..FileEntry$LT$R$C$Offset$GT$$u20$as$u20$core..clone..Clone$GT$5clone17hdc0c2b97d81a06f4E', symObjAddr: 0x131944, symBinAddr: 0x120488, symSize: 0x1D4 }
  - { offset: 0x692061, size: 0x8, addend: 0x0, symName: __ZN5gimli4read4line15FileEntryFormat5parse17hc9f01ae9af9bf080E, symObjAddr: 0x140100, symBinAddr: 0x12D69C, symSize: 0x2B0 }
  - { offset: 0x692852, size: 0x8, addend: 0x0, symName: __ZN5gimli4read4line18parse_directory_v517h87174ca6c4797958E, symObjAddr: 0x14045C, symBinAddr: 0x12D9F8, symSize: 0xE4 }
  - { offset: 0x6928E5, size: 0x8, addend: 0x0, symName: __ZN5gimli4read4line13parse_file_v517h5e7878f8ccab2686E, symObjAddr: 0x1405A8, symBinAddr: 0x12DADC, symSize: 0x2A8 }
  - { offset: 0x692A72, size: 0x8, addend: 0x0, symName: __ZN5gimli4read4line15parse_attribute17h7b128c67c97fa15cE, symObjAddr: 0x140A38, symBinAddr: 0x12DF6C, symSize: 0x810 }
  - { offset: 0x694413, size: 0x8, addend: 0x0, symName: '__ZN9addr2line4unit16ResUnit$LT$R$GT$25find_function_or_location28_$u7b$$u7b$closure$u7d$$u7d$17hec4a556de48c3644E', symObjAddr: 0x133E00, symBinAddr: 0x1228DC, symSize: 0x3F4 }
  - { offset: 0x694771, size: 0x8, addend: 0x0, symName: '__ZN9addr2line4unit16ResUnit$LT$R$GT$25find_function_or_location17h60e6b77d3a359b80E', symObjAddr: 0x13355C, symBinAddr: 0x122038, symSize: 0x3C0 }
  - { offset: 0x694CDC, size: 0x8, addend: 0x0, symName: __ZN9addr2line4line11render_file17hef77e94975b1e8a7E, symObjAddr: 0x132114, symBinAddr: 0x120BF0, symSize: 0x45C }
  - { offset: 0x695760, size: 0x8, addend: 0x0, symName: '__ZN9addr2line6lookup30LoopingLookup$LT$T$C$L$C$F$GT$10new_lookup17h094a85c8d7ca55ebE', symObjAddr: 0x13391C, symBinAddr: 0x1223F8, symSize: 0x424 }
  - { offset: 0x695CFC, size: 0x8, addend: 0x0, symName: '__ZN9addr2line5frame18FrameIter$LT$R$GT$4next17h87aba3194b4c661eE', symObjAddr: 0x12F348, symBinAddr: 0x11F578, symSize: 0x2B0 }
  - { offset: 0x69633E, size: 0x8, addend: 0x0, symName: '__ZN9addr2line8function17Function$LT$R$GT$14parse_children17hdf89f5cee4cf20adE', symObjAddr: 0x1362E8, symBinAddr: 0x123BE0, symSize: 0x1124 }
  - { offset: 0x697B99, size: 0x8, addend: 0x0, symName: __ZN9addr2line8function9name_attr17h131019629f5ce611E, symObjAddr: 0x137C14, symBinAddr: 0x12550C, symSize: 0x284 }
  - { offset: 0x697E78, size: 0x8, addend: 0x0, symName: __ZN9addr2line8function10name_entry17h2bb809ac1f153239E, symObjAddr: 0x139054, symBinAddr: 0x12694C, symSize: 0x3C0 }
  - { offset: 0x69834D, size: 0x8, addend: 0x0, symName: _OUTLINED_FUNCTION_1, symObjAddr: 0x149DA0, symBinAddr: 0x136944, symSize: 0xC }
  - { offset: 0x698365, size: 0x8, addend: 0x0, symName: _OUTLINED_FUNCTION_2, symObjAddr: 0x149DAC, symBinAddr: 0x136950, symSize: 0xC }
  - { offset: 0x69837D, size: 0x8, addend: 0x0, symName: _OUTLINED_FUNCTION_3, symObjAddr: 0x149DB8, symBinAddr: 0x13695C, symSize: 0xC }
  - { offset: 0x698395, size: 0x8, addend: 0x0, symName: _OUTLINED_FUNCTION_4, symObjAddr: 0x149DC4, symBinAddr: 0x136968, symSize: 0xC }
  - { offset: 0x6983AD, size: 0x8, addend: 0x0, symName: _OUTLINED_FUNCTION_5, symObjAddr: 0x149DD0, symBinAddr: 0x136974, symSize: 0xC }
  - { offset: 0x6983C5, size: 0x8, addend: 0x0, symName: _OUTLINED_FUNCTION_6, symObjAddr: 0x149DDC, symBinAddr: 0x136980, symSize: 0x8 }
  - { offset: 0x6983DD, size: 0x8, addend: 0x0, symName: _OUTLINED_FUNCTION_7, symObjAddr: 0x149DE4, symBinAddr: 0x136988, symSize: 0x8 }
  - { offset: 0x6983F5, size: 0x8, addend: 0x0, symName: _OUTLINED_FUNCTION_8, symObjAddr: 0x149DEC, symBinAddr: 0x136990, symSize: 0x24 }
  - { offset: 0x69840D, size: 0x8, addend: 0x0, symName: _OUTLINED_FUNCTION_9, symObjAddr: 0x149E10, symBinAddr: 0x1369B4, symSize: 0x8 }
  - { offset: 0x698425, size: 0x8, addend: 0x0, symName: _OUTLINED_FUNCTION_11, symObjAddr: 0x149E2C, symBinAddr: 0x1369D0, symSize: 0x14 }
  - { offset: 0x69843D, size: 0x8, addend: 0x0, symName: _OUTLINED_FUNCTION_12, symObjAddr: 0x149E40, symBinAddr: 0x1369E4, symSize: 0x8 }
  - { offset: 0x698455, size: 0x8, addend: 0x0, symName: _OUTLINED_FUNCTION_13, symObjAddr: 0x149E48, symBinAddr: 0x1369EC, symSize: 0x8 }
  - { offset: 0x69846D, size: 0x8, addend: 0x0, symName: _OUTLINED_FUNCTION_14, symObjAddr: 0x149E50, symBinAddr: 0x1369F4, symSize: 0xC }
  - { offset: 0x698485, size: 0x8, addend: 0x0, symName: _OUTLINED_FUNCTION_15, symObjAddr: 0x149E5C, symBinAddr: 0x136A00, symSize: 0x8 }
  - { offset: 0x69849D, size: 0x8, addend: 0x0, symName: _OUTLINED_FUNCTION_17, symObjAddr: 0x149E74, symBinAddr: 0x136A18, symSize: 0x8 }
  - { offset: 0x6984B5, size: 0x8, addend: 0x0, symName: _OUTLINED_FUNCTION_18, symObjAddr: 0x149E7C, symBinAddr: 0x136A20, symSize: 0x10 }
  - { offset: 0x6984CD, size: 0x8, addend: 0x0, symName: _OUTLINED_FUNCTION_19, symObjAddr: 0x149E8C, symBinAddr: 0x136A30, symSize: 0x10 }
  - { offset: 0x6984E5, size: 0x8, addend: 0x0, symName: _OUTLINED_FUNCTION_20, symObjAddr: 0x149E9C, symBinAddr: 0x136A40, symSize: 0x10 }
  - { offset: 0x6984FD, size: 0x8, addend: 0x0, symName: _OUTLINED_FUNCTION_21, symObjAddr: 0x149EAC, symBinAddr: 0x136A50, symSize: 0x8 }
  - { offset: 0x698515, size: 0x8, addend: 0x0, symName: _OUTLINED_FUNCTION_22, symObjAddr: 0x149EB4, symBinAddr: 0x136A58, symSize: 0x10 }
  - { offset: 0x69852D, size: 0x8, addend: 0x0, symName: _OUTLINED_FUNCTION_23, symObjAddr: 0x149EC4, symBinAddr: 0x136A68, symSize: 0x10 }
  - { offset: 0x698545, size: 0x8, addend: 0x0, symName: _OUTLINED_FUNCTION_24, symObjAddr: 0x149ED4, symBinAddr: 0x136A78, symSize: 0x18 }
  - { offset: 0x69855D, size: 0x8, addend: 0x0, symName: _OUTLINED_FUNCTION_25, symObjAddr: 0x149EEC, symBinAddr: 0x136A90, symSize: 0x18 }
  - { offset: 0x698575, size: 0x8, addend: 0x0, symName: _OUTLINED_FUNCTION_26, symObjAddr: 0x149F04, symBinAddr: 0x136AA8, symSize: 0xC }
  - { offset: 0x69858D, size: 0x8, addend: 0x0, symName: _OUTLINED_FUNCTION_27, symObjAddr: 0x149F10, symBinAddr: 0x136AB4, symSize: 0xC }
  - { offset: 0x6985A5, size: 0x8, addend: 0x0, symName: _OUTLINED_FUNCTION_28, symObjAddr: 0x149F1C, symBinAddr: 0x136AC0, symSize: 0x8 }
  - { offset: 0x6985BD, size: 0x8, addend: 0x0, symName: _OUTLINED_FUNCTION_29, symObjAddr: 0x149F24, symBinAddr: 0x136AC8, symSize: 0xC }
  - { offset: 0x6985D5, size: 0x8, addend: 0x0, symName: _OUTLINED_FUNCTION_31, symObjAddr: 0x149F38, symBinAddr: 0x136ADC, symSize: 0x8 }
  - { offset: 0x6985ED, size: 0x8, addend: 0x0, symName: _OUTLINED_FUNCTION_32, symObjAddr: 0x149F40, symBinAddr: 0x136AE4, symSize: 0xC }
  - { offset: 0x698605, size: 0x8, addend: 0x0, symName: _OUTLINED_FUNCTION_33, symObjAddr: 0x149F4C, symBinAddr: 0x136AF0, symSize: 0xC }
  - { offset: 0x69861D, size: 0x8, addend: 0x0, symName: _OUTLINED_FUNCTION_35, symObjAddr: 0x149F64, symBinAddr: 0x136B08, symSize: 0xC }
  - { offset: 0x698635, size: 0x8, addend: 0x0, symName: _OUTLINED_FUNCTION_36, symObjAddr: 0x149F70, symBinAddr: 0x136B14, symSize: 0xC }
  - { offset: 0x69864D, size: 0x8, addend: 0x0, symName: _OUTLINED_FUNCTION_37, symObjAddr: 0x149F7C, symBinAddr: 0x136B20, symSize: 0xC }
  - { offset: 0x698665, size: 0x8, addend: 0x0, symName: _OUTLINED_FUNCTION_38, symObjAddr: 0x149F88, symBinAddr: 0x136B2C, symSize: 0xC }
  - { offset: 0x69867D, size: 0x8, addend: 0x0, symName: _OUTLINED_FUNCTION_39, symObjAddr: 0x149F94, symBinAddr: 0x136B38, symSize: 0x10 }
  - { offset: 0x698695, size: 0x8, addend: 0x0, symName: _OUTLINED_FUNCTION_40, symObjAddr: 0x149FA4, symBinAddr: 0x136B48, symSize: 0xC }
  - { offset: 0x6986AD, size: 0x8, addend: 0x0, symName: _OUTLINED_FUNCTION_41, symObjAddr: 0x149FB0, symBinAddr: 0x136B54, symSize: 0x14 }
  - { offset: 0x6986C5, size: 0x8, addend: 0x0, symName: _OUTLINED_FUNCTION_42, symObjAddr: 0x149FC4, symBinAddr: 0x136B68, symSize: 0x14 }
  - { offset: 0x6986DD, size: 0x8, addend: 0x0, symName: _OUTLINED_FUNCTION_43, symObjAddr: 0x149FD8, symBinAddr: 0x136B7C, symSize: 0xC }
  - { offset: 0x6986F5, size: 0x8, addend: 0x0, symName: _OUTLINED_FUNCTION_44, symObjAddr: 0x149FE4, symBinAddr: 0x136B88, symSize: 0x14 }
  - { offset: 0x69870D, size: 0x8, addend: 0x0, symName: _OUTLINED_FUNCTION_45, symObjAddr: 0x149FF8, symBinAddr: 0x136B9C, symSize: 0xC }
  - { offset: 0x698725, size: 0x8, addend: 0x0, symName: _OUTLINED_FUNCTION_46, symObjAddr: 0x14A004, symBinAddr: 0x136BA8, symSize: 0xC }
  - { offset: 0x69873D, size: 0x8, addend: 0x0, symName: _OUTLINED_FUNCTION_47, symObjAddr: 0x14A010, symBinAddr: 0x136BB4, symSize: 0xC }
  - { offset: 0x3563A6, size: 0x8, addend: 0x0, symName: __ZN6memchr4arch3all6twoway5Shift7forward17h57f77f27e15d1095E, symObjAddr: 0x9CFD8, symBinAddr: 0x98158, symSize: 0xE0 }
  - { offset: 0x3564E1, size: 0x8, addend: 0x0, symName: __ZN6memchr4arch3all9rabinkarp12is_equal_raw17h69f5c6bc7234b8e6E, symObjAddr: 0x9D0B8, symBinAddr: 0x13C288, symSize: 0x68 }
  - { offset: 0x356536, size: 0x8, addend: 0x0, symName: __ZN6memchr4arch3all9rabinkarp12is_equal_raw17h69f5c6bc7234b8e6E, symObjAddr: 0x9D0B8, symBinAddr: 0x13C288, symSize: 0x68 }
  - { offset: 0x35679D, size: 0x8, addend: 0x0, symName: '__ZN73_$LT$memchr..arch..all..rabinkarp..Finder$u20$as$u20$core..fmt..Debug$GT$3fmt17h17aadc036576760aE', symObjAddr: 0x9E3C4, symBinAddr: 0x994DC, symSize: 0xEC }
  - { offset: 0x3568AE, size: 0x8, addend: 0x0, symName: '__ZN71_$LT$memchr..arch..all..rabinkarp..Hash$u20$as$u20$core..fmt..Debug$GT$3fmt17hcaaf673bcdbd6edaE', symObjAddr: 0x9E4B0, symBinAddr: 0x995C8, symSize: 0x12C }
  - { offset: 0x357582, size: 0x8, addend: 0x0, symName: __ZN6memchr6memmem8searcher18searcher_kind_neon17h092fa7ee855c028dE, symObjAddr: 0x9D120, symBinAddr: 0x98238, symSize: 0x46C }
  - { offset: 0x35867D, size: 0x8, addend: 0x0, symName: __ZN6memchr6memmem8searcher19prefilter_kind_neon17hea35cf409b47e970E, symObjAddr: 0x9D58C, symBinAddr: 0x986A4, symSize: 0x39C }
  - { offset: 0x3586D5, size: 0x8, addend: 0x0, symName: __ZN6memchr6memmem8searcher19prefilter_kind_neon17hea35cf409b47e970E, symObjAddr: 0x9D58C, symBinAddr: 0x986A4, symSize: 0x39C }
  - { offset: 0x3586F1, size: 0x8, addend: 0x0, symName: __ZN6memchr6memmem8searcher19prefilter_kind_neon17hea35cf409b47e970E, symObjAddr: 0x9D58C, symBinAddr: 0x986A4, symSize: 0x39C }
  - { offset: 0x35913E, size: 0x8, addend: 0x0, symName: __ZN6memchr6memmem8searcher22searcher_kind_one_byte17hce683a44294b77b1E, symObjAddr: 0x9D928, symBinAddr: 0x98A40, symSize: 0x20C }
  - { offset: 0x359F08, size: 0x8, addend: 0x0, symName: __ZN6memchr6memmem8searcher36searcher_kind_two_way_with_prefilter17hbbf0602aa4846384E, symObjAddr: 0x9DB34, symBinAddr: 0x98C4C, symSize: 0x590 }
  - { offset: 0x35A8FE, size: 0x8, addend: 0x0, symName: '__ZN71_$LT$memchr..memmem..searcher..Searcher$u20$as$u20$core..fmt..Debug$GT$3fmt17h198ad80050502febE', symObjAddr: 0x9E0C4, symBinAddr: 0x991DC, symSize: 0x300 }
  - { offset: 0x35C6D6, size: 0x8, addend: 0x0, symName: __ZN6memchr4arch3all6twoway5Shift7forward17h57f77f27e15d1095E, symObjAddr: 0x9CFD8, symBinAddr: 0x98158, symSize: 0xE0 }
  - { offset: 0x6A584B, size: 0x8, addend: 0x0, symName: __RNvCs1Y7DaGC1cwg_7___rustc18___rust_start_panic, symObjAddr: 0x9EC64, symBinAddr: 0x99D7C, symSize: 0x98 }
  - { offset: 0x6A5987, size: 0x8, addend: 0x0, symName: __ZN12panic_unwind3imp5panic17exception_cleanup17hbe8f77262e7f0ef7E, symObjAddr: 0x9ED6C, symBinAddr: 0x99E84, symSize: 0x18 }
  - { offset: 0x6A59B0, size: 0x8, addend: 0x0, symName: __RNvCs1Y7DaGC1cwg_7___rustc18___rust_start_panic, symObjAddr: 0x9EC64, symBinAddr: 0x99D7C, symSize: 0x98 }
  - { offset: 0x6A5AA1, size: 0x8, addend: 0x0, symName: '__ZN4core3ptr49drop_in_place$LT$panic_unwind..imp..Exception$GT$17hc412668c4a436750E', symObjAddr: 0x9ECFC, symBinAddr: 0x99E14, symSize: 0x70 }
  - { offset: 0x6A5C53, size: 0x8, addend: 0x0, symName: '__ZN4core3ptr74drop_in_place$LT$alloc..boxed..Box$LT$panic_unwind..imp..Exception$GT$$GT$17ha6ad7fd972ad86c2E', symObjAddr: 0x9ED84, symBinAddr: 0x99E9C, symSize: 0x74 }
  - { offset: 0x3CF01E, size: 0x8, addend: 0x0, symName: '__ZN105_$LT$regex_automata..meta..strategy..ReverseInner$u20$as$u20$regex_automata..meta..strategy..Strategy$GT$12memory_usage17h01d329bb2cada3d5E', symObjAddr: 0xAE2D8, symBinAddr: 0xA2A34, symSize: 0xB4 }
  - { offset: 0x3CF4C1, size: 0x8, addend: 0x0, symName: '__ZN89_$LT$aho_corasick..nfa..contiguous..NFA$u20$as$u20$aho_corasick..automaton..Automaton$GT$11start_state17h308ffc0ec7e1d64eE.1669', symObjAddr: 0xF21A8, symBinAddr: 0xE3330, symSize: 0x1C }
  - { offset: 0x3CF4FF, size: 0x8, addend: 0x0, symName: '__ZN89_$LT$aho_corasick..nfa..contiguous..NFA$u20$as$u20$aho_corasick..automaton..Automaton$GT$10next_state17ha20413316e9f9fb1E.1670', symObjAddr: 0xF21C4, symBinAddr: 0xE334C, symSize: 0x298 }
  - { offset: 0x3CFAED, size: 0x8, addend: 0x0, symName: '__ZN89_$LT$aho_corasick..nfa..contiguous..NFA$u20$as$u20$aho_corasick..automaton..Automaton$GT$10is_special17h542b873b98fba045E.1671', symObjAddr: 0xF245C, symBinAddr: 0xE35E4, symSize: 0x10 }
  - { offset: 0x3CFB2A, size: 0x8, addend: 0x0, symName: '__ZN89_$LT$aho_corasick..nfa..contiguous..NFA$u20$as$u20$aho_corasick..automaton..Automaton$GT$10is_special17h542b873b98fba045E.1671', symObjAddr: 0xF245C, symBinAddr: 0xE35E4, symSize: 0x10 }
  - { offset: 0x3CFB48, size: 0x8, addend: 0x0, symName: '__ZN89_$LT$aho_corasick..nfa..contiguous..NFA$u20$as$u20$aho_corasick..automaton..Automaton$GT$10is_special17h542b873b98fba045E.1671', symObjAddr: 0xF245C, symBinAddr: 0xE35E4, symSize: 0x10 }
  - { offset: 0x3CFB67, size: 0x8, addend: 0x0, symName: '__ZN89_$LT$aho_corasick..nfa..contiguous..NFA$u20$as$u20$aho_corasick..automaton..Automaton$GT$10is_special17h542b873b98fba045E.1671', symObjAddr: 0xF245C, symBinAddr: 0xE35E4, symSize: 0x10 }
  - { offset: 0x3CFB86, size: 0x8, addend: 0x0, symName: '__ZN89_$LT$aho_corasick..nfa..contiguous..NFA$u20$as$u20$aho_corasick..automaton..Automaton$GT$10is_special17h542b873b98fba045E.1671', symObjAddr: 0xF245C, symBinAddr: 0xE35E4, symSize: 0x10 }
  - { offset: 0x3CFBE6, size: 0x8, addend: 0x0, symName: '__ZN89_$LT$aho_corasick..nfa..contiguous..NFA$u20$as$u20$aho_corasick..automaton..Automaton$GT$8is_match17h1d3cd76fa435b1e9E.1673', symObjAddr: 0xF246C, symBinAddr: 0xE35F4, symSize: 0x14 }
  - { offset: 0x3CFC25, size: 0x8, addend: 0x0, symName: '__ZN89_$LT$aho_corasick..nfa..contiguous..NFA$u20$as$u20$aho_corasick..automaton..Automaton$GT$8is_start17h08f497b48f831c67E.1674', symObjAddr: 0xF2480, symBinAddr: 0xE3608, symSize: 0x18 }
  - { offset: 0x3CFC66, size: 0x8, addend: 0x0, symName: '__ZN89_$LT$aho_corasick..nfa..contiguous..NFA$u20$as$u20$aho_corasick..automaton..Automaton$GT$8is_start17h08f497b48f831c67E.1674', symObjAddr: 0xF2480, symBinAddr: 0xE3608, symSize: 0x18 }
  - { offset: 0x3CFC85, size: 0x8, addend: 0x0, symName: '__ZN89_$LT$aho_corasick..nfa..contiguous..NFA$u20$as$u20$aho_corasick..automaton..Automaton$GT$8is_start17h08f497b48f831c67E.1674', symObjAddr: 0xF2480, symBinAddr: 0xE3608, symSize: 0x18 }
  - { offset: 0x3CFCA4, size: 0x8, addend: 0x0, symName: '__ZN89_$LT$aho_corasick..nfa..contiguous..NFA$u20$as$u20$aho_corasick..automaton..Automaton$GT$10match_kind17hbe6ae29598c143e0E.1675', symObjAddr: 0xF2498, symBinAddr: 0xE3620, symSize: 0x8 }
  - { offset: 0x3CFCD4, size: 0x8, addend: 0x0, symName: '__ZN89_$LT$aho_corasick..nfa..contiguous..NFA$u20$as$u20$aho_corasick..automaton..Automaton$GT$9match_len17ha01e196bff92814eE.1676', symObjAddr: 0xF24A0, symBinAddr: 0xE3628, symSize: 0xA8 }
  - { offset: 0x3CFE85, size: 0x8, addend: 0x0, symName: '__ZN89_$LT$aho_corasick..nfa..contiguous..NFA$u20$as$u20$aho_corasick..automaton..Automaton$GT$13match_pattern17hc89e4172460d52c5E.1677', symObjAddr: 0xF2548, symBinAddr: 0xE36D0, symSize: 0xE8 }
  - { offset: 0x3D007B, size: 0x8, addend: 0x0, symName: '__ZN89_$LT$aho_corasick..nfa..contiguous..NFA$u20$as$u20$aho_corasick..automaton..Automaton$GT$12patterns_len17h18ddfea968f79fa9E.1678', symObjAddr: 0xF2630, symBinAddr: 0xE37B8, symSize: 0x8 }
  - { offset: 0x3D00AD, size: 0x8, addend: 0x0, symName: '__ZN89_$LT$aho_corasick..nfa..contiguous..NFA$u20$as$u20$aho_corasick..automaton..Automaton$GT$12patterns_len17h18ddfea968f79fa9E.1678', symObjAddr: 0xF2630, symBinAddr: 0xE37B8, symSize: 0x8 }
  - { offset: 0x3D00CA, size: 0x8, addend: 0x0, symName: '__ZN89_$LT$aho_corasick..nfa..contiguous..NFA$u20$as$u20$aho_corasick..automaton..Automaton$GT$11pattern_len17hd96b0b894a581624E.1679', symObjAddr: 0xF2638, symBinAddr: 0xE37C0, symSize: 0x34 }
  - { offset: 0x3D0257, size: 0x8, addend: 0x0, symName: '__ZN89_$LT$aho_corasick..nfa..contiguous..NFA$u20$as$u20$aho_corasick..automaton..Automaton$GT$15min_pattern_len17h5fff098149f9e0b6E.1680', symObjAddr: 0xF266C, symBinAddr: 0xE37F4, symSize: 0x8 }
  - { offset: 0x3D0287, size: 0x8, addend: 0x0, symName: '__ZN89_$LT$aho_corasick..nfa..contiguous..NFA$u20$as$u20$aho_corasick..automaton..Automaton$GT$15max_pattern_len17he853ba8ffda88645E.1681', symObjAddr: 0xF2674, symBinAddr: 0xE37FC, symSize: 0x8 }
  - { offset: 0x3D02B7, size: 0x8, addend: 0x0, symName: '__ZN89_$LT$aho_corasick..nfa..contiguous..NFA$u20$as$u20$aho_corasick..automaton..Automaton$GT$12memory_usage17hcff07e7c2c02a22bE.1682', symObjAddr: 0xF267C, symBinAddr: 0xE3804, symSize: 0x24 }
  - { offset: 0x3D02E9, size: 0x8, addend: 0x0, symName: '__ZN89_$LT$aho_corasick..nfa..contiguous..NFA$u20$as$u20$aho_corasick..automaton..Automaton$GT$12memory_usage17hcff07e7c2c02a22bE.1682', symObjAddr: 0xF267C, symBinAddr: 0xE3804, symSize: 0x24 }
  - { offset: 0x3D035D, size: 0x8, addend: 0x0, symName: '__ZN89_$LT$aho_corasick..nfa..contiguous..NFA$u20$as$u20$aho_corasick..automaton..Automaton$GT$9prefilter17hb2b9e72d15d89087E.1683', symObjAddr: 0xF26A0, symBinAddr: 0xE3828, symSize: 0x10 }
  - { offset: 0x3D038F, size: 0x8, addend: 0x0, symName: '__ZN89_$LT$aho_corasick..nfa..contiguous..NFA$u20$as$u20$aho_corasick..automaton..Automaton$GT$9prefilter17hb2b9e72d15d89087E.1683', symObjAddr: 0xF26A0, symBinAddr: 0xE3828, symSize: 0x10 }
  - { offset: 0x3D0EE9, size: 0x8, addend: 0x0, symName: '__ZN74_$LT$aho_corasick..util..error..MatchError$u20$as$u20$core..fmt..Debug$GT$3fmt17h9be5b103c5824640E', symObjAddr: 0xAE7F0, symBinAddr: 0xA2F4C, symSize: 0x120 }
  - { offset: 0x3D130B, size: 0x8, addend: 0x0, symName: '__ZN77_$LT$aho_corasick..dfa..DFA$u20$as$u20$aho_corasick..automaton..Automaton$GT$11start_state17h84ddf002733c4e75E.1684', symObjAddr: 0xF26D8, symBinAddr: 0xE3860, symSize: 0x8C }
  - { offset: 0x3D1646, size: 0x8, addend: 0x0, symName: '__ZN77_$LT$aho_corasick..dfa..DFA$u20$as$u20$aho_corasick..automaton..Automaton$GT$10next_state17h3d1193f6281c183fE.1685', symObjAddr: 0xF2764, symBinAddr: 0xE38EC, symSize: 0x3C }
  - { offset: 0x3D16A1, size: 0x8, addend: 0x0, symName: '__ZN77_$LT$aho_corasick..dfa..DFA$u20$as$u20$aho_corasick..automaton..Automaton$GT$10next_state17h3d1193f6281c183fE.1685', symObjAddr: 0xF2764, symBinAddr: 0xE38EC, symSize: 0x3C }
  - { offset: 0x3D17BD, size: 0x8, addend: 0x0, symName: '__ZN77_$LT$aho_corasick..dfa..DFA$u20$as$u20$aho_corasick..automaton..Automaton$GT$10is_special17h688202af865a2e66E.1686', symObjAddr: 0xF27A0, symBinAddr: 0xE3928, symSize: 0x10 }
  - { offset: 0x3D17FA, size: 0x8, addend: 0x0, symName: '__ZN77_$LT$aho_corasick..dfa..DFA$u20$as$u20$aho_corasick..automaton..Automaton$GT$10is_special17h688202af865a2e66E.1686', symObjAddr: 0xF27A0, symBinAddr: 0xE3928, symSize: 0x10 }
  - { offset: 0x3D1818, size: 0x8, addend: 0x0, symName: '__ZN77_$LT$aho_corasick..dfa..DFA$u20$as$u20$aho_corasick..automaton..Automaton$GT$10is_special17h688202af865a2e66E.1686', symObjAddr: 0xF27A0, symBinAddr: 0xE3928, symSize: 0x10 }
  - { offset: 0x3D1837, size: 0x8, addend: 0x0, symName: '__ZN77_$LT$aho_corasick..dfa..DFA$u20$as$u20$aho_corasick..automaton..Automaton$GT$10is_special17h688202af865a2e66E.1686', symObjAddr: 0xF27A0, symBinAddr: 0xE3928, symSize: 0x10 }
  - { offset: 0x3D1856, size: 0x8, addend: 0x0, symName: '__ZN77_$LT$aho_corasick..dfa..DFA$u20$as$u20$aho_corasick..automaton..Automaton$GT$10is_special17h688202af865a2e66E.1686', symObjAddr: 0xF27A0, symBinAddr: 0xE3928, symSize: 0x10 }
  - { offset: 0x3D18B6, size: 0x8, addend: 0x0, symName: '__ZN77_$LT$aho_corasick..dfa..DFA$u20$as$u20$aho_corasick..automaton..Automaton$GT$7is_dead17h72dd7705de96a60eE.1687', symObjAddr: 0xF27B0, symBinAddr: 0xE3938, symSize: 0xC }
  - { offset: 0x3D18EF, size: 0x8, addend: 0x0, symName: '__ZN77_$LT$aho_corasick..dfa..DFA$u20$as$u20$aho_corasick..automaton..Automaton$GT$7is_dead17h72dd7705de96a60eE.1687', symObjAddr: 0xF27B0, symBinAddr: 0xE3938, symSize: 0xC }
  - { offset: 0x3D1903, size: 0x8, addend: 0x0, symName: '__ZN77_$LT$aho_corasick..dfa..DFA$u20$as$u20$aho_corasick..automaton..Automaton$GT$7is_dead17h72dd7705de96a60eE.1687', symObjAddr: 0xF27B0, symBinAddr: 0xE3938, symSize: 0xC }
  - { offset: 0x3D1917, size: 0x8, addend: 0x0, symName: '__ZN77_$LT$aho_corasick..dfa..DFA$u20$as$u20$aho_corasick..automaton..Automaton$GT$8is_match17h237b46d96e4f142bE.1688', symObjAddr: 0xF27BC, symBinAddr: 0xE3944, symSize: 0x14 }
  - { offset: 0x3D1952, size: 0x8, addend: 0x0, symName: '__ZN77_$LT$aho_corasick..dfa..DFA$u20$as$u20$aho_corasick..automaton..Automaton$GT$8is_start17h33992a9e65ad8876E.1689', symObjAddr: 0xF27D0, symBinAddr: 0xE3958, symSize: 0x18 }
  - { offset: 0x3D198F, size: 0x8, addend: 0x0, symName: '__ZN77_$LT$aho_corasick..dfa..DFA$u20$as$u20$aho_corasick..automaton..Automaton$GT$8is_start17h33992a9e65ad8876E.1689', symObjAddr: 0xF27D0, symBinAddr: 0xE3958, symSize: 0x18 }
  - { offset: 0x3D19AD, size: 0x8, addend: 0x0, symName: '__ZN77_$LT$aho_corasick..dfa..DFA$u20$as$u20$aho_corasick..automaton..Automaton$GT$8is_start17h33992a9e65ad8876E.1689', symObjAddr: 0xF27D0, symBinAddr: 0xE3958, symSize: 0x18 }
  - { offset: 0x3D19CC, size: 0x8, addend: 0x0, symName: '__ZN77_$LT$aho_corasick..dfa..DFA$u20$as$u20$aho_corasick..automaton..Automaton$GT$10match_kind17h53fb0ce8695b2b2aE.1690', symObjAddr: 0xF27E8, symBinAddr: 0xE3970, symSize: 0x8 }
  - { offset: 0x3D19FA, size: 0x8, addend: 0x0, symName: '__ZN77_$LT$aho_corasick..dfa..DFA$u20$as$u20$aho_corasick..automaton..Automaton$GT$9match_len17h697bc6cc487ef245E.1691', symObjAddr: 0xF27F0, symBinAddr: 0xE3978, symSize: 0x48 }
  - { offset: 0x3D1B88, size: 0x8, addend: 0x0, symName: '__ZN77_$LT$aho_corasick..dfa..DFA$u20$as$u20$aho_corasick..automaton..Automaton$GT$13match_pattern17h01650507259f6b5bE.1692', symObjAddr: 0xF2838, symBinAddr: 0xE39C0, symSize: 0x70 }
  - { offset: 0x3D1DF8, size: 0x8, addend: 0x0, symName: '__ZN77_$LT$aho_corasick..dfa..DFA$u20$as$u20$aho_corasick..automaton..Automaton$GT$12patterns_len17h0c11cfb65f858828E.1693', symObjAddr: 0xF28A8, symBinAddr: 0xE3A30, symSize: 0x8 }
  - { offset: 0x3D1E28, size: 0x8, addend: 0x0, symName: '__ZN77_$LT$aho_corasick..dfa..DFA$u20$as$u20$aho_corasick..automaton..Automaton$GT$12patterns_len17h0c11cfb65f858828E.1693', symObjAddr: 0xF28A8, symBinAddr: 0xE3A30, symSize: 0x8 }
  - { offset: 0x3D1E45, size: 0x8, addend: 0x0, symName: '__ZN77_$LT$aho_corasick..dfa..DFA$u20$as$u20$aho_corasick..automaton..Automaton$GT$11pattern_len17h27c2051f973d0120E.1694', symObjAddr: 0xF28B0, symBinAddr: 0xE3A38, symSize: 0x34 }
  - { offset: 0x3D1FD2, size: 0x8, addend: 0x0, symName: '__ZN77_$LT$aho_corasick..dfa..DFA$u20$as$u20$aho_corasick..automaton..Automaton$GT$15min_pattern_len17h4e5aae0794a433e6E.1695', symObjAddr: 0xF28E4, symBinAddr: 0xE3A6C, symSize: 0x8 }
  - { offset: 0x3D2002, size: 0x8, addend: 0x0, symName: '__ZN77_$LT$aho_corasick..dfa..DFA$u20$as$u20$aho_corasick..automaton..Automaton$GT$15max_pattern_len17h495eee4cfb98bb79E.1696', symObjAddr: 0xF28EC, symBinAddr: 0xE3A74, symSize: 0x8 }
  - { offset: 0x3D2031, size: 0x8, addend: 0x0, symName: '__ZN77_$LT$aho_corasick..dfa..DFA$u20$as$u20$aho_corasick..automaton..Automaton$GT$12memory_usage17h8d9711768ea39753E.1697', symObjAddr: 0xF28F4, symBinAddr: 0xE3A7C, symSize: 0x34 }
  - { offset: 0x3D2051, size: 0x8, addend: 0x0, symName: '__ZN77_$LT$aho_corasick..dfa..DFA$u20$as$u20$aho_corasick..automaton..Automaton$GT$12memory_usage17h8d9711768ea39753E.1697', symObjAddr: 0xF28F4, symBinAddr: 0xE3A7C, symSize: 0x34 }
  - { offset: 0x3D20C6, size: 0x8, addend: 0x0, symName: '__ZN77_$LT$aho_corasick..dfa..DFA$u20$as$u20$aho_corasick..automaton..Automaton$GT$9prefilter17h824bd0cdfc4a7821E.1698', symObjAddr: 0xF2928, symBinAddr: 0xE3AB0, symSize: 0x10 }
  - { offset: 0x3D20F8, size: 0x8, addend: 0x0, symName: '__ZN77_$LT$aho_corasick..dfa..DFA$u20$as$u20$aho_corasick..automaton..Automaton$GT$9prefilter17h824bd0cdfc4a7821E.1698', symObjAddr: 0xF2928, symBinAddr: 0xE3AB0, symSize: 0x10 }
  - { offset: 0x3D24DF, size: 0x8, addend: 0x0, symName: '__ZN79_$LT$aho_corasick..packed..rabinkarp..RabinKarp$u20$as$u20$core..fmt..Debug$GT$3fmt17h524abcdb161bd9f0E.1665', symObjAddr: 0xEEE64, symBinAddr: 0xE00A8, symSize: 0xAC }
  - { offset: 0x3D27ED, size: 0x8, addend: 0x0, symName: __ZN12aho_corasick9automaton9Automaton8try_find17h239f8cd5bb5e7efaE, symObjAddr: 0xF26B0, symBinAddr: 0xE3838, symSize: 0x10 }
  - { offset: 0x3D2835, size: 0x8, addend: 0x0, symName: __ZN12aho_corasick9automaton9Automaton20try_find_overlapping17hbf1be9e7a50783eeE, symObjAddr: 0xF26C0, symBinAddr: 0xE3848, symSize: 0x18 }
  - { offset: 0x3D288D, size: 0x8, addend: 0x0, symName: __ZN12aho_corasick9automaton9Automaton8try_find17hd5d3310a1b14b4ccE, symObjAddr: 0xF2938, symBinAddr: 0xE3AC0, symSize: 0x10 }
  - { offset: 0x3D28D5, size: 0x8, addend: 0x0, symName: __ZN12aho_corasick9automaton9Automaton20try_find_overlapping17h08206febbcfda983E, symObjAddr: 0xF2948, symBinAddr: 0xE3AD0, symSize: 0x4 }
  - { offset: 0x3DB09F, size: 0x8, addend: 0x0, symName: '__ZN62_$LT$T$u20$as$u20$alloc..vec..spec_from_elem..SpecFromElem$GT$9from_elem17h2ea7ab5b68cdc58fE', symObjAddr: 0xBC074, symBinAddr: 0xAFD7C, symSize: 0x1F0 }
  - { offset: 0x3DD08E, size: 0x8, addend: 0x0, symName: '__ZN65_$LT$alloc..vec..Vec$LT$T$C$A$GT$$u20$as$u20$core..fmt..Debug$GT$3fmt17hdab667b354d8d7f0E', symObjAddr: 0xE61D0, symBinAddr: 0xD7414, symSize: 0x200 }
  - { offset: 0x3DD3A3, size: 0x8, addend: 0x0, symName: '__ZN65_$LT$alloc..vec..Vec$LT$T$C$A$GT$$u20$as$u20$core..fmt..Debug$GT$3fmt17h8ee01d41513eb19eE', symObjAddr: 0xEEF10, symBinAddr: 0xE0154, symSize: 0x1FC }
  - { offset: 0x3DD6F6, size: 0x8, addend: 0x0, symName: '__ZN65_$LT$alloc..vec..Vec$LT$T$C$A$GT$$u20$as$u20$core..fmt..Debug$GT$3fmt17hca0f6cb7e7bfe03eE', symObjAddr: 0xEF6BC, symBinAddr: 0xE0900, symSize: 0x1F8 }
  - { offset: 0x3DDA0C, size: 0x8, addend: 0x0, symName: '__ZN65_$LT$alloc..vec..Vec$LT$T$C$A$GT$$u20$as$u20$core..fmt..Debug$GT$3fmt17h93226a1b82020f1fE', symObjAddr: 0xEF8B4, symBinAddr: 0xE0AF8, symSize: 0x1FC }
  - { offset: 0x3DDD60, size: 0x8, addend: 0x0, symName: '__ZN65_$LT$alloc..vec..Vec$LT$T$C$A$GT$$u20$as$u20$core..fmt..Debug$GT$3fmt17h18cf24e61600f60cE', symObjAddr: 0xF3520, symBinAddr: 0xE46A8, symSize: 0x1EC }
  - { offset: 0x3DE0AB, size: 0x8, addend: 0x0, symName: '__ZN65_$LT$alloc..vec..Vec$LT$T$C$A$GT$$u20$as$u20$core..fmt..Debug$GT$3fmt17h6a4e44c0a7843d72E', symObjAddr: 0xF3A5C, symBinAddr: 0xE4BE4, symSize: 0x1FC }
  - { offset: 0x3DE3C1, size: 0x8, addend: 0x0, symName: '__ZN65_$LT$alloc..vec..Vec$LT$T$C$A$GT$$u20$as$u20$core..fmt..Debug$GT$3fmt17hbae7949c25ea1d1fE', symObjAddr: 0xF3EE0, symBinAddr: 0xE5068, symSize: 0x1F8 }
  - { offset: 0x3E1CC7, size: 0x8, addend: 0x0, symName: '__ZN5alloc7raw_vec20RawVecInner$LT$A$GT$7reserve21do_reserve_and_handle17h8e5e0dbdb7343308E', symObjAddr: 0xB14E0, symBinAddr: 0x142E88, symSize: 0x8C }
  - { offset: 0x3E60A4, size: 0x8, addend: 0x0, symName: '__ZN66_$LT$alloc..sync..Arc$LT$T$C$A$GT$$u20$as$u20$core..fmt..Debug$GT$3fmt17hfb61c5a4c469c990E', symObjAddr: 0xEF5EC, symBinAddr: 0xE0830, symSize: 0xD0 }
  - { offset: 0x3E7A4B, size: 0x8, addend: 0x0, symName: __ZN5alloc3str17join_generic_copy17h8b2827558ae410c0E, symObjAddr: 0xE4CB0, symBinAddr: 0xD5EF4, symSize: 0x1D8 }
  - { offset: 0x3EAF79, size: 0x8, addend: 0x0, symName: '__ZN4core3ptr58drop_in_place$LT$aho_corasick..util..error..MatchError$GT$17h5b491d9408d54e36E', symObjAddr: 0xAE7E8, symBinAddr: 0xA2F44, symSize: 0x8 }
  - { offset: 0x3EB47E, size: 0x8, addend: 0x0, symName: '__ZN4core3ptr58drop_in_place$LT$regex_automata..dfa..onepass..Builder$GT$17h04c8d77bc3f9d13dE', symObjAddr: 0xAFE4C, symBinAddr: 0xA45A8, symSize: 0xD0 }
  - { offset: 0x3EBE5D, size: 0x8, addend: 0x0, symName: '__ZN4core3ptr68drop_in_place$LT$regex_automata..nfa..thompson..builder..Builder$GT$17he46ebb92f364ac45E', symObjAddr: 0xAFF1C, symBinAddr: 0xA4678, symSize: 0x14C }
  - { offset: 0x3EC586, size: 0x8, addend: 0x0, symName: '__ZN4core3ptr98drop_in_place$LT$core..cell..RefCell$LT$regex_automata..nfa..thompson..compiler..Utf8State$GT$$GT$17h7eefb694f4fdb38aE', symObjAddr: 0xB0068, symBinAddr: 0xA47C4, symSize: 0xB0 }
  - { offset: 0x3ECE12, size: 0x8, addend: 0x0, symName: '__ZN4core3ptr73drop_in_place$LT$regex_automata..nfa..thompson..range_trie..RangeTrie$GT$17h40668bbf1f476668E', symObjAddr: 0xB0118, symBinAddr: 0xA4874, symSize: 0xF0 }
  - { offset: 0x3EF04C, size: 0x8, addend: 0x0, symName: '__ZN4core3ptr64drop_in_place$LT$regex_automata..util..sparse_set..SparseSet$GT$17he33544960af1d4c8E', symObjAddr: 0xB03C0, symBinAddr: 0xA4B1C, symSize: 0x44 }
  - { offset: 0x3EF3FB, size: 0x8, addend: 0x0, symName: '__ZN4core3ptr66drop_in_place$LT$regex_automata..dfa..onepass..InternalBuilder$GT$17h3873f4db40387905E', symObjAddr: 0xB0404, symBinAddr: 0xA4B60, symSize: 0xB4 }
  - { offset: 0x3F0179, size: 0x8, addend: 0x0, symName: '__ZN4core3ptr85drop_in_place$LT$alloc..vec..Vec$LT$regex_automata..nfa..thompson..nfa..State$GT$$GT$17h71b617a5aa082941E', symObjAddr: 0xB156C, symBinAddr: 0xA5A60, symSize: 0x8C }
  - { offset: 0x3F03E9, size: 0x8, addend: 0x0, symName: '__ZN4core3ptr67drop_in_place$LT$regex_automata..util..captures..GroupInfoInner$GT$17h9d981c17ce180262E', symObjAddr: 0xB164C, symBinAddr: 0xA5B40, symSize: 0x120 }
  - { offset: 0x3F0BD5, size: 0x8, addend: 0x0, symName: '__ZN4core3ptr139drop_in_place$LT$std..collections..hash..map..HashMap$LT$alloc..sync..Arc$LT$str$GT$$C$regex_automata..util..primitives..SmallIndex$GT$$GT$17h0c9b68beb8147237E', symObjAddr: 0xB176C, symBinAddr: 0xA5C60, symSize: 0xFC }
  - { offset: 0x3F14FE, size: 0x8, addend: 0x0, symName: '__ZN4core3ptr69drop_in_place$LT$regex_automata..nfa..thompson..error..BuildError$GT$17hdf1dd4657a2b1b31E', symObjAddr: 0xB1AB4, symBinAddr: 0xA5FA8, symSize: 0x78 }
  - { offset: 0x3F170A, size: 0x8, addend: 0x0, symName: '__ZN4core3ptr91drop_in_place$LT$alloc..sync..ArcInner$LT$regex_automata..nfa..thompson..nfa..Inner$GT$$GT$17hc2c67732d7dc72a4E', symObjAddr: 0xB1E8C, symBinAddr: 0xA6380, symSize: 0x5C }
  - { offset: 0x3F19D6, size: 0x8, addend: 0x0, symName: '__ZN4core3ptr62drop_in_place$LT$regex_automata..nfa..thompson..nfa..Inner$GT$17h4e3a16f6f278b91aE', symObjAddr: 0xB2364, symBinAddr: 0xA6858, symSize: 0x5C }
  - { offset: 0x3F1C41, size: 0x8, addend: 0x0, symName: '__ZN4core3ptr62drop_in_place$LT$regex_automata..nfa..thompson..nfa..State$GT$17h79a6428c6b543726E', symObjAddr: 0xB23C0, symBinAddr: 0xA68B4, symSize: 0x30 }
  - { offset: 0x3F2217, size: 0x8, addend: 0x0, symName: '__ZN4core3ptr99drop_in_place$LT$alloc..vec..Vec$LT$core..option..Option$LT$alloc..sync..Arc$LT$str$GT$$GT$$GT$$GT$17h7de5112bbf0097d4E', symObjAddr: 0xB2C7C, symBinAddr: 0xA6BF4, symSize: 0x90 }
  - { offset: 0x3F246F, size: 0x8, addend: 0x0, symName: '__ZN4core3ptr66drop_in_place$LT$regex_automata..nfa..thompson..builder..State$GT$17hfbba5124ab45bb75E', symObjAddr: 0xB3734, symBinAddr: 0xA76AC, symSize: 0x30 }
  - { offset: 0x3F24E7, size: 0x8, addend: 0x0, symName: '__ZN4core3ptr66drop_in_place$LT$alloc..vec..Vec$LT$regex_syntax..hir..Hir$GT$$GT$17h64fbc411b13d3d8fE', symObjAddr: 0xB4DAC, symBinAddr: 0xA8D24, symSize: 0x68 }
  - { offset: 0x3F2863, size: 0x8, addend: 0x0, symName: '__ZN4core3ptr43drop_in_place$LT$regex_syntax..hir..Hir$GT$17hdf7bfae934c2e9b5E', symObjAddr: 0xB4E14, symBinAddr: 0xA8D8C, symSize: 0x60 }
  - { offset: 0x3F2D88, size: 0x8, addend: 0x0, symName: '__ZN4core3ptr53drop_in_place$LT$regex_syntax..ast..parse..Parser$GT$17hd104e843b47805e5E', symObjAddr: 0xB4E74, symBinAddr: 0xA8DEC, symSize: 0x1CC }
  - { offset: 0x3F3DA7, size: 0x8, addend: 0x0, symName: '__ZN4core3ptr61drop_in_place$LT$regex_syntax..hir..translate..Translator$GT$17h3c3966f8fbb6aa6aE', symObjAddr: 0xB5040, symBinAddr: 0xA8FB8, symSize: 0xAC }
  - { offset: 0x3F41CC, size: 0x8, addend: 0x0, symName: '__ZN4core3ptr47drop_in_place$LT$regex_syntax..hir..HirKind$GT$17hde6d69b2128ade29E', symObjAddr: 0xB50EC, symBinAddr: 0xA9064, symSize: 0x130 }
  - { offset: 0x3F462C, size: 0x8, addend: 0x0, symName: '__ZN4core3ptr59drop_in_place$LT$regex_syntax..hir..translate..HirFrame$GT$17hb3ae3aa4cbca86c2E', symObjAddr: 0xB521C, symBinAddr: 0xA9194, symSize: 0xB8 }
  - { offset: 0x3F4749, size: 0x8, addend: 0x0, symName: '__ZN4core3ptr53drop_in_place$LT$$u5b$regex_syntax..hir..Hir$u5d$$GT$17hd9a960006c511858E', symObjAddr: 0xB52D4, symBinAddr: 0xA924C, symSize: 0xC0 }
  - { offset: 0x3F5122, size: 0x8, addend: 0x0, symName: '__ZN4core3ptr77drop_in_place$LT$regex_automata..nfa..thompson..literal_trie..LiteralTrie$GT$17hed1c06661888491cE', symObjAddr: 0xBB33C, symBinAddr: 0xAF24C, symSize: 0x80 }
  - { offset: 0x3F5572, size: 0x8, addend: 0x0, symName: '__ZN4core3ptr94drop_in_place$LT$alloc..vec..Vec$LT$regex_automata..nfa..thompson..literal_trie..Frame$GT$$GT$17hd1961884ee040430E', symObjAddr: 0xBB3BC, symBinAddr: 0xAF2CC, symSize: 0x80 }
  - { offset: 0x3F59A3, size: 0x8, addend: 0x0, symName: '__ZN4core3ptr71drop_in_place$LT$regex_automata..nfa..thompson..literal_trie..Frame$GT$17hb7b9d8bba590b19cE', symObjAddr: 0xBB4A4, symBinAddr: 0xAF34C, symSize: 0x44 }
  - { offset: 0x3F5D31, size: 0x8, addend: 0x0, symName: '__ZN4core3ptr96drop_in_place$LT$alloc..vec..Vec$LT$regex_automata..nfa..thompson..map..Utf8BoundedEntry$GT$$GT$17h0d03718fbf8719ccE', symObjAddr: 0xBC264, symBinAddr: 0xAFF6C, symSize: 0x70 }
  - { offset: 0x3F6025, size: 0x8, addend: 0x0, symName: '__ZN4core3ptr68drop_in_place$LT$alloc..boxed..Box$LT$regex_syntax..hir..Hir$GT$$GT$17h990a3bac2f83f720E', symObjAddr: 0xBC438, symBinAddr: 0xB0140, symSize: 0x7C }
  - { offset: 0x3F646E, size: 0x8, addend: 0x0, symName: '__ZN4core3ptr107drop_in_place$LT$core..cell..RefCell$LT$alloc..vec..Vec$LT$regex_syntax..ast..parse..ClassState$GT$$GT$$GT$17hb0f57f700dd611c3E', symObjAddr: 0xBC4B4, symBinAddr: 0xB01BC, symSize: 0xAC }
  - { offset: 0x3F6784, size: 0x8, addend: 0x0, symName: '__ZN4core3ptr101drop_in_place$LT$core..cell..RefCell$LT$alloc..vec..Vec$LT$regex_syntax..ast..CaptureName$GT$$GT$$GT$17h794ad8dc3fd756bcE', symObjAddr: 0xBC560, symBinAddr: 0xB0268, symSize: 0x70 }
  - { offset: 0x3F6B5F, size: 0x8, addend: 0x0, symName: '__ZN4core3ptr57drop_in_place$LT$regex_syntax..ast..parse..ClassState$GT$17h3cd545f8e0978092E', symObjAddr: 0xBC5D0, symBinAddr: 0xB02D8, symSize: 0xC8 }
  - { offset: 0x3F6FC1, size: 0x8, addend: 0x0, symName: '__ZN4core3ptr48drop_in_place$LT$regex_syntax..ast..ClassSet$GT$17he8e7a3d0830ef8e0E', symObjAddr: 0xBC698, symBinAddr: 0xB03A0, symSize: 0x1E4 }
  - { offset: 0x3F76FE, size: 0x8, addend: 0x0, symName: '__ZN4core3ptr79drop_in_place$LT$alloc..boxed..Box$LT$regex_syntax..ast..ClassBracketed$GT$$GT$17hc96dae2c1c580f4dE', symObjAddr: 0xBC87C, symBinAddr: 0xB0584, symSize: 0x3C }
  - { offset: 0x3F7954, size: 0x8, addend: 0x0, symName: '__ZN4core3ptr73drop_in_place$LT$alloc..boxed..Box$LT$regex_syntax..ast..ClassSet$GT$$GT$17hc9cf65c26329f7adE', symObjAddr: 0xBC8B8, symBinAddr: 0xB05C0, symSize: 0x3C }
  - { offset: 0x3F7B91, size: 0x8, addend: 0x0, symName: '__ZN4core3ptr52drop_in_place$LT$regex_syntax..ast..ClassSetItem$GT$17h271b990c7bab47fcE', symObjAddr: 0xBC8F4, symBinAddr: 0xB05FC, symSize: 0x154 }
  - { offset: 0x3F804B, size: 0x8, addend: 0x0, symName: '__ZN4core3ptr56drop_in_place$LT$regex_syntax..ast..ClassSetBinaryOp$GT$17h61f51458fc8b6cb2E', symObjAddr: 0xBCA48, symBinAddr: 0xB0750, symSize: 0x80 }
  - { offset: 0x3F8629, size: 0x8, addend: 0x0, symName: '__ZN4core3ptr57drop_in_place$LT$regex_syntax..ast..parse..GroupState$GT$17h576f78cfb6679b01E', symObjAddr: 0xBCAC8, symBinAddr: 0xB07D0, symSize: 0x188 }
  - { offset: 0x3F8D8B, size: 0x8, addend: 0x0, symName: '__ZN4core3ptr43drop_in_place$LT$regex_syntax..ast..Ast$GT$17hb5d5c24d04f0fdcfE', symObjAddr: 0xBCC50, symBinAddr: 0xB0958, symSize: 0x2D0 }
  - { offset: 0x3F961C, size: 0x8, addend: 0x0, symName: '__ZN4core3ptr45drop_in_place$LT$regex_syntax..ast..Group$GT$17h3087718d4bcbdc4aE', symObjAddr: 0xBCF20, symBinAddr: 0xB0C28, symSize: 0x7C }
  - { offset: 0x3F99D7, size: 0x8, addend: 0x0, symName: '__ZN4core3ptr71drop_in_place$LT$alloc..boxed..Box$LT$regex_syntax..ast..Concat$GT$$GT$17hc38041d0a8066267E', symObjAddr: 0xBCF9C, symBinAddr: 0xB0CA4, symSize: 0xA4 }
  - { offset: 0x3F9F4B, size: 0x8, addend: 0x0, symName: '__ZN4core3ptr73drop_in_place$LT$alloc..boxed..Box$LT$regex_syntax..ast..SetFlags$GT$$GT$17haef34d2aba5cabd0E', symObjAddr: 0xBD040, symBinAddr: 0xB0D48, symSize: 0x34 }
  - { offset: 0x3FA1E3, size: 0x8, addend: 0x0, symName: '__ZN4core3ptr77drop_in_place$LT$alloc..boxed..Box$LT$regex_syntax..ast..ClassUnicode$GT$$GT$17h8ae651fe2639fa81E', symObjAddr: 0xBD074, symBinAddr: 0xB0D7C, symSize: 0x80 }
  - { offset: 0x3FA6D6, size: 0x8, addend: 0x0, symName: '__ZN4core3ptr75drop_in_place$LT$alloc..boxed..Box$LT$regex_syntax..ast..Repetition$GT$$GT$17hdf7866314b7c25e1E', symObjAddr: 0xBD0F4, symBinAddr: 0xB0DFC, symSize: 0x58 }
  - { offset: 0x3FAAE3, size: 0x8, addend: 0x0, symName: '__ZN4core3ptr70drop_in_place$LT$alloc..boxed..Box$LT$regex_syntax..ast..Group$GT$$GT$17hcbb4b286f069232dE', symObjAddr: 0xBD14C, symBinAddr: 0xB0E54, symSize: 0x94 }
  - { offset: 0x3FB04F, size: 0x8, addend: 0x0, symName: '__ZN4core3ptr76drop_in_place$LT$alloc..boxed..Box$LT$regex_syntax..ast..Alternation$GT$$GT$17h0d5d03cbe94b20b0E', symObjAddr: 0xBD1E0, symBinAddr: 0xB0EE8, symSize: 0xA8 }
  - { offset: 0x3FB570, size: 0x8, addend: 0x0, symName: '__ZN4core3ptr66drop_in_place$LT$alloc..vec..Vec$LT$regex_syntax..ast..Ast$GT$$GT$17h861ea1361a517151E', symObjAddr: 0xBD288, symBinAddr: 0xB0F90, symSize: 0xAC }
  - { offset: 0x3FB8BF, size: 0x8, addend: 0x0, symName: '__ZN4core3ptr70drop_in_place$LT$regex_automata..nfa..thompson..compiler..Compiler$GT$17hbf9601adea1012f5E', symObjAddr: 0xBD334, symBinAddr: 0xB103C, symSize: 0xD0 }
  - { offset: 0x3FC196, size: 0x8, addend: 0x0, symName: '__ZN4core3ptr72drop_in_place$LT$regex_automata..nfa..thompson..pikevm..ActiveStates$GT$17h5d299b3d7a180c51E', symObjAddr: 0xBD524, symBinAddr: 0xB122C, symSize: 0x54 }
  - { offset: 0x3FC670, size: 0x8, addend: 0x0, symName: '__ZN4core3ptr66drop_in_place$LT$regex_automata..nfa..thompson..pikevm..Config$GT$17h5bf2dbaf30df38ddE', symObjAddr: 0xBD630, symBinAddr: 0xB1338, symSize: 0x38 }
  - { offset: 0x3FC7D6, size: 0x8, addend: 0x0, symName: '__ZN4core3ptr67drop_in_place$LT$regex_automata..nfa..thompson..pikevm..Builder$GT$17he5a6e9bb1a6938faE', symObjAddr: 0xBD668, symBinAddr: 0xB1370, symSize: 0x118 }
  - { offset: 0x3FD519, size: 0x8, addend: 0x0, symName: '__ZN4core3ptr69drop_in_place$LT$regex_automata..nfa..thompson..backtrack..Config$GT$17h22457f291913cef0E', symObjAddr: 0xC5298, symBinAddr: 0xB8DDC, symSize: 0x38 }
  - { offset: 0x3FD681, size: 0x8, addend: 0x0, symName: '__ZN4core3ptr70drop_in_place$LT$regex_automata..nfa..thompson..backtrack..Builder$GT$17h4e75f412b0994595E', symObjAddr: 0xC52D0, symBinAddr: 0xB8E14, symSize: 0x118 }
  - { offset: 0x3FEA88, size: 0x8, addend: 0x0, symName: '__ZN4core3ptr368drop_in_place$LT$regex_automata..util..pool..inner..Pool$LT$regex_automata..meta..regex..Cache$C$alloc..boxed..Box$LT$dyn$u20$core..ops..function..Fn$LT$$LP$$RP$$GT$$u2b$Output$u20$$u3d$$u20$regex_automata..meta..regex..Cache$u2b$core..panic..unwind_safe..UnwindSafe$u2b$core..marker..Send$u2b$core..panic..unwind_safe..RefUnwindSafe$u2b$core..marker..Sync$GT$$GT$$GT$17hc1ec9d5d20fd226bE', symObjAddr: 0xCF9D8, symBinAddr: 0xC32E4, symSize: 0xD4 }
  - { offset: 0x3FEF3E, size: 0x8, addend: 0x0, symName: '__ZN4core3ptr85drop_in_place$LT$alloc..sync..ArcInner$LT$regex_automata..meta..regex..RegexI$GT$$GT$17h8bc948ccec2ae391E', symObjAddr: 0xCFAAC, symBinAddr: 0xC33B8, symSize: 0x90 }
  - { offset: 0x3FF27F, size: 0x8, addend: 0x0, symName: '__ZN4core3ptr361drop_in_place$LT$regex_automata..util..pool..Pool$LT$regex_automata..meta..regex..Cache$C$alloc..boxed..Box$LT$dyn$u20$core..ops..function..Fn$LT$$LP$$RP$$GT$$u2b$Output$u20$$u3d$$u20$regex_automata..meta..regex..Cache$u2b$core..panic..unwind_safe..UnwindSafe$u2b$core..marker..Send$u2b$core..panic..unwind_safe..RefUnwindSafe$u2b$core..marker..Sync$GT$$GT$$GT$17hec154993723527a2E', symObjAddr: 0xCFB3C, symBinAddr: 0xC3448, symSize: 0x38 }
  - { offset: 0x3FF4E1, size: 0x8, addend: 0x0, symName: '__ZN4core3ptr56drop_in_place$LT$regex_automata..meta..regex..Config$GT$17hb54f7478b4df4b97E', symObjAddr: 0xCFB74, symBinAddr: 0xC3480, symSize: 0x38 }
  - { offset: 0x3FF62B, size: 0x8, addend: 0x0, symName: '__ZN4core3ptr217drop_in_place$LT$alloc..vec..Vec$LT$regex_automata..util..pool..inner..CacheLine$LT$std..sync..poison..mutex..Mutex$LT$alloc..vec..Vec$LT$alloc..boxed..Box$LT$regex_automata..meta..regex..Cache$GT$$GT$$GT$$GT$$GT$$GT$17h450d17886c411803E', symObjAddr: 0xCFBAC, symBinAddr: 0xC34B8, symSize: 0x60 }
  - { offset: 0x3FFA02, size: 0x8, addend: 0x0, symName: '__ZN4core3ptr55drop_in_place$LT$regex_automata..meta..regex..Cache$GT$17h08ecbbe117f5e5f7E', symObjAddr: 0xCFC0C, symBinAddr: 0xC3518, symSize: 0xE4 }
  - { offset: 0x4001D6, size: 0x8, addend: 0x0, symName: '__ZN4core3ptr93drop_in_place$LT$core..option..Option$LT$regex_automata..nfa..thompson..pikevm..Cache$GT$$GT$17hd7d11b14b4b4abf7E', symObjAddr: 0xCFCF0, symBinAddr: 0xC35FC, symSize: 0xA0 }
  - { offset: 0x400CDA, size: 0x8, addend: 0x0, symName: '__ZN4core3ptr55drop_in_place$LT$regex_automata..hybrid..dfa..Cache$GT$17h1fac156c462ac62dE', symObjAddr: 0xCFD90, symBinAddr: 0xC369C, symSize: 0x140 }
  - { offset: 0x401BB3, size: 0x8, addend: 0x0, symName: '__ZN4core3ptr154drop_in_place$LT$std..collections..hash..map..HashMap$LT$regex_automata..util..determinize..state..State$C$regex_automata..hybrid..id..LazyStateID$GT$$GT$17h0d9dda7b91a108f5E', symObjAddr: 0xCFED0, symBinAddr: 0xC37DC, symSize: 0xFC }
  - { offset: 0x402476, size: 0x8, addend: 0x0, symName: '__ZN4core3ptr194drop_in_place$LT$regex_automata..util..pool..inner..CacheLine$LT$std..sync..poison..mutex..Mutex$LT$alloc..vec..Vec$LT$alloc..boxed..Box$LT$regex_automata..meta..regex..Cache$GT$$GT$$GT$$GT$$GT$17h845bfee7332f4853E', symObjAddr: 0xCFFCC, symBinAddr: 0xC38D8, symSize: 0xA4 }
  - { offset: 0x40298C, size: 0x8, addend: 0x0, symName: '__ZN4core3ptr284drop_in_place$LT$alloc..boxed..Box$LT$dyn$u20$core..ops..function..Fn$LT$$LP$$RP$$GT$$u2b$Output$u20$$u3d$$u20$regex_automata..meta..regex..Cache$u2b$core..panic..unwind_safe..UnwindSafe$u2b$core..marker..Send$u2b$core..panic..unwind_safe..RefUnwindSafe$u2b$core..marker..Sync$GT$$GT$17hbbd63fb1e6143897E', symObjAddr: 0xD0070, symBinAddr: 0xC397C, symSize: 0x54 }
  - { offset: 0x402CBD, size: 0x8, addend: 0x0, symName: '__ZN4core3ptr137drop_in_place$LT$regex_automata..meta..regex..Builder..build_many_from_hir$LT$regex_syntax..hir..Hir$GT$..$u7b$$u7b$closure$u7d$$u7d$$GT$17h3a685fadd31aab70E', symObjAddr: 0xD00C4, symBinAddr: 0xC39D0, symSize: 0x28 }
  - { offset: 0x402CDD, size: 0x8, addend: 0x0, symName: '__ZN4core3ptr137drop_in_place$LT$regex_automata..meta..regex..Builder..build_many_from_hir$LT$regex_syntax..hir..Hir$GT$..$u7b$$u7b$closure$u7d$$u7d$$GT$17h3a685fadd31aab70E', symObjAddr: 0xD00C4, symBinAddr: 0xC39D0, symSize: 0x28 }
  - { offset: 0x402CFB, size: 0x8, addend: 0x0, symName: '__ZN4core3ptr137drop_in_place$LT$regex_automata..meta..regex..Builder..build_many_from_hir$LT$regex_syntax..hir..Hir$GT$..$u7b$$u7b$closure$u7d$$u7d$$GT$17h3a685fadd31aab70E', symObjAddr: 0xD00C4, symBinAddr: 0xC39D0, symSize: 0x28 }
  - { offset: 0x402D19, size: 0x8, addend: 0x0, symName: '__ZN4core3ptr137drop_in_place$LT$regex_automata..meta..regex..Builder..build_many_from_hir$LT$regex_syntax..hir..Hir$GT$..$u7b$$u7b$closure$u7d$$u7d$$GT$17h3a685fadd31aab70E', symObjAddr: 0xD00C4, symBinAddr: 0xC39D0, symSize: 0x28 }
  - { offset: 0x402D35, size: 0x8, addend: 0x0, symName: '__ZN4core3ptr137drop_in_place$LT$regex_automata..meta..regex..Builder..build_many_from_hir$LT$regex_syntax..hir..Hir$GT$..$u7b$$u7b$closure$u7d$$u7d$$GT$17h3a685fadd31aab70E', symObjAddr: 0xD00C4, symBinAddr: 0xC39D0, symSize: 0x28 }
  - { offset: 0x402E33, size: 0x8, addend: 0x0, symName: '__ZN4core3ptr60drop_in_place$LT$regex_automata..meta..regex..RegexInfoI$GT$17hcb3e5c3df9066c44E', symObjAddr: 0xD01A8, symBinAddr: 0xC3AB4, symSize: 0xA4 }
  - { offset: 0x4034FD, size: 0x8, addend: 0x0, symName: '__ZN4core3ptr73drop_in_place$LT$alloc..vec..Vec$LT$regex_syntax..hir..Properties$GT$$GT$17h74de52c1b55df4a7E', symObjAddr: 0xD024C, symBinAddr: 0xC3B58, symSize: 0x5C }
  - { offset: 0x403A2A, size: 0x8, addend: 0x0, symName: '__ZN4core3ptr52drop_in_place$LT$regex_syntax..hir..literal..Seq$GT$17h51af844d330a89c2E', symObjAddr: 0xD145C, symBinAddr: 0xC4D68, symSize: 0x78 }
  - { offset: 0x403D5C, size: 0x8, addend: 0x0, symName: '__ZN4core3ptr69drop_in_place$LT$alloc..vec..Vec$LT$alloc..vec..Vec$LT$u8$GT$$GT$$GT$17hf05cb53ac4ed8aa9E', symObjAddr: 0xD14DC, symBinAddr: 0xC4DE8, symSize: 0x70 }
  - { offset: 0x4040ED, size: 0x8, addend: 0x0, symName: '__ZN4core3ptr59drop_in_place$LT$aho_corasick..util..prefilter..Builder$GT$17hf01dfe0b459dc7cdE', symObjAddr: 0xD1AD0, symBinAddr: 0xC53DC, symSize: 0xD0 }
  - { offset: 0x40497E, size: 0x8, addend: 0x0, symName: '__ZN4core3ptr58drop_in_place$LT$aho_corasick..nfa..noncontiguous..NFA$GT$17h2954f88e9d5bf113E', symObjAddr: 0xD1BA0, symBinAddr: 0xC54AC, symSize: 0x98 }
  - { offset: 0x405125, size: 0x8, addend: 0x0, symName: '__ZN4core3ptr84drop_in_place$LT$alloc..sync..ArcInner$LT$aho_corasick..nfa..contiguous..NFA$GT$$GT$17h71643b5aa9ef5471E', symObjAddr: 0xD1C38, symBinAddr: 0xC5544, symSize: 0x68 }
  - { offset: 0x405534, size: 0x8, addend: 0x0, symName: '__ZN4core3ptr43drop_in_place$LT$aho_corasick..dfa..DFA$GT$17he14804dee6359fdeE', symObjAddr: 0xD1CA0, symBinAddr: 0xC55AC, symSize: 0xB4 }
  - { offset: 0x405BA7, size: 0x8, addend: 0x0, symName: '__ZN4core3ptr66drop_in_place$LT$regex_automata..nfa..thompson..pikevm..PikeVM$GT$17hb984884a0ab001b2E', symObjAddr: 0xD1D54, symBinAddr: 0xC5660, symSize: 0xA4 }
  - { offset: 0x405EF9, size: 0x8, addend: 0x0, symName: '__ZN4core3ptr81drop_in_place$LT$regex_automata..nfa..thompson..backtrack..BoundedBacktracker$GT$17hada0f62752217134E', symObjAddr: 0xD1DF8, symBinAddr: 0xC5704, symSize: 0xA4 }
  - { offset: 0x406255, size: 0x8, addend: 0x0, symName: '__ZN4core3ptr59drop_in_place$LT$regex_automata..meta..wrappers..PikeVM$GT$17hf9df1c4c6ed980ebE', symObjAddr: 0xD1E9C, symBinAddr: 0xC57A8, symSize: 0xA4 }
  - { offset: 0x4065D5, size: 0x8, addend: 0x0, symName: '__ZN4core3ptr71drop_in_place$LT$regex_automata..meta..wrappers..BoundedBacktracker$GT$17h5e7297f5d8b8e5eaE', symObjAddr: 0xD1F40, symBinAddr: 0xC584C, symSize: 0xB0 }
  - { offset: 0x406976, size: 0x8, addend: 0x0, symName: '__ZN4core3ptr60drop_in_place$LT$regex_automata..meta..wrappers..OnePass$GT$17h20ca4ec328431f27E', symObjAddr: 0xD1FF0, symBinAddr: 0xC58FC, symSize: 0x70 }
  - { offset: 0x406D7D, size: 0x8, addend: 0x0, symName: '__ZN4core3ptr56drop_in_place$LT$regex_automata..hybrid..dfa..Config$GT$17h0633cbab1827f7f4E', symObjAddr: 0xD2060, symBinAddr: 0xC596C, symSize: 0x38 }
  - { offset: 0x406EC7, size: 0x8, addend: 0x0, symName: '__ZN4core3ptr57drop_in_place$LT$regex_automata..hybrid..dfa..Builder$GT$17h7a6ec6f373bdffcfE', symObjAddr: 0xD2098, symBinAddr: 0xC59A4, symSize: 0x118 }
  - { offset: 0x40788C, size: 0x8, addend: 0x0, symName: '__ZN4core3ptr57drop_in_place$LT$regex_automata..hybrid..regex..Regex$GT$17h73d9e7746ae463a1E', symObjAddr: 0xD2B0C, symBinAddr: 0xC6418, symSize: 0x134 }
  - { offset: 0x407F7D, size: 0x8, addend: 0x0, symName: '__ZN4core3ptr53drop_in_place$LT$regex_automata..hybrid..dfa..DFA$GT$17h66deef171f9d3b1bE', symObjAddr: 0xD2C40, symBinAddr: 0xC654C, symSize: 0xA4 }
  - { offset: 0x4082E2, size: 0x8, addend: 0x0, symName: '__ZN4core3ptr62drop_in_place$LT$regex_automata..hybrid..error..BuildError$GT$17h6c10f8bfb6c66947E', symObjAddr: 0xD2CE4, symBinAddr: 0xC65F0, symSize: 0x84 }
  - { offset: 0x40869F, size: 0x8, addend: 0x0, symName: '__ZN4core3ptr57drop_in_place$LT$regex_automata..meta..strategy..Core$GT$17h4d12a33aec5b073eE', symObjAddr: 0xD3EA0, symBinAddr: 0xC77AC, symSize: 0x2E4 }
  - { offset: 0x409BD0, size: 0x8, addend: 0x0, symName: '__ZN4core3ptr95drop_in_place$LT$alloc..sync..ArcInner$LT$regex_automata..meta..strategy..ReverseSuffix$GT$$GT$17hfc67270312987c60E', symObjAddr: 0xD4C2C, symBinAddr: 0xC8538, symSize: 0x84 }
  - { offset: 0x409E6C, size: 0x8, addend: 0x0, symName: '__ZN4core3ptr65drop_in_place$LT$regex_automata..meta..strategy..ReverseInner$GT$17h5f12760574e66452E', symObjAddr: 0xD4CB0, symBinAddr: 0xC85BC, symSize: 0x164 }
  - { offset: 0x40A943, size: 0x8, addend: 0x0, symName: '__ZN4core3ptr76drop_in_place$LT$regex_automata..meta..wrappers..BoundedBacktrackerCache$GT$17h94b1aed4904b0994E', symObjAddr: 0xE08E4, symBinAddr: 0xD1B28, symSize: 0x50 }
  - { offset: 0x40A963, size: 0x8, addend: 0x0, symName: '__ZN4core3ptr76drop_in_place$LT$regex_automata..meta..wrappers..BoundedBacktrackerCache$GT$17h94b1aed4904b0994E', symObjAddr: 0xE08E4, symBinAddr: 0xD1B28, symSize: 0x50 }
  - { offset: 0x40AC25, size: 0x8, addend: 0x0, symName: '__ZN4core3ptr61drop_in_place$LT$regex_automata..util..captures..Captures$GT$17h1c5b0ad953a4ab5aE', symObjAddr: 0xE0934, symBinAddr: 0xD1B78, symSize: 0x54 }
  - { offset: 0x40AE7D, size: 0x8, addend: 0x0, symName: '__ZN4core3ptr91drop_in_place$LT$alloc..vec..Vec$LT$regex_automata..util..determinize..state..State$GT$$GT$17h9c26522f30de90d3E', symObjAddr: 0xE0BC4, symBinAddr: 0xD1E08, symSize: 0x8C }
  - { offset: 0x40B100, size: 0x8, addend: 0x0, symName: '__ZN4core3ptr59drop_in_place$LT$regex_automata..meta..wrappers..Hybrid$GT$17hc891b48fe0b80db4E', symObjAddr: 0xE0FF4, symBinAddr: 0xD2238, symSize: 0x18 }
  - { offset: 0x40B14F, size: 0x8, addend: 0x0, symName: '__ZN4core3ptr119drop_in_place$LT$core..option..Option$LT$core..option..Option$LT$regex_automata..util..prefilter..Prefilter$GT$$GT$$GT$17hc6b9b65d81ca22eaE', symObjAddr: 0xE2748, symBinAddr: 0xD398C, symSize: 0x38 }
  - { offset: 0x40B30A, size: 0x8, addend: 0x0, symName: '__ZN4core3ptr65drop_in_place$LT$alloc..vec..Vec$LT$alloc..string..String$GT$$GT$17h5b38e4308d36c509E', symObjAddr: 0xE4C40, symBinAddr: 0xD5E84, symSize: 0x70 }
  - { offset: 0x40B679, size: 0x8, addend: 0x0, symName: '__ZN4core3ptr88drop_in_place$LT$core..option..Option$LT$regex_automata..nfa..thompson..nfa..NFA$GT$$GT$17h4de640e38eb0518eE', symObjAddr: 0xE56D8, symBinAddr: 0xD691C, symSize: 0x28 }
  - { offset: 0x40B760, size: 0x8, addend: 0x0, symName: '__ZN4core3ptr60drop_in_place$LT$regex_automata..nfa..thompson..nfa..NFA$GT$17h3cc7f63630e92117E', symObjAddr: 0xE5844, symBinAddr: 0xD6A88, symSize: 0x24 }
  - { offset: 0x40B780, size: 0x8, addend: 0x0, symName: '__ZN4core3ptr60drop_in_place$LT$regex_automata..nfa..thompson..nfa..NFA$GT$17h3cc7f63630e92117E', symObjAddr: 0xE5844, symBinAddr: 0xD6A88, symSize: 0x24 }
  - { offset: 0x40B79E, size: 0x8, addend: 0x0, symName: '__ZN4core3ptr60drop_in_place$LT$regex_automata..nfa..thompson..nfa..NFA$GT$17h3cc7f63630e92117E', symObjAddr: 0xE5844, symBinAddr: 0xD6A88, symSize: 0x24 }
  - { offset: 0x40B7BC, size: 0x8, addend: 0x0, symName: '__ZN4core3ptr60drop_in_place$LT$regex_automata..nfa..thompson..nfa..NFA$GT$17h3cc7f63630e92117E', symObjAddr: 0xE5844, symBinAddr: 0xD6A88, symSize: 0x24 }
  - { offset: 0x40B7D8, size: 0x8, addend: 0x0, symName: '__ZN4core3ptr60drop_in_place$LT$regex_automata..nfa..thompson..nfa..NFA$GT$17h3cc7f63630e92117E', symObjAddr: 0xE5844, symBinAddr: 0xD6A88, symSize: 0x24 }
  - { offset: 0x40B85A, size: 0x8, addend: 0x0, symName: '__ZN4core3ptr91drop_in_place$LT$core..option..Option$LT$regex_automata..util..prefilter..Prefilter$GT$$GT$17h40dd562b59bc1e36E', symObjAddr: 0xE587C, symBinAddr: 0xD6AC0, symSize: 0x34 }
  - { offset: 0x40B973, size: 0x8, addend: 0x0, symName: '__ZN4core3ptr59drop_in_place$LT$regex_automata..meta..regex..RegexInfo$GT$17hb4d379d052cb37d0E', symObjAddr: 0xE5A14, symBinAddr: 0xD6C58, symSize: 0x24 }
  - { offset: 0x40B993, size: 0x8, addend: 0x0, symName: '__ZN4core3ptr59drop_in_place$LT$regex_automata..meta..regex..RegexInfo$GT$17hb4d379d052cb37d0E', symObjAddr: 0xE5A14, symBinAddr: 0xD6C58, symSize: 0x24 }
  - { offset: 0x40B9B1, size: 0x8, addend: 0x0, symName: '__ZN4core3ptr59drop_in_place$LT$regex_automata..meta..regex..RegexInfo$GT$17hb4d379d052cb37d0E', symObjAddr: 0xE5A14, symBinAddr: 0xD6C58, symSize: 0x24 }
  - { offset: 0x40B9CF, size: 0x8, addend: 0x0, symName: '__ZN4core3ptr59drop_in_place$LT$regex_automata..meta..regex..RegexInfo$GT$17hb4d379d052cb37d0E', symObjAddr: 0xE5A14, symBinAddr: 0xD6C58, symSize: 0x24 }
  - { offset: 0x40B9EB, size: 0x8, addend: 0x0, symName: '__ZN4core3ptr59drop_in_place$LT$regex_automata..meta..regex..RegexInfo$GT$17hb4d379d052cb37d0E', symObjAddr: 0xE5A14, symBinAddr: 0xD6C58, symSize: 0x24 }
  - { offset: 0x40BA6D, size: 0x8, addend: 0x0, symName: '__ZN4core3ptr66drop_in_place$LT$regex_automata..meta..wrappers..ReverseHybrid$GT$17h88725b52e151f100E', symObjAddr: 0xE9FA4, symBinAddr: 0xDB1E8, symSize: 0xB4 }
  - { offset: 0x40BE17, size: 0x8, addend: 0x0, symName: '__ZN4core3ptr66drop_in_place$LT$regex_automata..meta..strategy..ReverseSuffix$GT$17h18187b3111f3da06E', symObjAddr: 0xEA8C4, symBinAddr: 0xDBB08, symSize: 0x80 }
  - { offset: 0x40C035, size: 0x8, addend: 0x0, symName: '__ZN4core3ptr68drop_in_place$LT$regex_automata..meta..strategy..ReverseAnchored$GT$17h68bad8002f0a1bd9E', symObjAddr: 0xECD88, symBinAddr: 0xDDFCC, symSize: 0x4 }
  - { offset: 0x40C06F, size: 0x8, addend: 0x0, symName: '__ZN4core3ptr95drop_in_place$LT$alloc..sync..ArcInner$LT$regex_automata..util..prefilter..teddy..Teddy$GT$$GT$17hba9f8f6557c238e8E', symObjAddr: 0xEE3D4, symBinAddr: 0xDF618, symSize: 0x40 }
  - { offset: 0x40C0B4, size: 0x8, addend: 0x0, symName: '__ZN4core3ptr79drop_in_place$LT$regex_automata..util..prefilter..aho_corasick..AhoCorasick$GT$17hc7792013334777b0E', symObjAddr: 0xEE414, symBinAddr: 0xDF658, symSize: 0x28 }
  - { offset: 0x40C0D4, size: 0x8, addend: 0x0, symName: '__ZN4core3ptr79drop_in_place$LT$regex_automata..util..prefilter..aho_corasick..AhoCorasick$GT$17hc7792013334777b0E', symObjAddr: 0xEE414, symBinAddr: 0xDF658, symSize: 0x28 }
  - { offset: 0x40C0F2, size: 0x8, addend: 0x0, symName: '__ZN4core3ptr79drop_in_place$LT$regex_automata..util..prefilter..aho_corasick..AhoCorasick$GT$17hc7792013334777b0E', symObjAddr: 0xEE414, symBinAddr: 0xDF658, symSize: 0x28 }
  - { offset: 0x40C110, size: 0x8, addend: 0x0, symName: '__ZN4core3ptr79drop_in_place$LT$regex_automata..util..prefilter..aho_corasick..AhoCorasick$GT$17hc7792013334777b0E', symObjAddr: 0xEE414, symBinAddr: 0xDF658, symSize: 0x28 }
  - { offset: 0x40C12E, size: 0x8, addend: 0x0, symName: '__ZN4core3ptr79drop_in_place$LT$regex_automata..util..prefilter..aho_corasick..AhoCorasick$GT$17hc7792013334777b0E', symObjAddr: 0xEE414, symBinAddr: 0xDF658, symSize: 0x28 }
  - { offset: 0x40C14A, size: 0x8, addend: 0x0, symName: '__ZN4core3ptr79drop_in_place$LT$regex_automata..util..prefilter..aho_corasick..AhoCorasick$GT$17hc7792013334777b0E', symObjAddr: 0xEE414, symBinAddr: 0xDF658, symSize: 0x28 }
  - { offset: 0x40C1CD, size: 0x8, addend: 0x0, symName: '__ZN4core3ptr66drop_in_place$LT$regex_automata..util..prefilter..teddy..Teddy$GT$17h561b4e7790d87480E', symObjAddr: 0xEEA08, symBinAddr: 0xDFC4C, symSize: 0x3C }
  - { offset: 0x40C320, size: 0x8, addend: 0x0, symName: '__ZN4core3ptr56drop_in_place$LT$aho_corasick..packed..api..Searcher$GT$17hbd83fa9868ca7b2aE', symObjAddr: 0xEED78, symBinAddr: 0xDFFBC, symSize: 0xEC }
  - { offset: 0x40C9F1, size: 0x8, addend: 0x0, symName: '__ZN4core3ptr79drop_in_place$LT$alloc..vec..Vec$LT$regex_syntax..hir..literal..Literal$GT$$GT$17h5c6d0e648a5e9f62E', symObjAddr: 0xF134C, symBinAddr: 0xE2590, symSize: 0x70 }
  - { offset: 0x40CF61, size: 0x8, addend: 0x0, symName: '__ZN4core3ptr88drop_in_place$LT$alloc..vec..drain..Drain$LT$regex_syntax..hir..literal..Literal$GT$$GT$17hcd1d9550d10a1ff5E', symObjAddr: 0xF1FE8, symBinAddr: 0xE322C, symSize: 0x9C }
  - { offset: 0x40D36A, size: 0x8, addend: 0x0, symName: '__ZN4core3ptr55drop_in_place$LT$aho_corasick..nfa..contiguous..NFA$GT$17h27f5ff5bbfb43319E', symObjAddr: 0xF2140, symBinAddr: 0xE32C8, symSize: 0x68 }
  - { offset: 0x40D6EA, size: 0x8, addend: 0x0, symName: '__ZN4core3ptr122drop_in_place$LT$regex_automata..meta..strategy..Pre$LT$regex_automata..util..prefilter..aho_corasick..AhoCorasick$GT$$GT$17h9b98027ebbe11009E', symObjAddr: 0xF294C, symBinAddr: 0xE3AD4, symSize: 0x8C }
  - { offset: 0x40DA16, size: 0x8, addend: 0x0, symName: '__ZN4core3ptr113drop_in_place$LT$regex_automata..meta..strategy..Pre$LT$regex_automata..util..prefilter..byteset..ByteSet$GT$$GT$17h41c99ffef68df525E', symObjAddr: 0xF42A0, symBinAddr: 0xE5428, symSize: 0x24 }
  - { offset: 0x40DA36, size: 0x8, addend: 0x0, symName: '__ZN4core3ptr113drop_in_place$LT$regex_automata..meta..strategy..Pre$LT$regex_automata..util..prefilter..byteset..ByteSet$GT$$GT$17h41c99ffef68df525E', symObjAddr: 0xF42A0, symBinAddr: 0xE5428, symSize: 0x24 }
  - { offset: 0x40DA54, size: 0x8, addend: 0x0, symName: '__ZN4core3ptr113drop_in_place$LT$regex_automata..meta..strategy..Pre$LT$regex_automata..util..prefilter..byteset..ByteSet$GT$$GT$17h41c99ffef68df525E', symObjAddr: 0xF42A0, symBinAddr: 0xE5428, symSize: 0x24 }
  - { offset: 0x40DA72, size: 0x8, addend: 0x0, symName: '__ZN4core3ptr113drop_in_place$LT$regex_automata..meta..strategy..Pre$LT$regex_automata..util..prefilter..byteset..ByteSet$GT$$GT$17h41c99ffef68df525E', symObjAddr: 0xF42A0, symBinAddr: 0xE5428, symSize: 0x24 }
  - { offset: 0x40DA90, size: 0x8, addend: 0x0, symName: '__ZN4core3ptr113drop_in_place$LT$regex_automata..meta..strategy..Pre$LT$regex_automata..util..prefilter..byteset..ByteSet$GT$$GT$17h41c99ffef68df525E', symObjAddr: 0xF42A0, symBinAddr: 0xE5428, symSize: 0x24 }
  - { offset: 0x40DAAF, size: 0x8, addend: 0x0, symName: '__ZN4core3ptr113drop_in_place$LT$regex_automata..meta..strategy..Pre$LT$regex_automata..util..prefilter..byteset..ByteSet$GT$$GT$17h41c99ffef68df525E', symObjAddr: 0xF42A0, symBinAddr: 0xE5428, symSize: 0x24 }
  - { offset: 0x40DB32, size: 0x8, addend: 0x0, symName: '__ZN4core3ptr109drop_in_place$LT$regex_automata..meta..strategy..Pre$LT$regex_automata..util..prefilter..teddy..Teddy$GT$$GT$17h23c5dec8de921315E', symObjAddr: 0xF490C, symBinAddr: 0xE5A94, symSize: 0x90 }
  - { offset: 0x40DD67, size: 0x8, addend: 0x0, symName: '__ZN4core3ptr111drop_in_place$LT$regex_automata..meta..strategy..Pre$LT$regex_automata..util..prefilter..memmem..Memmem$GT$$GT$17h1910cacd5e998628E', symObjAddr: 0xF4FBC, symBinAddr: 0xE6144, symSize: 0x60 }
  - { offset: 0x40E020, size: 0x8, addend: 0x0, symName: '__ZN4core3ptr111drop_in_place$LT$regex_automata..meta..strategy..Pre$LT$regex_automata..util..prefilter..memchr..Memchr$GT$$GT$17h0e8c0a281b03c736E', symObjAddr: 0xF6610, symBinAddr: 0xE7798, symSize: 0x24 }
  - { offset: 0x40E040, size: 0x8, addend: 0x0, symName: '__ZN4core3ptr111drop_in_place$LT$regex_automata..meta..strategy..Pre$LT$regex_automata..util..prefilter..memchr..Memchr$GT$$GT$17h0e8c0a281b03c736E', symObjAddr: 0xF6610, symBinAddr: 0xE7798, symSize: 0x24 }
  - { offset: 0x40E05E, size: 0x8, addend: 0x0, symName: '__ZN4core3ptr111drop_in_place$LT$regex_automata..meta..strategy..Pre$LT$regex_automata..util..prefilter..memchr..Memchr$GT$$GT$17h0e8c0a281b03c736E', symObjAddr: 0xF6610, symBinAddr: 0xE7798, symSize: 0x24 }
  - { offset: 0x40E07C, size: 0x8, addend: 0x0, symName: '__ZN4core3ptr111drop_in_place$LT$regex_automata..meta..strategy..Pre$LT$regex_automata..util..prefilter..memchr..Memchr$GT$$GT$17h0e8c0a281b03c736E', symObjAddr: 0xF6610, symBinAddr: 0xE7798, symSize: 0x24 }
  - { offset: 0x40E09A, size: 0x8, addend: 0x0, symName: '__ZN4core3ptr111drop_in_place$LT$regex_automata..meta..strategy..Pre$LT$regex_automata..util..prefilter..memchr..Memchr$GT$$GT$17h0e8c0a281b03c736E', symObjAddr: 0xF6610, symBinAddr: 0xE7798, symSize: 0x24 }
  - { offset: 0x40E0B6, size: 0x8, addend: 0x0, symName: '__ZN4core3ptr111drop_in_place$LT$regex_automata..meta..strategy..Pre$LT$regex_automata..util..prefilter..memchr..Memchr$GT$$GT$17h0e8c0a281b03c736E', symObjAddr: 0xF6610, symBinAddr: 0xE7798, symSize: 0x24 }
  - { offset: 0x40E139, size: 0x8, addend: 0x0, symName: '__ZN4core3ptr67drop_in_place$LT$regex_automata..util..captures..GroupInfoError$GT$17h91391f63cba9ffa0E', symObjAddr: 0xF6E10, symBinAddr: 0xE7F98, symSize: 0x24 }
  - { offset: 0x40E2DD, size: 0x8, addend: 0x0, symName: '__ZN4core3ptr151drop_in_place$LT$alloc..sync..ArcInner$LT$regex_automata..meta..strategy..Pre$LT$regex_automata..util..prefilter..aho_corasick..AhoCorasick$GT$$GT$$GT$17h717fd928b792b6e6E', symObjAddr: 0xF6E34, symBinAddr: 0xE7FBC, symSize: 0x8C }
  - { offset: 0x40E65C, size: 0x8, addend: 0x0, symName: '__ZN4core3ptr138drop_in_place$LT$alloc..sync..ArcInner$LT$regex_automata..meta..strategy..Pre$LT$regex_automata..util..prefilter..teddy..Teddy$GT$$GT$$GT$17h3eef95542986a3a7E', symObjAddr: 0xF6F84, symBinAddr: 0xE810C, symSize: 0x94 }
  - { offset: 0x40E8C7, size: 0x8, addend: 0x0, symName: '__ZN4core3ptr140drop_in_place$LT$alloc..sync..ArcInner$LT$regex_automata..meta..strategy..Pre$LT$regex_automata..util..prefilter..memmem..Memmem$GT$$GT$$GT$17hc4dd48b3f0019fa9E', symObjAddr: 0xF7018, symBinAddr: 0xE81A0, symSize: 0x60 }
  - { offset: 0x40EBB6, size: 0x8, addend: 0x0, symName: '__ZN4core3ptr55drop_in_place$LT$aho_corasick..packed..api..Builder$GT$17h89afac2ea479350bE', symObjAddr: 0xF7BEC, symBinAddr: 0xE8D74, symSize: 0x80 }
  - { offset: 0x4136FE, size: 0x8, addend: 0x0, symName: '__ZN66_$LT$core..option..Option$LT$T$GT$$u20$as$u20$core..fmt..Debug$GT$3fmt17h0f1ba61e1da6db82E', symObjAddr: 0xE2310, symBinAddr: 0xD3554, symSize: 0x164 }
  - { offset: 0x413905, size: 0x8, addend: 0x0, symName: '__ZN66_$LT$core..option..Option$LT$T$GT$$u20$as$u20$core..fmt..Debug$GT$3fmt17hed17ccf91e761d48E', symObjAddr: 0xE2474, symBinAddr: 0xD36B8, symSize: 0x29C }
  - { offset: 0x413CE8, size: 0x8, addend: 0x0, symName: '__ZN66_$LT$core..option..Option$LT$T$GT$$u20$as$u20$core..fmt..Debug$GT$3fmt17h38198b5a7310fea8E', symObjAddr: 0xE2780, symBinAddr: 0xD39C4, symSize: 0x164 }
  - { offset: 0x413F32, size: 0x8, addend: 0x0, symName: '__ZN66_$LT$core..option..Option$LT$T$GT$$u20$as$u20$core..fmt..Debug$GT$3fmt17h94851d9a525a0c29E', symObjAddr: 0xE2DD4, symBinAddr: 0xD4018, symSize: 0x17C }
  - { offset: 0x4142B7, size: 0x8, addend: 0x0, symName: '__ZN66_$LT$core..option..Option$LT$T$GT$$u20$as$u20$core..fmt..Debug$GT$3fmt17h207d369287373d3fE', symObjAddr: 0xE5700, symBinAddr: 0xD6944, symSize: 0x144 }
  - { offset: 0x4145A1, size: 0x8, addend: 0x0, symName: '__ZN66_$LT$core..option..Option$LT$T$GT$$u20$as$u20$core..fmt..Debug$GT$3fmt17h736ff142fab32020E', symObjAddr: 0xE58B0, symBinAddr: 0xD6AF4, symSize: 0x164 }
  - { offset: 0x4147A8, size: 0x8, addend: 0x0, symName: '__ZN66_$LT$core..option..Option$LT$T$GT$$u20$as$u20$core..fmt..Debug$GT$3fmt17h19d7e8e592ca210fE', symObjAddr: 0xE63D0, symBinAddr: 0xD7614, symSize: 0x164 }
  - { offset: 0x41CDBD, size: 0x8, addend: 0x0, symName: __ZN4core3str11validations15next_code_point17h1cf698294e5de795E, symObjAddr: 0xB4D0C, symBinAddr: 0xA8C84, symSize: 0xA0 }
  - { offset: 0x41ECBC, size: 0x8, addend: 0x0, symName: __ZN4core9panicking13assert_failed17h3873c6a914a9f6acE, symObjAddr: 0xB07C4, symBinAddr: 0x142D14, symSize: 0x2C }
  - { offset: 0x41ED29, size: 0x8, addend: 0x0, symName: __ZN4core9panicking13assert_failed17hb785195cee18e858E, symObjAddr: 0xDC240, symBinAddr: 0x145E58, symSize: 0x20 }
  - { offset: 0x41EF09, size: 0x8, addend: 0x0, symName: '__ZN42_$LT$$RF$T$u20$as$u20$core..fmt..Debug$GT$3fmt17hfca679c722cc7917E', symObjAddr: 0xAE910, symBinAddr: 0xA306C, symSize: 0x348 }
  - { offset: 0x41F565, size: 0x8, addend: 0x0, symName: '__ZN42_$LT$$RF$T$u20$as$u20$core..fmt..Debug$GT$3fmt17hc6c41733818de585E', symObjAddr: 0xAFA38, symBinAddr: 0xA4194, symSize: 0x164 }
  - { offset: 0x41F793, size: 0x8, addend: 0x0, symName: '__ZN42_$LT$$RF$T$u20$as$u20$core..fmt..Debug$GT$3fmt17h2c5ebc84caf70cd1E', symObjAddr: 0xB12AC, symBinAddr: 0xA582C, symSize: 0x108 }
  - { offset: 0x41F905, size: 0x8, addend: 0x0, symName: '__ZN42_$LT$$RF$T$u20$as$u20$core..fmt..Debug$GT$3fmt17h7a0900b2826b4c5eE', symObjAddr: 0xB13B4, symBinAddr: 0xA5934, symSize: 0x12C }
  - { offset: 0x41FB3F, size: 0x8, addend: 0x0, symName: '__ZN42_$LT$$RF$T$u20$as$u20$core..fmt..Debug$GT$3fmt17hf3f196b8f070636fE', symObjAddr: 0xB2D0C, symBinAddr: 0xA6C84, symSize: 0xF8 }
  - { offset: 0x41FCA5, size: 0x8, addend: 0x0, symName: '__ZN42_$LT$$RF$T$u20$as$u20$core..fmt..Debug$GT$3fmt17h9faafa4f2bda3a18E', symObjAddr: 0xB2E04, symBinAddr: 0xA6D7C, symSize: 0xFC }
  - { offset: 0x41FE4A, size: 0x8, addend: 0x0, symName: '__ZN42_$LT$$RF$T$u20$as$u20$core..fmt..Debug$GT$3fmt17h62b70385d9e8ab39E', symObjAddr: 0xB2F00, symBinAddr: 0xA6E78, symSize: 0x370 }
  - { offset: 0x4204B6, size: 0x8, addend: 0x0, symName: '__ZN42_$LT$$RF$T$u20$as$u20$core..fmt..Debug$GT$3fmt17h8214e3573b9db238E', symObjAddr: 0xB3270, symBinAddr: 0xA71E8, symSize: 0x12C }
  - { offset: 0x420723, size: 0x8, addend: 0x0, symName: '__ZN42_$LT$$RF$T$u20$as$u20$core..fmt..Debug$GT$3fmt17hbe6ae4a1e8606d4fE', symObjAddr: 0xB34C8, symBinAddr: 0xA7440, symSize: 0x26C }
  - { offset: 0x420AF3, size: 0x8, addend: 0x0, symName: '__ZN42_$LT$$RF$T$u20$as$u20$core..fmt..Debug$GT$3fmt17h18155bd0715343a6E', symObjAddr: 0xBF96C, symBinAddr: 0xB34B0, symSize: 0x1FC }
  - { offset: 0x420D41, size: 0x8, addend: 0x0, symName: '__ZN42_$LT$$RF$T$u20$as$u20$core..fmt..Debug$GT$3fmt17h2d01829c2ba66951E', symObjAddr: 0xBFB68, symBinAddr: 0xB36AC, symSize: 0x184 }
  - { offset: 0x420FAB, size: 0x8, addend: 0x0, symName: '__ZN42_$LT$$RF$T$u20$as$u20$core..fmt..Debug$GT$3fmt17ha115fb88d72c70b8E', symObjAddr: 0xD14D4, symBinAddr: 0xC4DE0, symSize: 0x8 }
  - { offset: 0x421027, size: 0x8, addend: 0x0, symName: '__ZN42_$LT$$RF$T$u20$as$u20$core..fmt..Debug$GT$3fmt17h83c6e4f8bd8878aaE', symObjAddr: 0xDC260, symBinAddr: 0xCD7F0, symSize: 0x12C }
  - { offset: 0x421248, size: 0x8, addend: 0x0, symName: '__ZN42_$LT$$RF$T$u20$as$u20$core..fmt..Debug$GT$3fmt17h72543e04c4197b72E', symObjAddr: 0xE0C50, symBinAddr: 0xD1E94, symSize: 0x120 }
  - { offset: 0x42147A, size: 0x8, addend: 0x0, symName: '__ZN42_$LT$$RF$T$u20$as$u20$core..fmt..Debug$GT$3fmt17h93589c240150aa1eE', symObjAddr: 0xE0D70, symBinAddr: 0xD1FB4, symSize: 0x158 }
  - { offset: 0x4216B4, size: 0x8, addend: 0x0, symName: '__ZN42_$LT$$RF$T$u20$as$u20$core..fmt..Debug$GT$3fmt17hff8f35cbd1e84a3bE', symObjAddr: 0xE0EC8, symBinAddr: 0xD210C, symSize: 0x12C }
  - { offset: 0x421953, size: 0x8, addend: 0x0, symName: '__ZN42_$LT$$RF$T$u20$as$u20$core..fmt..Debug$GT$3fmt17hb1e04c4efffa0744E', symObjAddr: 0xE1138, symBinAddr: 0xD237C, symSize: 0x168 }
  - { offset: 0x421B90, size: 0x8, addend: 0x0, symName: '__ZN42_$LT$$RF$T$u20$as$u20$core..fmt..Debug$GT$3fmt17he58b7de2652d9d20E', symObjAddr: 0xE12A0, symBinAddr: 0xD24E4, symSize: 0x12C }
  - { offset: 0x421DA5, size: 0x8, addend: 0x0, symName: '__ZN42_$LT$$RF$T$u20$as$u20$core..fmt..Debug$GT$3fmt17hed203701ea40f4c6E', symObjAddr: 0xE13CC, symBinAddr: 0xD2610, symSize: 0x324 }
  - { offset: 0x422165, size: 0x8, addend: 0x0, symName: '__ZN42_$LT$$RF$T$u20$as$u20$core..fmt..Debug$GT$3fmt17h51a40e253bf4405aE', symObjAddr: 0xE16F0, symBinAddr: 0xD2934, symSize: 0xBC }
  - { offset: 0x4221E7, size: 0x8, addend: 0x0, symName: '__ZN42_$LT$$RF$T$u20$as$u20$core..fmt..Debug$GT$3fmt17hcdb00cae57fbdbe4E', symObjAddr: 0xE1870, symBinAddr: 0xD2AB4, symSize: 0x1B8 }
  - { offset: 0x42252B, size: 0x8, addend: 0x0, symName: '__ZN42_$LT$$RF$T$u20$as$u20$core..fmt..Debug$GT$3fmt17h7bb3ee31a0c78c30E', symObjAddr: 0xE2040, symBinAddr: 0xD3284, symSize: 0x168 }
  - { offset: 0x42276B, size: 0x8, addend: 0x0, symName: '__ZN42_$LT$$RF$T$u20$as$u20$core..fmt..Debug$GT$3fmt17h2563df8a08ab765aE', symObjAddr: 0xE21A8, symBinAddr: 0xD33EC, symSize: 0x168 }
  - { offset: 0x4229DE, size: 0x8, addend: 0x0, symName: '__ZN42_$LT$$RF$T$u20$as$u20$core..fmt..Debug$GT$3fmt17h32cf97b36f38d81bE', symObjAddr: 0xE2710, symBinAddr: 0xD3954, symSize: 0x38 }
  - { offset: 0x422A63, size: 0x8, addend: 0x0, symName: '__ZN42_$LT$$RF$T$u20$as$u20$core..fmt..Debug$GT$3fmt17h9aba2746f81bbd3dE', symObjAddr: 0xE28E4, symBinAddr: 0xD3B28, symSize: 0x164 }
  - { offset: 0x422C9F, size: 0x8, addend: 0x0, symName: '__ZN42_$LT$$RF$T$u20$as$u20$core..fmt..Debug$GT$3fmt17hbf497fc1f3889345E', symObjAddr: 0xE2A48, symBinAddr: 0xD3C8C, symSize: 0x38C }
  - { offset: 0x423308, size: 0x8, addend: 0x0, symName: '__ZN42_$LT$$RF$T$u20$as$u20$core..fmt..Debug$GT$3fmt17hc29d4ee64e244664E', symObjAddr: 0xE3070, symBinAddr: 0xD42B4, symSize: 0x158 }
  - { offset: 0x423555, size: 0x8, addend: 0x0, symName: '__ZN42_$LT$$RF$T$u20$as$u20$core..fmt..Debug$GT$3fmt17h21bd830f6b25de66E', symObjAddr: 0xE31C8, symBinAddr: 0xD440C, symSize: 0x114 }
  - { offset: 0x42377A, size: 0x8, addend: 0x0, symName: '__ZN42_$LT$$RF$T$u20$as$u20$core..fmt..Debug$GT$3fmt17h1194788432eae948E', symObjAddr: 0xE32DC, symBinAddr: 0xD4520, symSize: 0x61C }
  - { offset: 0x4244A3, size: 0x8, addend: 0x0, symName: '__ZN42_$LT$$RF$T$u20$as$u20$core..fmt..Debug$GT$3fmt17h51c2a43e7998cc14E', symObjAddr: 0xE3EC4, symBinAddr: 0xD5108, symSize: 0x164 }
  - { offset: 0x4246E0, size: 0x8, addend: 0x0, symName: '__ZN42_$LT$$RF$T$u20$as$u20$core..fmt..Debug$GT$3fmt17hb4913d88cf41f2b2E', symObjAddr: 0xE4028, symBinAddr: 0xD526C, symSize: 0x12C }
  - { offset: 0x424927, size: 0x8, addend: 0x0, symName: '__ZN42_$LT$$RF$T$u20$as$u20$core..fmt..Debug$GT$3fmt17ha8a579422830b7d5E', symObjAddr: 0xE4154, symBinAddr: 0xD5398, symSize: 0x1E0 }
  - { offset: 0x424D54, size: 0x8, addend: 0x0, symName: '__ZN42_$LT$$RF$T$u20$as$u20$core..fmt..Debug$GT$3fmt17h87567c0db79c42f8E', symObjAddr: 0xE458C, symBinAddr: 0xD57D0, symSize: 0x604 }
  - { offset: 0x4266FE, size: 0x8, addend: 0x0, symName: '__ZN42_$LT$$RF$T$u20$as$u20$core..fmt..Debug$GT$3fmt17hf10bdb6c4b9cb702E', symObjAddr: 0xE4B90, symBinAddr: 0xD5DD4, symSize: 0xB0 }
  - { offset: 0x426831, size: 0x8, addend: 0x0, symName: '__ZN42_$LT$$RF$T$u20$as$u20$core..fmt..Debug$GT$3fmt17h42a442e0db2913d6E', symObjAddr: 0xE4E88, symBinAddr: 0xD60CC, symSize: 0x38 }
  - { offset: 0x4268B5, size: 0x8, addend: 0x0, symName: '__ZN42_$LT$$RF$T$u20$as$u20$core..fmt..Debug$GT$3fmt17hb1329567958b576cE', symObjAddr: 0xE5180, symBinAddr: 0xD63C4, symSize: 0x12C }
  - { offset: 0x426AC9, size: 0x8, addend: 0x0, symName: '__ZN42_$LT$$RF$T$u20$as$u20$core..fmt..Debug$GT$3fmt17hd891f33223209d7bE', symObjAddr: 0xE52AC, symBinAddr: 0xD64F0, symSize: 0x1E0 }
  - { offset: 0x426EE6, size: 0x8, addend: 0x0, symName: '__ZN42_$LT$$RF$T$u20$as$u20$core..fmt..Debug$GT$3fmt17hec1ae67d0009f567E', symObjAddr: 0xE5574, symBinAddr: 0xD67B8, symSize: 0x164 }
  - { offset: 0x427127, size: 0x8, addend: 0x0, symName: '__ZN42_$LT$$RF$T$u20$as$u20$core..fmt..Debug$GT$3fmt17h1922b06190cb7463E', symObjAddr: 0xE5B64, symBinAddr: 0xD6DA8, symSize: 0x3E0 }
  - { offset: 0x427532, size: 0x8, addend: 0x0, symName: '__ZN42_$LT$$RF$T$u20$as$u20$core..fmt..Debug$GT$3fmt17h95b19647f6a11e52E', symObjAddr: 0xE5F44, symBinAddr: 0xD7188, symSize: 0x28C }
  - { offset: 0x4278BC, size: 0x8, addend: 0x0, symName: '__ZN42_$LT$$RF$T$u20$as$u20$core..fmt..Debug$GT$3fmt17ha07002f0dfa9a65cE', symObjAddr: 0xE9C00, symBinAddr: 0xDAE44, symSize: 0x120 }
  - { offset: 0x427AEE, size: 0x8, addend: 0x0, symName: '__ZN42_$LT$$RF$T$u20$as$u20$core..fmt..Debug$GT$3fmt17h7690ec87fa2e978dE', symObjAddr: 0xE9D20, symBinAddr: 0xDAF64, symSize: 0x158 }
  - { offset: 0x427D28, size: 0x8, addend: 0x0, symName: '__ZN42_$LT$$RF$T$u20$as$u20$core..fmt..Debug$GT$3fmt17hca9be9d5fe3cf895E', symObjAddr: 0xE9E78, symBinAddr: 0xDB0BC, symSize: 0x12C }
  - { offset: 0x427FC7, size: 0x8, addend: 0x0, symName: '__ZN42_$LT$$RF$T$u20$as$u20$core..fmt..Debug$GT$3fmt17h81c2330e155b52f5E', symObjAddr: 0xEA184, symBinAddr: 0xDB3C8, symSize: 0x168 }
  - { offset: 0x428237, size: 0x8, addend: 0x0, symName: '__ZN42_$LT$$RF$T$u20$as$u20$core..fmt..Debug$GT$3fmt17hf4c70a35b7dc0c65E', symObjAddr: 0xEA2EC, symBinAddr: 0xDB530, symSize: 0x24C }
  - { offset: 0x428540, size: 0x8, addend: 0x0, symName: '__ZN42_$LT$$RF$T$u20$as$u20$core..fmt..Debug$GT$3fmt17he541c4fe02b7895cE', symObjAddr: 0xEE2F8, symBinAddr: 0xDF53C, symSize: 0xDC }
  - { offset: 0x4285E4, size: 0x8, addend: 0x0, symName: '__ZN42_$LT$$RF$T$u20$as$u20$core..fmt..Debug$GT$3fmt17h98139038012067d9E', symObjAddr: 0xEE500, symBinAddr: 0xDF744, symSize: 0x158 }
  - { offset: 0x428961, size: 0x8, addend: 0x0, symName: '__ZN42_$LT$$RF$T$u20$as$u20$core..fmt..Debug$GT$3fmt17hd02dc5ce12cbcb60E', symObjAddr: 0xEE7B4, symBinAddr: 0xDF9F8, symSize: 0x254 }
  - { offset: 0x428CEB, size: 0x8, addend: 0x0, symName: '__ZN42_$LT$$RF$T$u20$as$u20$core..fmt..Debug$GT$3fmt17h6f6486d7784536b9E', symObjAddr: 0xEF10C, symBinAddr: 0xE0350, symSize: 0x1F8 }
  - { offset: 0x428F72, size: 0x8, addend: 0x0, symName: '__ZN42_$LT$$RF$T$u20$as$u20$core..fmt..Debug$GT$3fmt17h2345064e45b4144eE', symObjAddr: 0xEF304, symBinAddr: 0xE0548, symSize: 0x1C0 }
  - { offset: 0x429318, size: 0x8, addend: 0x0, symName: '__ZN42_$LT$$RF$T$u20$as$u20$core..fmt..Debug$GT$3fmt17h665b9eaac26ed1a7E', symObjAddr: 0xEF4C4, symBinAddr: 0xE0708, symSize: 0x128 }
  - { offset: 0x429545, size: 0x8, addend: 0x0, symName: '__ZN42_$LT$$RF$T$u20$as$u20$core..fmt..Debug$GT$3fmt17h92005f59d52e60f8E', symObjAddr: 0xEFAB0, symBinAddr: 0xE0CF4, symSize: 0x1F0 }
  - { offset: 0x429812, size: 0x8, addend: 0x0, symName: '__ZN42_$LT$$RF$T$u20$as$u20$core..fmt..Debug$GT$3fmt17h6440aad3be6139f5E', symObjAddr: 0xEFD6C, symBinAddr: 0xE0FB0, symSize: 0x1EC }
  - { offset: 0x429B2C, size: 0x8, addend: 0x0, symName: '__ZN42_$LT$$RF$T$u20$as$u20$core..fmt..Debug$GT$3fmt17h0da2589f40c96459E', symObjAddr: 0xF0084, symBinAddr: 0xE12C8, symSize: 0x1E8 }
  - { offset: 0x429F87, size: 0x8, addend: 0x0, symName: '__ZN42_$LT$$RF$T$u20$as$u20$core..fmt..Debug$GT$3fmt17h2b92ef56dd39e0bdE', symObjAddr: 0xF026C, symBinAddr: 0xE14B0, symSize: 0x1F0 }
  - { offset: 0x42A221, size: 0x8, addend: 0x0, symName: '__ZN42_$LT$$RF$T$u20$as$u20$core..fmt..Debug$GT$3fmt17h88a7ebf1ea94fc0bE', symObjAddr: 0xF045C, symBinAddr: 0xE16A0, symSize: 0x1F0 }
  - { offset: 0x42A4EE, size: 0x8, addend: 0x0, symName: '__ZN42_$LT$$RF$T$u20$as$u20$core..fmt..Debug$GT$3fmt17h851ac6e49b2f5a3bE', symObjAddr: 0xF32E4, symBinAddr: 0xE446C, symSize: 0x23C }
  - { offset: 0x42A7E3, size: 0x8, addend: 0x0, symName: '__ZN42_$LT$$RF$T$u20$as$u20$core..fmt..Debug$GT$3fmt17hc0e1024dd8cfc8c5E', symObjAddr: 0xF370C, symBinAddr: 0xE4894, symSize: 0x1E8 }
  - { offset: 0x42AA95, size: 0x8, addend: 0x0, symName: '__ZN42_$LT$$RF$T$u20$as$u20$core..fmt..Debug$GT$3fmt17h1a07629ee570c55eE', symObjAddr: 0xF38F4, symBinAddr: 0xE4A7C, symSize: 0x150 }
  - { offset: 0x42AD66, size: 0x8, addend: 0x0, symName: '__ZN42_$LT$$RF$T$u20$as$u20$core..fmt..Debug$GT$3fmt17h8f31a24d0a02c273E', symObjAddr: 0xF3A44, symBinAddr: 0xE4BCC, symSize: 0x18 }
  - { offset: 0x42ADC0, size: 0x8, addend: 0x0, symName: '__ZN42_$LT$$RF$T$u20$as$u20$core..fmt..Debug$GT$3fmt17hb78ef31023ddfa96E', symObjAddr: 0xF3C58, symBinAddr: 0xE4DE0, symSize: 0x15C }
  - { offset: 0x42B3C1, size: 0x8, addend: 0x0, symName: '__ZN42_$LT$$RF$T$u20$as$u20$core..fmt..Debug$GT$3fmt17h3e2633c0a51ab8e6E', symObjAddr: 0xF3DB4, symBinAddr: 0xE4F3C, symSize: 0x12C }
  - { offset: 0x42B5E2, size: 0x8, addend: 0x0, symName: '__ZN42_$LT$$RF$T$u20$as$u20$core..fmt..Debug$GT$3fmt17h9c5c3de47712cc8fE', symObjAddr: 0xF40D8, symBinAddr: 0xE5260, symSize: 0x1C8 }
  - { offset: 0x43D480, size: 0x8, addend: 0x0, symName: __ZN4core5slice4sort6stable14driftsort_main17h30dcae869440e543E, symObjAddr: 0xD2F60, symBinAddr: 0xC686C, symSize: 0x114 }
  - { offset: 0x43DCB5, size: 0x8, addend: 0x0, symName: __ZN4core5slice4sort6stable5drift4sort17h15876b1df37fe1edE, symObjAddr: 0xF0CEC, symBinAddr: 0xE1F30, symSize: 0x660 }
  - { offset: 0x43FFBE, size: 0x8, addend: 0x0, symName: __ZN4core5slice4sort6stable9quicksort9quicksort17hbb18b3a1c5c999eeE, symObjAddr: 0xF13BC, symBinAddr: 0xE2600, symSize: 0x8C8 }
  - { offset: 0x442B29, size: 0x8, addend: 0x0, symName: __ZN4core5slice4sort6shared9smallsort25insertion_sort_shift_left17hd912f8ffd58ca1b2E, symObjAddr: 0xD3074, symBinAddr: 0xC6980, symSize: 0x164 }
  - { offset: 0x44352B, size: 0x8, addend: 0x0, symName: __ZN4core5slice4sort6shared9smallsort12sort4_stable17h2c8c253d9a8d1b3dE, symObjAddr: 0xF1C84, symBinAddr: 0xE2EC8, symSize: 0x1E0 }
  - { offset: 0x444AC8, size: 0x8, addend: 0x0, symName: __ZN4core5slice4sort6shared5pivot11median3_rec17h719cf2c5650991d8E, symObjAddr: 0xF1E64, symBinAddr: 0xE30A8, symSize: 0x184 }
  - { offset: 0x446D2D, size: 0x8, addend: 0x0, symName: '__ZN4core3ops8function6FnOnce40call_once$u7b$$u7b$vtable.shim$u7d$$u7d$17he04c63fe034dc995E', symObjAddr: 0xD00EC, symBinAddr: 0xC39F8, symSize: 0x9C }
  - { offset: 0x448ECB, size: 0x8, addend: 0x0, symName: '__ZN100_$LT$core..iter..adapters..take..Take$LT$I$GT$$u20$as$u20$core..iter..traits..iterator..Iterator$GT$3nth17h1ff25455d6c05587E', symObjAddr: 0xF0C50, symBinAddr: 0xE1E94, symSize: 0x9C }
  - { offset: 0x449B7D, size: 0x8, addend: 0x0, symName: '__ZN102_$LT$core..iter..adapters..map..Map$LT$I$C$F$GT$$u20$as$u20$core..iter..traits..iterator..Iterator$GT$4next17h65dcda10941fbe93E', symObjAddr: 0xC4F28, symBinAddr: 0xB8A6C, symSize: 0x370 }
  - { offset: 0x44E13F, size: 0x8, addend: 0x0, symName: '__ZN71_$LT$core..hash..sip..Hasher$LT$S$GT$$u20$as$u20$core..hash..Hasher$GT$5write17h6e93e2d38bc9a01dE', symObjAddr: 0xB2A2C, symBinAddr: 0xA6A0C, symSize: 0x1E8 }
  - { offset: 0x44E9D4, size: 0x8, addend: 0x0, symName: __ZN4core4hash11BuildHasher8hash_one17had4c26fd415ed633E, symObjAddr: 0xB1D64, symBinAddr: 0xA6258, symSize: 0x128 }
  - { offset: 0x44EF86, size: 0x8, addend: 0x0, symName: __ZN4core4hash11BuildHasher8hash_one17hd7c55d3477969595E, symObjAddr: 0xB23F0, symBinAddr: 0xA68E4, symSize: 0x128 }
  - { offset: 0x44F592, size: 0x8, addend: 0x0, symName: __ZN4core4hash11BuildHasher8hash_one17h9fc1ff93a14024d5E, symObjAddr: 0xDA8F4, symBinAddr: 0xCC520, symSize: 0x134 }
  - { offset: 0x44FF71, size: 0x8, addend: 0x0, symName: '__ZN14regex_automata4meta5regex7Builder19build_many_from_hir28_$u7b$$u7b$closure$u7d$$u7d$17h8b9a6402c712fe1dE', symObjAddr: 0xD0188, symBinAddr: 0xC3A94, symSize: 0x20 }
  - { offset: 0x44FFA1, size: 0x8, addend: 0x0, symName: '__ZN14regex_automata4meta5regex7Builder19build_many_from_hir28_$u7b$$u7b$closure$u7d$$u7d$17h8b9a6402c712fe1dE', symObjAddr: 0xD0188, symBinAddr: 0xC3A94, symSize: 0x20 }
  - { offset: 0x44FFBD, size: 0x8, addend: 0x0, symName: '__ZN14regex_automata4meta5regex7Builder19build_many_from_hir28_$u7b$$u7b$closure$u7d$$u7d$17h8b9a6402c712fe1dE', symObjAddr: 0xD0188, symBinAddr: 0xC3A94, symSize: 0x20 }
  - { offset: 0x450521, size: 0x8, addend: 0x0, symName: '__ZN75_$LT$regex_automata..meta..regex..RegexInfo$u20$as$u20$core..fmt..Debug$GT$3fmt17h16fc0e6227663987E', symObjAddr: 0xE5A38, symBinAddr: 0xD6C7C, symSize: 0x12C }
  - { offset: 0x450D22, size: 0x8, addend: 0x0, symName: '__ZN105_$LT$regex_automata..meta..strategy..ReverseInner$u20$as$u20$regex_automata..meta..strategy..Strategy$GT$12memory_usage17h01d329bb2cada3d5E', symObjAddr: 0xAE2D8, symBinAddr: 0xA2A34, symSize: 0xB4 }
  - { offset: 0x450E82, size: 0x8, addend: 0x0, symName: '__ZN105_$LT$regex_automata..meta..strategy..ReverseInner$u20$as$u20$regex_automata..meta..strategy..Strategy$GT$10group_info17h69f1d19af43c3737E', symObjAddr: 0xE6600, symBinAddr: 0xD7844, symSize: 0xC }
  - { offset: 0x450EB4, size: 0x8, addend: 0x0, symName: '__ZN105_$LT$regex_automata..meta..strategy..ReverseInner$u20$as$u20$regex_automata..meta..strategy..Strategy$GT$10group_info17h69f1d19af43c3737E', symObjAddr: 0xE6600, symBinAddr: 0xD7844, symSize: 0xC }
  - { offset: 0x450ED0, size: 0x8, addend: 0x0, symName: '__ZN105_$LT$regex_automata..meta..strategy..ReverseInner$u20$as$u20$regex_automata..meta..strategy..Strategy$GT$10group_info17h69f1d19af43c3737E', symObjAddr: 0xE6600, symBinAddr: 0xD7844, symSize: 0xC }
  - { offset: 0x450EEF, size: 0x8, addend: 0x0, symName: '__ZN105_$LT$regex_automata..meta..strategy..ReverseInner$u20$as$u20$regex_automata..meta..strategy..Strategy$GT$10group_info17h69f1d19af43c3737E', symObjAddr: 0xE6600, symBinAddr: 0xD7844, symSize: 0xC }
  - { offset: 0x450F0E, size: 0x8, addend: 0x0, symName: '__ZN105_$LT$regex_automata..meta..strategy..ReverseInner$u20$as$u20$regex_automata..meta..strategy..Strategy$GT$10group_info17h69f1d19af43c3737E', symObjAddr: 0xE6600, symBinAddr: 0xD7844, symSize: 0xC }
  - { offset: 0x450F2D, size: 0x8, addend: 0x0, symName: '__ZN105_$LT$regex_automata..meta..strategy..ReverseInner$u20$as$u20$regex_automata..meta..strategy..Strategy$GT$10group_info17h69f1d19af43c3737E', symObjAddr: 0xE6600, symBinAddr: 0xD7844, symSize: 0xC }
  - { offset: 0x450F62, size: 0x8, addend: 0x0, symName: '__ZN105_$LT$regex_automata..meta..strategy..ReverseInner$u20$as$u20$regex_automata..meta..strategy..Strategy$GT$12create_cache17h761f4979d0f7617bE', symObjAddr: 0xE660C, symBinAddr: 0xD7850, symSize: 0x3DC }
  - { offset: 0x451BFA, size: 0x8, addend: 0x0, symName: '__ZN105_$LT$regex_automata..meta..strategy..ReverseInner$u20$as$u20$regex_automata..meta..strategy..Strategy$GT$11reset_cache17h159dd520917c6f8bE', symObjAddr: 0xE69E8, symBinAddr: 0xD7C2C, symSize: 0x268 }
  - { offset: 0x452544, size: 0x8, addend: 0x0, symName: '__ZN105_$LT$regex_automata..meta..strategy..ReverseInner$u20$as$u20$regex_automata..meta..strategy..Strategy$GT$14is_accelerated17h32c269a046f4ddc3E', symObjAddr: 0xE6C50, symBinAddr: 0xD7E94, symSize: 0x8 }
  - { offset: 0x452576, size: 0x8, addend: 0x0, symName: '__ZN105_$LT$regex_automata..meta..strategy..ReverseInner$u20$as$u20$regex_automata..meta..strategy..Strategy$GT$14is_accelerated17h32c269a046f4ddc3E', symObjAddr: 0xE6C50, symBinAddr: 0xD7E94, symSize: 0x8 }
  - { offset: 0x452593, size: 0x8, addend: 0x0, symName: '__ZN105_$LT$regex_automata..meta..strategy..ReverseInner$u20$as$u20$regex_automata..meta..strategy..Strategy$GT$6search17hd6279e509ac8a5aaE', symObjAddr: 0xE6C58, symBinAddr: 0xD7E9C, symSize: 0x5B0 }
  - { offset: 0x453207, size: 0x8, addend: 0x0, symName: '__ZN105_$LT$regex_automata..meta..strategy..ReverseInner$u20$as$u20$regex_automata..meta..strategy..Strategy$GT$11search_half17h1c0ac5927a69e075E', symObjAddr: 0xE7208, symBinAddr: 0xD844C, symSize: 0x6E8 }
  - { offset: 0x454168, size: 0x8, addend: 0x0, symName: '__ZN105_$LT$regex_automata..meta..strategy..ReverseInner$u20$as$u20$regex_automata..meta..strategy..Strategy$GT$8is_match17h73cff2ced7aefac1E', symObjAddr: 0xE78F0, symBinAddr: 0xD8B34, symSize: 0x53C }
  - { offset: 0x454D01, size: 0x8, addend: 0x0, symName: '__ZN105_$LT$regex_automata..meta..strategy..ReverseInner$u20$as$u20$regex_automata..meta..strategy..Strategy$GT$12search_slots17h7a7020987193d1e5E', symObjAddr: 0xE7E2C, symBinAddr: 0xD9070, symSize: 0xCBC }
  - { offset: 0x456DB5, size: 0x8, addend: 0x0, symName: '__ZN105_$LT$regex_automata..meta..strategy..ReverseInner$u20$as$u20$regex_automata..meta..strategy..Strategy$GT$25which_overlapping_matches17h616df7df9a1059f2E', symObjAddr: 0xE8AE8, symBinAddr: 0xD9D2C, symSize: 0xBC }
  - { offset: 0x456F82, size: 0x8, addend: 0x0, symName: '__ZN97_$LT$regex_automata..meta..strategy..Core$u20$as$u20$regex_automata..meta..strategy..Strategy$GT$12memory_usage17hbc33e72b2eb84793E', symObjAddr: 0xAE38C, symBinAddr: 0xA2AE8, symSize: 0x148 }
  - { offset: 0x457360, size: 0x8, addend: 0x0, symName: '__ZN97_$LT$regex_automata..meta..strategy..Core$u20$as$u20$regex_automata..meta..strategy..Strategy$GT$12create_cache17h78e1537dd79804bdE', symObjAddr: 0xD4EEC, symBinAddr: 0xC87F8, symSize: 0x36C }
  - { offset: 0x457F94, size: 0x8, addend: 0x0, symName: '__ZN97_$LT$regex_automata..meta..strategy..Core$u20$as$u20$regex_automata..meta..strategy..Strategy$GT$11reset_cache17h9d406d1897f94615E', symObjAddr: 0xD5258, symBinAddr: 0xC8B64, symSize: 0x1D4 }
  - { offset: 0x45860B, size: 0x8, addend: 0x0, symName: '__ZN97_$LT$regex_automata..meta..strategy..Core$u20$as$u20$regex_automata..meta..strategy..Strategy$GT$14is_accelerated17h5038adfcd8dba889E', symObjAddr: 0xD542C, symBinAddr: 0xC8D38, symSize: 0xC }
  - { offset: 0x45863D, size: 0x8, addend: 0x0, symName: '__ZN97_$LT$regex_automata..meta..strategy..Core$u20$as$u20$regex_automata..meta..strategy..Strategy$GT$14is_accelerated17h5038adfcd8dba889E', symObjAddr: 0xD542C, symBinAddr: 0xC8D38, symSize: 0xC }
  - { offset: 0x458678, size: 0x8, addend: 0x0, symName: '__ZN97_$LT$regex_automata..meta..strategy..Core$u20$as$u20$regex_automata..meta..strategy..Strategy$GT$6search17h62c4ec8dae4bfb22E', symObjAddr: 0xD5438, symBinAddr: 0xC8D44, symSize: 0x130 }
  - { offset: 0x458AC2, size: 0x8, addend: 0x0, symName: '__ZN97_$LT$regex_automata..meta..strategy..Core$u20$as$u20$regex_automata..meta..strategy..Strategy$GT$11search_half17h62486dbefe9e7a41E', symObjAddr: 0xD5568, symBinAddr: 0xC8E74, symSize: 0x1F8 }
  - { offset: 0x4590C1, size: 0x8, addend: 0x0, symName: '__ZN97_$LT$regex_automata..meta..strategy..Core$u20$as$u20$regex_automata..meta..strategy..Strategy$GT$8is_match17h50314226d54100a6E', symObjAddr: 0xD5760, symBinAddr: 0xC906C, symSize: 0x180 }
  - { offset: 0x4596B5, size: 0x8, addend: 0x0, symName: '__ZN97_$LT$regex_automata..meta..strategy..Core$u20$as$u20$regex_automata..meta..strategy..Strategy$GT$12search_slots17h3fead0bd7471ef5dE', symObjAddr: 0xD58E0, symBinAddr: 0xC91EC, symSize: 0x344 }
  - { offset: 0x45A199, size: 0x8, addend: 0x0, symName: '__ZN97_$LT$regex_automata..meta..strategy..Core$u20$as$u20$regex_automata..meta..strategy..Strategy$GT$25which_overlapping_matches17ha08e3a507e2f1182E', symObjAddr: 0xD5C24, symBinAddr: 0xC9530, symSize: 0xBC }
  - { offset: 0x45A609, size: 0x8, addend: 0x0, symName: '__ZN106_$LT$regex_automata..meta..strategy..ReverseSuffix$u20$as$u20$regex_automata..meta..strategy..Strategy$GT$12memory_usage17hfc6a27932324fd1eE', symObjAddr: 0xAE4D4, symBinAddr: 0xA2C30, symSize: 0x4C }
  - { offset: 0x45A6C5, size: 0x8, addend: 0x0, symName: '__ZN106_$LT$regex_automata..meta..strategy..ReverseSuffix$u20$as$u20$regex_automata..meta..strategy..Strategy$GT$10group_info17h17904fe1b921b368E', symObjAddr: 0xEACA8, symBinAddr: 0xDBEEC, symSize: 0xC }
  - { offset: 0x45A6F7, size: 0x8, addend: 0x0, symName: '__ZN106_$LT$regex_automata..meta..strategy..ReverseSuffix$u20$as$u20$regex_automata..meta..strategy..Strategy$GT$10group_info17h17904fe1b921b368E', symObjAddr: 0xEACA8, symBinAddr: 0xDBEEC, symSize: 0xC }
  - { offset: 0x45A713, size: 0x8, addend: 0x0, symName: '__ZN106_$LT$regex_automata..meta..strategy..ReverseSuffix$u20$as$u20$regex_automata..meta..strategy..Strategy$GT$10group_info17h17904fe1b921b368E', symObjAddr: 0xEACA8, symBinAddr: 0xDBEEC, symSize: 0xC }
  - { offset: 0x45A732, size: 0x8, addend: 0x0, symName: '__ZN106_$LT$regex_automata..meta..strategy..ReverseSuffix$u20$as$u20$regex_automata..meta..strategy..Strategy$GT$10group_info17h17904fe1b921b368E', symObjAddr: 0xEACA8, symBinAddr: 0xDBEEC, symSize: 0xC }
  - { offset: 0x45A751, size: 0x8, addend: 0x0, symName: '__ZN106_$LT$regex_automata..meta..strategy..ReverseSuffix$u20$as$u20$regex_automata..meta..strategy..Strategy$GT$10group_info17h17904fe1b921b368E', symObjAddr: 0xEACA8, symBinAddr: 0xDBEEC, symSize: 0xC }
  - { offset: 0x45A770, size: 0x8, addend: 0x0, symName: '__ZN106_$LT$regex_automata..meta..strategy..ReverseSuffix$u20$as$u20$regex_automata..meta..strategy..Strategy$GT$10group_info17h17904fe1b921b368E', symObjAddr: 0xEACA8, symBinAddr: 0xDBEEC, symSize: 0xC }
  - { offset: 0x45A7A5, size: 0x8, addend: 0x0, symName: '__ZN106_$LT$regex_automata..meta..strategy..ReverseSuffix$u20$as$u20$regex_automata..meta..strategy..Strategy$GT$12create_cache17h21e0bf2f8fb47c89E', symObjAddr: 0xEACB4, symBinAddr: 0xDBEF8, symSize: 0x36C }
  - { offset: 0x45B402, size: 0x8, addend: 0x0, symName: '__ZN106_$LT$regex_automata..meta..strategy..ReverseSuffix$u20$as$u20$regex_automata..meta..strategy..Strategy$GT$11reset_cache17h7598c98cbd3c8bdeE', symObjAddr: 0xEB020, symBinAddr: 0xDC264, symSize: 0x1D4 }
  - { offset: 0x45BAA1, size: 0x8, addend: 0x0, symName: '__ZN106_$LT$regex_automata..meta..strategy..ReverseSuffix$u20$as$u20$regex_automata..meta..strategy..Strategy$GT$14is_accelerated17ha8223728da583553E', symObjAddr: 0xEB1F4, symBinAddr: 0xDC438, symSize: 0x8 }
  - { offset: 0x45BAD3, size: 0x8, addend: 0x0, symName: '__ZN106_$LT$regex_automata..meta..strategy..ReverseSuffix$u20$as$u20$regex_automata..meta..strategy..Strategy$GT$14is_accelerated17ha8223728da583553E', symObjAddr: 0xEB1F4, symBinAddr: 0xDC438, symSize: 0x8 }
  - { offset: 0x45BAF0, size: 0x8, addend: 0x0, symName: '__ZN106_$LT$regex_automata..meta..strategy..ReverseSuffix$u20$as$u20$regex_automata..meta..strategy..Strategy$GT$6search17hfb0f72d6b0dc01dcE', symObjAddr: 0xEB1FC, symBinAddr: 0xDC440, symSize: 0x5CC }
  - { offset: 0x45C7A8, size: 0x8, addend: 0x0, symName: '__ZN106_$LT$regex_automata..meta..strategy..ReverseSuffix$u20$as$u20$regex_automata..meta..strategy..Strategy$GT$11search_half17h4430de7afc9e1408E', symObjAddr: 0xEB7C8, symBinAddr: 0xDCA0C, symSize: 0x6B4 }
  - { offset: 0x45D5B5, size: 0x8, addend: 0x0, symName: '__ZN106_$LT$regex_automata..meta..strategy..ReverseSuffix$u20$as$u20$regex_automata..meta..strategy..Strategy$GT$8is_match17h7e3bdd43ef742430E', symObjAddr: 0xEBE7C, symBinAddr: 0xDD0C0, symSize: 0x3B8 }
  - { offset: 0x45DEA0, size: 0x8, addend: 0x0, symName: '__ZN106_$LT$regex_automata..meta..strategy..ReverseSuffix$u20$as$u20$regex_automata..meta..strategy..Strategy$GT$12search_slots17h1e0c8929c64330eaE', symObjAddr: 0xEC234, symBinAddr: 0xDD478, symSize: 0xA98 }
  - { offset: 0x45FA64, size: 0x8, addend: 0x0, symName: '__ZN106_$LT$regex_automata..meta..strategy..ReverseSuffix$u20$as$u20$regex_automata..meta..strategy..Strategy$GT$25which_overlapping_matches17h1230ff8073892ba2E', symObjAddr: 0xECCCC, symBinAddr: 0xDDF10, symSize: 0xBC }
  - { offset: 0x45FBCF, size: 0x8, addend: 0x0, symName: '__ZN108_$LT$regex_automata..meta..strategy..ReverseAnchored$u20$as$u20$regex_automata..meta..strategy..Strategy$GT$12memory_usage17h68862ad68b068416E', symObjAddr: 0xAE520, symBinAddr: 0xA2C7C, symSize: 0x4 }
  - { offset: 0x45FBFD, size: 0x8, addend: 0x0, symName: '__ZN108_$LT$regex_automata..meta..strategy..ReverseAnchored$u20$as$u20$regex_automata..meta..strategy..Strategy$GT$10group_info17h13b933c4412b85dfE', symObjAddr: 0xECE50, symBinAddr: 0xDE094, symSize: 0xC }
  - { offset: 0x45FC2F, size: 0x8, addend: 0x0, symName: '__ZN108_$LT$regex_automata..meta..strategy..ReverseAnchored$u20$as$u20$regex_automata..meta..strategy..Strategy$GT$10group_info17h13b933c4412b85dfE', symObjAddr: 0xECE50, symBinAddr: 0xDE094, symSize: 0xC }
  - { offset: 0x45FC4B, size: 0x8, addend: 0x0, symName: '__ZN108_$LT$regex_automata..meta..strategy..ReverseAnchored$u20$as$u20$regex_automata..meta..strategy..Strategy$GT$10group_info17h13b933c4412b85dfE', symObjAddr: 0xECE50, symBinAddr: 0xDE094, symSize: 0xC }
  - { offset: 0x45FC6A, size: 0x8, addend: 0x0, symName: '__ZN108_$LT$regex_automata..meta..strategy..ReverseAnchored$u20$as$u20$regex_automata..meta..strategy..Strategy$GT$10group_info17h13b933c4412b85dfE', symObjAddr: 0xECE50, symBinAddr: 0xDE094, symSize: 0xC }
  - { offset: 0x45FC89, size: 0x8, addend: 0x0, symName: '__ZN108_$LT$regex_automata..meta..strategy..ReverseAnchored$u20$as$u20$regex_automata..meta..strategy..Strategy$GT$10group_info17h13b933c4412b85dfE', symObjAddr: 0xECE50, symBinAddr: 0xDE094, symSize: 0xC }
  - { offset: 0x45FCA8, size: 0x8, addend: 0x0, symName: '__ZN108_$LT$regex_automata..meta..strategy..ReverseAnchored$u20$as$u20$regex_automata..meta..strategy..Strategy$GT$10group_info17h13b933c4412b85dfE', symObjAddr: 0xECE50, symBinAddr: 0xDE094, symSize: 0xC }
  - { offset: 0x45FCDD, size: 0x8, addend: 0x0, symName: '__ZN108_$LT$regex_automata..meta..strategy..ReverseAnchored$u20$as$u20$regex_automata..meta..strategy..Strategy$GT$12create_cache17h76d5cbeb5d74cb9bE', symObjAddr: 0xECE5C, symBinAddr: 0xDE0A0, symSize: 0x36C }
  - { offset: 0x46093A, size: 0x8, addend: 0x0, symName: '__ZN108_$LT$regex_automata..meta..strategy..ReverseAnchored$u20$as$u20$regex_automata..meta..strategy..Strategy$GT$11reset_cache17hd9b7e8c92567736eE', symObjAddr: 0xED1C8, symBinAddr: 0xDE40C, symSize: 0x1D4 }
  - { offset: 0x460FD8, size: 0x8, addend: 0x0, symName: '__ZN108_$LT$regex_automata..meta..strategy..ReverseAnchored$u20$as$u20$regex_automata..meta..strategy..Strategy$GT$6search17h26c08f8d6b58ad29E', symObjAddr: 0xED39C, symBinAddr: 0xDE5E0, symSize: 0x300 }
  - { offset: 0x4616CA, size: 0x8, addend: 0x0, symName: '__ZN108_$LT$regex_automata..meta..strategy..ReverseAnchored$u20$as$u20$regex_automata..meta..strategy..Strategy$GT$11search_half17h81ac14795cba05c5E', symObjAddr: 0xED69C, symBinAddr: 0xDE8E0, symSize: 0x338 }
  - { offset: 0x461D26, size: 0x8, addend: 0x0, symName: '__ZN108_$LT$regex_automata..meta..strategy..ReverseAnchored$u20$as$u20$regex_automata..meta..strategy..Strategy$GT$8is_match17ha1be6395a476c82fE', symObjAddr: 0xED9D4, symBinAddr: 0xDEC18, symSize: 0x2F8 }
  - { offset: 0x46236D, size: 0x8, addend: 0x0, symName: '__ZN108_$LT$regex_automata..meta..strategy..ReverseAnchored$u20$as$u20$regex_automata..meta..strategy..Strategy$GT$12search_slots17hc8d4520cb6ea9452E', symObjAddr: 0xEDCCC, symBinAddr: 0xDEF10, symSize: 0x570 }
  - { offset: 0x463492, size: 0x8, addend: 0x0, symName: '__ZN108_$LT$regex_automata..meta..strategy..ReverseAnchored$u20$as$u20$regex_automata..meta..strategy..Strategy$GT$25which_overlapping_matches17h88837812004a6b12E', symObjAddr: 0xEE23C, symBinAddr: 0xDF480, symSize: 0xBC }
  - { offset: 0x4636C0, size: 0x8, addend: 0x0, symName: __ZN14regex_automata4meta8strategy3new17h47087fd29b6fc8f8E, symObjAddr: 0xC9BA0, symBinAddr: 0xBD4AC, symSize: 0x5DB0 }
  - { offset: 0x4721A8, size: 0x8, addend: 0x0, symName: '__ZN73_$LT$regex_automata..meta..strategy..Core$u20$as$u20$core..fmt..Debug$GT$3fmt17hf6f35b5a4f3c0fd8E', symObjAddr: 0xD4E14, symBinAddr: 0xC8720, symSize: 0xD8 }
  - { offset: 0x4722B4, size: 0x8, addend: 0x0, symName: '__ZN81_$LT$regex_automata..meta..strategy..ReverseInner$u20$as$u20$core..fmt..Debug$GT$3fmt17h8f9fc6207c0c0731E', symObjAddr: 0xE6534, symBinAddr: 0xD7778, symSize: 0xCC }
  - { offset: 0x4722F9, size: 0x8, addend: 0x0, symName: '__ZN82_$LT$regex_automata..meta..strategy..ReverseSuffix$u20$as$u20$core..fmt..Debug$GT$3fmt17h68c1e08f4d76b293E', symObjAddr: 0xEA944, symBinAddr: 0xDBB88, symSize: 0x364 }
  - { offset: 0x47269B, size: 0x8, addend: 0x0, symName: '__ZN84_$LT$regex_automata..meta..strategy..ReverseAnchored$u20$as$u20$core..fmt..Debug$GT$3fmt17h3304527c90feca26E', symObjAddr: 0xECD8C, symBinAddr: 0xDDFD0, symSize: 0xC4 }
  - { offset: 0x4727B0, size: 0x8, addend: 0x0, symName: '__ZN81_$LT$regex_automata..meta..strategy..Pre$LT$P$GT$$u20$as$u20$core..fmt..Debug$GT$3fmt17h375031c29b8bbb37E', symObjAddr: 0xF29D8, symBinAddr: 0xE3B60, symSize: 0x328 }
  - { offset: 0x472C0D, size: 0x8, addend: 0x0, symName: '__ZN81_$LT$regex_automata..meta..strategy..Pre$LT$P$GT$$u20$as$u20$core..fmt..Debug$GT$3fmt17hc9fd54e0fb59ffb6E', symObjAddr: 0xF42C4, symBinAddr: 0xE544C, symSize: 0xEC }
  - { offset: 0x472D21, size: 0x8, addend: 0x0, symName: '__ZN81_$LT$regex_automata..meta..strategy..Pre$LT$P$GT$$u20$as$u20$core..fmt..Debug$GT$3fmt17h285aeb00897d8ecfE', symObjAddr: 0xF499C, symBinAddr: 0xE5B24, symSize: 0xEC }
  - { offset: 0x472E35, size: 0x8, addend: 0x0, symName: '__ZN81_$LT$regex_automata..meta..strategy..Pre$LT$P$GT$$u20$as$u20$core..fmt..Debug$GT$3fmt17h82727f7df154d0d1E', symObjAddr: 0xF501C, symBinAddr: 0xE61A4, symSize: 0x328 }
  - { offset: 0x473292, size: 0x8, addend: 0x0, symName: '__ZN81_$LT$regex_automata..meta..strategy..Pre$LT$P$GT$$u20$as$u20$core..fmt..Debug$GT$3fmt17h462a3ae2c431edaeE', symObjAddr: 0xF5A60, symBinAddr: 0xE6BE8, symSize: 0xE8 }
  - { offset: 0x47339E, size: 0x8, addend: 0x0, symName: '__ZN81_$LT$regex_automata..meta..strategy..Pre$LT$P$GT$$u20$as$u20$core..fmt..Debug$GT$3fmt17h890dacda0c92da36E', symObjAddr: 0xF5FC8, symBinAddr: 0xE7150, symSize: 0xE8 }
  - { offset: 0x4734AA, size: 0x8, addend: 0x0, symName: '__ZN81_$LT$regex_automata..meta..strategy..Pre$LT$P$GT$$u20$as$u20$core..fmt..Debug$GT$3fmt17h197f4caa068ce092E', symObjAddr: 0xF6634, symBinAddr: 0xE77BC, symSize: 0xE8 }
  - { offset: 0x4735BC, size: 0x8, addend: 0x0, symName: '__ZN105_$LT$regex_automata..meta..strategy..Pre$LT$P$GT$$u20$as$u20$regex_automata..meta..strategy..Strategy$GT$10group_info17h8e7b8d6a8e514963E', symObjAddr: 0xF2D00, symBinAddr: 0xE3E88, symSize: 0x4 }
  - { offset: 0x4735F3, size: 0x8, addend: 0x0, symName: '__ZN105_$LT$regex_automata..meta..strategy..Pre$LT$P$GT$$u20$as$u20$regex_automata..meta..strategy..Strategy$GT$12create_cache17h0989fa9a1ad0a466E', symObjAddr: 0xF2D04, symBinAddr: 0xE3E8C, symSize: 0x10C }
  - { offset: 0x473B31, size: 0x8, addend: 0x0, symName: '__ZN105_$LT$regex_automata..meta..strategy..Pre$LT$P$GT$$u20$as$u20$regex_automata..meta..strategy..Strategy$GT$14is_accelerated17h27d5ffe0115a5a4cE', symObjAddr: 0xF2E10, symBinAddr: 0xE3F98, symSize: 0x8 }
  - { offset: 0x473B66, size: 0x8, addend: 0x0, symName: '__ZN105_$LT$regex_automata..meta..strategy..Pre$LT$P$GT$$u20$as$u20$regex_automata..meta..strategy..Strategy$GT$12memory_usage17h9b726bd0df121100E', symObjAddr: 0xF2E18, symBinAddr: 0xE3FA0, symSize: 0x20 }
  - { offset: 0x473B98, size: 0x8, addend: 0x0, symName: '__ZN105_$LT$regex_automata..meta..strategy..Pre$LT$P$GT$$u20$as$u20$regex_automata..meta..strategy..Strategy$GT$12memory_usage17h9b726bd0df121100E', symObjAddr: 0xF2E18, symBinAddr: 0xE3FA0, symSize: 0x20 }
  - { offset: 0x473D40, size: 0x8, addend: 0x0, symName: '__ZN105_$LT$regex_automata..meta..strategy..Pre$LT$P$GT$$u20$as$u20$regex_automata..meta..strategy..Strategy$GT$6search17hd9cef4c113f8a662E', symObjAddr: 0xF2E38, symBinAddr: 0xE3FC0, symSize: 0xB4 }
  - { offset: 0x473EB3, size: 0x8, addend: 0x0, symName: '__ZN105_$LT$regex_automata..meta..strategy..Pre$LT$P$GT$$u20$as$u20$regex_automata..meta..strategy..Strategy$GT$11search_half17h1d608e69c3fddb0fE', symObjAddr: 0xF2EEC, symBinAddr: 0xE4074, symSize: 0xAC }
  - { offset: 0x473FE6, size: 0x8, addend: 0x0, symName: '__ZN105_$LT$regex_automata..meta..strategy..Pre$LT$P$GT$$u20$as$u20$regex_automata..meta..strategy..Strategy$GT$8is_match17h6e1bf97c50d59036E', symObjAddr: 0xF2F98, symBinAddr: 0xE4120, symSize: 0x98 }
  - { offset: 0x474123, size: 0x8, addend: 0x0, symName: '__ZN105_$LT$regex_automata..meta..strategy..Pre$LT$P$GT$$u20$as$u20$regex_automata..meta..strategy..Strategy$GT$12search_slots17ha53da74a2f9dab47E', symObjAddr: 0xF3030, symBinAddr: 0xE41B8, symSize: 0xD0 }
  - { offset: 0x47435B, size: 0x8, addend: 0x0, symName: '__ZN105_$LT$regex_automata..meta..strategy..Pre$LT$P$GT$$u20$as$u20$regex_automata..meta..strategy..Strategy$GT$25which_overlapping_matches17h3a278b14dff53a05E', symObjAddr: 0xF3100, symBinAddr: 0xE4288, symSize: 0xFC }
  - { offset: 0x47453E, size: 0x8, addend: 0x0, symName: '__ZN105_$LT$regex_automata..meta..strategy..Pre$LT$P$GT$$u20$as$u20$regex_automata..meta..strategy..Strategy$GT$10group_info17h850b1dd1b49f1566E', symObjAddr: 0xF43B0, symBinAddr: 0xE5538, symSize: 0x8 }
  - { offset: 0x474576, size: 0x8, addend: 0x0, symName: '__ZN105_$LT$regex_automata..meta..strategy..Pre$LT$P$GT$$u20$as$u20$regex_automata..meta..strategy..Strategy$GT$12create_cache17h96c72e057e6f1b79E', symObjAddr: 0xF43B8, symBinAddr: 0xE5540, symSize: 0x10C }
  - { offset: 0x474ABD, size: 0x8, addend: 0x0, symName: '__ZN105_$LT$regex_automata..meta..strategy..Pre$LT$P$GT$$u20$as$u20$regex_automata..meta..strategy..Strategy$GT$12memory_usage17h9795954817d867f0E', symObjAddr: 0xF44C4, symBinAddr: 0xE564C, symSize: 0x8 }
  - { offset: 0x474AF1, size: 0x8, addend: 0x0, symName: '__ZN105_$LT$regex_automata..meta..strategy..Pre$LT$P$GT$$u20$as$u20$regex_automata..meta..strategy..Strategy$GT$6search17hd2831051184395bcE', symObjAddr: 0xF44CC, symBinAddr: 0xE5654, symSize: 0xCC }
  - { offset: 0x474E72, size: 0x8, addend: 0x0, symName: '__ZN105_$LT$regex_automata..meta..strategy..Pre$LT$P$GT$$u20$as$u20$regex_automata..meta..strategy..Strategy$GT$11search_half17h9117831eb2f48f04E', symObjAddr: 0xF4598, symBinAddr: 0xE5720, symSize: 0xCC }
  - { offset: 0x475227, size: 0x8, addend: 0x0, symName: '__ZN105_$LT$regex_automata..meta..strategy..Pre$LT$P$GT$$u20$as$u20$regex_automata..meta..strategy..Strategy$GT$8is_match17h91846f0357bc2171E', symObjAddr: 0xF4664, symBinAddr: 0xE57EC, symSize: 0xBC }
  - { offset: 0x4755A9, size: 0x8, addend: 0x0, symName: '__ZN105_$LT$regex_automata..meta..strategy..Pre$LT$P$GT$$u20$as$u20$regex_automata..meta..strategy..Strategy$GT$12search_slots17hccf1f16c38cfb0c9E', symObjAddr: 0xF4720, symBinAddr: 0xE58A8, symSize: 0xDC }
  - { offset: 0x475A66, size: 0x8, addend: 0x0, symName: '__ZN105_$LT$regex_automata..meta..strategy..Pre$LT$P$GT$$u20$as$u20$regex_automata..meta..strategy..Strategy$GT$25which_overlapping_matches17h2e22d2d8beb2ae5eE', symObjAddr: 0xF47FC, symBinAddr: 0xE5984, symSize: 0x110 }
  - { offset: 0x475E8E, size: 0x8, addend: 0x0, symName: '__ZN105_$LT$regex_automata..meta..strategy..Pre$LT$P$GT$$u20$as$u20$regex_automata..meta..strategy..Strategy$GT$10group_info17hbf5c502acd487475E', symObjAddr: 0xF4A88, symBinAddr: 0xE5C10, symSize: 0x8 }
  - { offset: 0x475EC6, size: 0x8, addend: 0x0, symName: '__ZN105_$LT$regex_automata..meta..strategy..Pre$LT$P$GT$$u20$as$u20$regex_automata..meta..strategy..Strategy$GT$12create_cache17h5c92a0cc9d4e4dc3E', symObjAddr: 0xF4A90, symBinAddr: 0xE5C18, symSize: 0x10C }
  - { offset: 0x47640C, size: 0x8, addend: 0x0, symName: '__ZN105_$LT$regex_automata..meta..strategy..Pre$LT$P$GT$$u20$as$u20$regex_automata..meta..strategy..Strategy$GT$11reset_cache17h30807adeca208585E', symObjAddr: 0xF4B9C, symBinAddr: 0xE5D24, symSize: 0x4 }
  - { offset: 0x476449, size: 0x8, addend: 0x0, symName: '__ZN105_$LT$regex_automata..meta..strategy..Pre$LT$P$GT$$u20$as$u20$regex_automata..meta..strategy..Strategy$GT$14is_accelerated17hafb07cc349e1e5c4E', symObjAddr: 0xF4BA0, symBinAddr: 0xE5D28, symSize: 0x10 }
  - { offset: 0x47647B, size: 0x8, addend: 0x0, symName: '__ZN105_$LT$regex_automata..meta..strategy..Pre$LT$P$GT$$u20$as$u20$regex_automata..meta..strategy..Strategy$GT$14is_accelerated17hafb07cc349e1e5c4E', symObjAddr: 0xF4BA0, symBinAddr: 0xE5D28, symSize: 0x10 }
  - { offset: 0x47649F, size: 0x8, addend: 0x0, symName: '__ZN105_$LT$regex_automata..meta..strategy..Pre$LT$P$GT$$u20$as$u20$regex_automata..meta..strategy..Strategy$GT$12memory_usage17h540ef86720c29792E', symObjAddr: 0xF4BB0, symBinAddr: 0xE5D38, symSize: 0x70 }
  - { offset: 0x4764D1, size: 0x8, addend: 0x0, symName: '__ZN105_$LT$regex_automata..meta..strategy..Pre$LT$P$GT$$u20$as$u20$regex_automata..meta..strategy..Strategy$GT$12memory_usage17h540ef86720c29792E', symObjAddr: 0xF4BB0, symBinAddr: 0xE5D38, symSize: 0x70 }
  - { offset: 0x476504, size: 0x8, addend: 0x0, symName: '__ZN105_$LT$regex_automata..meta..strategy..Pre$LT$P$GT$$u20$as$u20$regex_automata..meta..strategy..Strategy$GT$12memory_usage17h540ef86720c29792E', symObjAddr: 0xF4BB0, symBinAddr: 0xE5D38, symSize: 0x70 }
  - { offset: 0x476522, size: 0x8, addend: 0x0, symName: '__ZN105_$LT$regex_automata..meta..strategy..Pre$LT$P$GT$$u20$as$u20$regex_automata..meta..strategy..Strategy$GT$12memory_usage17h540ef86720c29792E', symObjAddr: 0xF4BB0, symBinAddr: 0xE5D38, symSize: 0x70 }
  - { offset: 0x476540, size: 0x8, addend: 0x0, symName: '__ZN105_$LT$regex_automata..meta..strategy..Pre$LT$P$GT$$u20$as$u20$regex_automata..meta..strategy..Strategy$GT$12memory_usage17h540ef86720c29792E', symObjAddr: 0xF4BB0, symBinAddr: 0xE5D38, symSize: 0x70 }
  - { offset: 0x4766D8, size: 0x8, addend: 0x0, symName: '__ZN105_$LT$regex_automata..meta..strategy..Pre$LT$P$GT$$u20$as$u20$regex_automata..meta..strategy..Strategy$GT$6search17h5efb5be874ae3504E', symObjAddr: 0xF4C20, symBinAddr: 0xE5DA8, symSize: 0xAC }
  - { offset: 0x476814, size: 0x8, addend: 0x0, symName: '__ZN105_$LT$regex_automata..meta..strategy..Pre$LT$P$GT$$u20$as$u20$regex_automata..meta..strategy..Strategy$GT$11search_half17hde70b2dc91d5135cE', symObjAddr: 0xF4CCC, symBinAddr: 0xE5E54, symSize: 0xA4 }
  - { offset: 0x476947, size: 0x8, addend: 0x0, symName: '__ZN105_$LT$regex_automata..meta..strategy..Pre$LT$P$GT$$u20$as$u20$regex_automata..meta..strategy..Strategy$GT$8is_match17h4a6797fb8e300602E', symObjAddr: 0xF4D70, symBinAddr: 0xE5EF8, symSize: 0x90 }
  - { offset: 0x476A84, size: 0x8, addend: 0x0, symName: '__ZN105_$LT$regex_automata..meta..strategy..Pre$LT$P$GT$$u20$as$u20$regex_automata..meta..strategy..Strategy$GT$12search_slots17hd4035a3ac4b913e3E', symObjAddr: 0xF4E00, symBinAddr: 0xE5F88, symSize: 0xC8 }
  - { offset: 0x476CBC, size: 0x8, addend: 0x0, symName: '__ZN105_$LT$regex_automata..meta..strategy..Pre$LT$P$GT$$u20$as$u20$regex_automata..meta..strategy..Strategy$GT$25which_overlapping_matches17h488842b45085a8d9E', symObjAddr: 0xF4EC8, symBinAddr: 0xE6050, symSize: 0xF4 }
  - { offset: 0x476E9F, size: 0x8, addend: 0x0, symName: '__ZN105_$LT$regex_automata..meta..strategy..Pre$LT$P$GT$$u20$as$u20$regex_automata..meta..strategy..Strategy$GT$10group_info17h518d05ceeaf9f181E', symObjAddr: 0xF5344, symBinAddr: 0xE64CC, symSize: 0x8 }
  - { offset: 0x476ED7, size: 0x8, addend: 0x0, symName: '__ZN105_$LT$regex_automata..meta..strategy..Pre$LT$P$GT$$u20$as$u20$regex_automata..meta..strategy..Strategy$GT$12create_cache17hc5a4b804b70672b0E', symObjAddr: 0xF534C, symBinAddr: 0xE64D4, symSize: 0x10C }
  - { offset: 0x47741D, size: 0x8, addend: 0x0, symName: '__ZN105_$LT$regex_automata..meta..strategy..Pre$LT$P$GT$$u20$as$u20$regex_automata..meta..strategy..Strategy$GT$11reset_cache17h49f86bd97a300ae1E', symObjAddr: 0xF5458, symBinAddr: 0xE65E0, symSize: 0x4 }
  - { offset: 0x47745A, size: 0x8, addend: 0x0, symName: '__ZN105_$LT$regex_automata..meta..strategy..Pre$LT$P$GT$$u20$as$u20$regex_automata..meta..strategy..Strategy$GT$14is_accelerated17h6c83460c30ad5e68E', symObjAddr: 0xF545C, symBinAddr: 0xE65E4, symSize: 0x8 }
  - { offset: 0x47748F, size: 0x8, addend: 0x0, symName: '__ZN105_$LT$regex_automata..meta..strategy..Pre$LT$P$GT$$u20$as$u20$regex_automata..meta..strategy..Strategy$GT$12memory_usage17hb7f659c02fc24bcbE', symObjAddr: 0xF5464, symBinAddr: 0xE65EC, symSize: 0x8 }
  - { offset: 0x4774C1, size: 0x8, addend: 0x0, symName: '__ZN105_$LT$regex_automata..meta..strategy..Pre$LT$P$GT$$u20$as$u20$regex_automata..meta..strategy..Strategy$GT$12memory_usage17hb7f659c02fc24bcbE', symObjAddr: 0xF5464, symBinAddr: 0xE65EC, symSize: 0x8 }
  - { offset: 0x4774DD, size: 0x8, addend: 0x0, symName: '__ZN105_$LT$regex_automata..meta..strategy..Pre$LT$P$GT$$u20$as$u20$regex_automata..meta..strategy..Strategy$GT$12memory_usage17hb7f659c02fc24bcbE', symObjAddr: 0xF5464, symBinAddr: 0xE65EC, symSize: 0x8 }
  - { offset: 0x4774F8, size: 0x8, addend: 0x0, symName: '__ZN105_$LT$regex_automata..meta..strategy..Pre$LT$P$GT$$u20$as$u20$regex_automata..meta..strategy..Strategy$GT$12memory_usage17hb7f659c02fc24bcbE', symObjAddr: 0xF5464, symBinAddr: 0xE65EC, symSize: 0x8 }
  - { offset: 0x477517, size: 0x8, addend: 0x0, symName: '__ZN105_$LT$regex_automata..meta..strategy..Pre$LT$P$GT$$u20$as$u20$regex_automata..meta..strategy..Strategy$GT$12memory_usage17hb7f659c02fc24bcbE', symObjAddr: 0xF5464, symBinAddr: 0xE65EC, symSize: 0x8 }
  - { offset: 0x47753F, size: 0x8, addend: 0x0, symName: '__ZN105_$LT$regex_automata..meta..strategy..Pre$LT$P$GT$$u20$as$u20$regex_automata..meta..strategy..Strategy$GT$6search17hea0e9111e01dac04E', symObjAddr: 0xF546C, symBinAddr: 0xE65F4, symSize: 0x134 }
  - { offset: 0x477A4D, size: 0x8, addend: 0x0, symName: '__ZN105_$LT$regex_automata..meta..strategy..Pre$LT$P$GT$$u20$as$u20$regex_automata..meta..strategy..Strategy$GT$11search_half17h58601c7b2f6c26d9E', symObjAddr: 0xF55A0, symBinAddr: 0xE6728, symSize: 0x128 }
  - { offset: 0x477FEF, size: 0x8, addend: 0x0, symName: '__ZN105_$LT$regex_automata..meta..strategy..Pre$LT$P$GT$$u20$as$u20$regex_automata..meta..strategy..Strategy$GT$8is_match17h45068ece193c04b2E', symObjAddr: 0xF56C8, symBinAddr: 0xE6850, symSize: 0xFC }
  - { offset: 0x4784FD, size: 0x8, addend: 0x0, symName: '__ZN105_$LT$regex_automata..meta..strategy..Pre$LT$P$GT$$u20$as$u20$regex_automata..meta..strategy..Strategy$GT$12search_slots17h8242aced65a29df9E', symObjAddr: 0xF57C4, symBinAddr: 0xE694C, symSize: 0x138 }
  - { offset: 0x478BA3, size: 0x8, addend: 0x0, symName: '__ZN105_$LT$regex_automata..meta..strategy..Pre$LT$P$GT$$u20$as$u20$regex_automata..meta..strategy..Strategy$GT$25which_overlapping_matches17hc642a2ffe0bb4e24E', symObjAddr: 0xF58FC, symBinAddr: 0xE6A84, symSize: 0x164 }
  - { offset: 0x479157, size: 0x8, addend: 0x0, symName: '__ZN105_$LT$regex_automata..meta..strategy..Pre$LT$P$GT$$u20$as$u20$regex_automata..meta..strategy..Strategy$GT$6search17h288129ad568ae0daE', symObjAddr: 0xF5B48, symBinAddr: 0xE6CD0, symSize: 0xE4 }
  - { offset: 0x479379, size: 0x8, addend: 0x0, symName: '__ZN105_$LT$regex_automata..meta..strategy..Pre$LT$P$GT$$u20$as$u20$regex_automata..meta..strategy..Strategy$GT$11search_half17h8a902270b536797aE', symObjAddr: 0xF5C2C, symBinAddr: 0xE6DB4, symSize: 0xDC }
  - { offset: 0x47959D, size: 0x8, addend: 0x0, symName: '__ZN105_$LT$regex_automata..meta..strategy..Pre$LT$P$GT$$u20$as$u20$regex_automata..meta..strategy..Strategy$GT$8is_match17hac750e0e7c0f8fd6E', symObjAddr: 0xF5D08, symBinAddr: 0xE6E90, symSize: 0xB8 }
  - { offset: 0x4797AB, size: 0x8, addend: 0x0, symName: '__ZN105_$LT$regex_automata..meta..strategy..Pre$LT$P$GT$$u20$as$u20$regex_automata..meta..strategy..Strategy$GT$12search_slots17hcb20410e06995255E', symObjAddr: 0xF5DC0, symBinAddr: 0xE6F48, symSize: 0xF8 }
  - { offset: 0x479AAB, size: 0x8, addend: 0x0, symName: '__ZN105_$LT$regex_automata..meta..strategy..Pre$LT$P$GT$$u20$as$u20$regex_automata..meta..strategy..Strategy$GT$25which_overlapping_matches17h70f92a96f48f1aadE', symObjAddr: 0xF5EB8, symBinAddr: 0xE7040, symSize: 0x110 }
  - { offset: 0x479D3A, size: 0x8, addend: 0x0, symName: '__ZN105_$LT$regex_automata..meta..strategy..Pre$LT$P$GT$$u20$as$u20$regex_automata..meta..strategy..Strategy$GT$12create_cache17h95925fd519890f88E', symObjAddr: 0xF60B0, symBinAddr: 0xE7238, symSize: 0x10C }
  - { offset: 0x47A277, size: 0x8, addend: 0x0, symName: '__ZN105_$LT$regex_automata..meta..strategy..Pre$LT$P$GT$$u20$as$u20$regex_automata..meta..strategy..Strategy$GT$6search17hb4b5dab369a5aafeE', symObjAddr: 0xF61BC, symBinAddr: 0xE7344, symSize: 0xDC }
  - { offset: 0x47A499, size: 0x8, addend: 0x0, symName: '__ZN105_$LT$regex_automata..meta..strategy..Pre$LT$P$GT$$u20$as$u20$regex_automata..meta..strategy..Strategy$GT$11search_half17h9c846fd1883cc55bE', symObjAddr: 0xF6298, symBinAddr: 0xE7420, symSize: 0xD4 }
  - { offset: 0x47A6BD, size: 0x8, addend: 0x0, symName: '__ZN105_$LT$regex_automata..meta..strategy..Pre$LT$P$GT$$u20$as$u20$regex_automata..meta..strategy..Strategy$GT$8is_match17hfebf0d768833bc75E', symObjAddr: 0xF636C, symBinAddr: 0xE74F4, symSize: 0xAC }
  - { offset: 0x47A8CB, size: 0x8, addend: 0x0, symName: '__ZN105_$LT$regex_automata..meta..strategy..Pre$LT$P$GT$$u20$as$u20$regex_automata..meta..strategy..Strategy$GT$12search_slots17h88b742b359dc6a8fE', symObjAddr: 0xF6418, symBinAddr: 0xE75A0, symSize: 0xF0 }
  - { offset: 0x47ABCB, size: 0x8, addend: 0x0, symName: '__ZN105_$LT$regex_automata..meta..strategy..Pre$LT$P$GT$$u20$as$u20$regex_automata..meta..strategy..Strategy$GT$25which_overlapping_matches17hc580a455c992d77dE', symObjAddr: 0xF6508, symBinAddr: 0xE7690, symSize: 0x108 }
  - { offset: 0x47AE5A, size: 0x8, addend: 0x0, symName: '__ZN105_$LT$regex_automata..meta..strategy..Pre$LT$P$GT$$u20$as$u20$regex_automata..meta..strategy..Strategy$GT$10group_info17h1a1a8f2e064f2f40E', symObjAddr: 0xF671C, symBinAddr: 0xE78A4, symSize: 0x4 }
  - { offset: 0x47AE92, size: 0x8, addend: 0x0, symName: '__ZN105_$LT$regex_automata..meta..strategy..Pre$LT$P$GT$$u20$as$u20$regex_automata..meta..strategy..Strategy$GT$14is_accelerated17h52c8e81ccd8b88e4E', symObjAddr: 0xF6720, symBinAddr: 0xE78A8, symSize: 0x8 }
  - { offset: 0x47AEC6, size: 0x8, addend: 0x0, symName: '__ZN105_$LT$regex_automata..meta..strategy..Pre$LT$P$GT$$u20$as$u20$regex_automata..meta..strategy..Strategy$GT$6search17h91ccca8047abc3f7E', symObjAddr: 0xF6728, symBinAddr: 0xE78B0, symSize: 0xD4 }
  - { offset: 0x47B101, size: 0x8, addend: 0x0, symName: '__ZN105_$LT$regex_automata..meta..strategy..Pre$LT$P$GT$$u20$as$u20$regex_automata..meta..strategy..Strategy$GT$11search_half17h4d59dc138c22a15dE', symObjAddr: 0xF67FC, symBinAddr: 0xE7984, symSize: 0xCC }
  - { offset: 0x47B340, size: 0x8, addend: 0x0, symName: '__ZN105_$LT$regex_automata..meta..strategy..Pre$LT$P$GT$$u20$as$u20$regex_automata..meta..strategy..Strategy$GT$8is_match17h964b8a45b3cfc41cE', symObjAddr: 0xF68C8, symBinAddr: 0xE7A50, symSize: 0x9C }
  - { offset: 0x47B567, size: 0x8, addend: 0x0, symName: '__ZN105_$LT$regex_automata..meta..strategy..Pre$LT$P$GT$$u20$as$u20$regex_automata..meta..strategy..Strategy$GT$12search_slots17h11fdd456522c24cdE', symObjAddr: 0xF6964, symBinAddr: 0xE7AEC, symSize: 0xE8 }
  - { offset: 0x47B880, size: 0x8, addend: 0x0, symName: '__ZN105_$LT$regex_automata..meta..strategy..Pre$LT$P$GT$$u20$as$u20$regex_automata..meta..strategy..Strategy$GT$25which_overlapping_matches17hbb403b6eb67d9937E', symObjAddr: 0xF6A4C, symBinAddr: 0xE7BD4, symSize: 0x100 }
  - { offset: 0x47C5B8, size: 0x8, addend: 0x0, symName: '__ZN75_$LT$regex_automata..meta..wrappers..Hybrid$u20$as$u20$core..fmt..Debug$GT$3fmt17h53dbe4ab8da8bbb4E', symObjAddr: 0xE100C, symBinAddr: 0xD2250, symSize: 0x12C }
  - { offset: 0x47C7E7, size: 0x8, addend: 0x0, symName: '__ZN76_$LT$regex_automata..meta..wrappers..OnePass$u20$as$u20$core..fmt..Debug$GT$3fmt17h700f3bd6cd87e430E', symObjAddr: 0xE2F50, symBinAddr: 0xD4194, symSize: 0x120 }
  - { offset: 0x47CA26, size: 0x8, addend: 0x0, symName: '__ZN87_$LT$regex_automata..meta..wrappers..BoundedBacktracker$u20$as$u20$core..fmt..Debug$GT$3fmt17h8545c868dbecf1e5E', symObjAddr: 0xE3D98, symBinAddr: 0xD4FDC, symSize: 0x12C }
  - { offset: 0x47CC4E, size: 0x8, addend: 0x0, symName: '__ZN75_$LT$regex_automata..meta..wrappers..PikeVM$u20$as$u20$core..fmt..Debug$GT$3fmt17h3c9f245220d8ac5aE', symObjAddr: 0xE5054, symBinAddr: 0xD6298, symSize: 0x12C }
  - { offset: 0x47CF07, size: 0x8, addend: 0x0, symName: '__ZN82_$LT$regex_automata..meta..wrappers..ReverseHybrid$u20$as$u20$core..fmt..Debug$GT$3fmt17h44d5fa449497639aE', symObjAddr: 0xEA058, symBinAddr: 0xDB29C, symSize: 0x12C }
  - { offset: 0x47D219, size: 0x8, addend: 0x0, symName: '__ZN131_$LT$regex_automata..meta..error..RetryFailError$u20$as$u20$core..convert..From$LT$regex_automata..util..search..MatchError$GT$$GT$4from17hc9d20c01e2666e99E', symObjAddr: 0xAFB9C, symBinAddr: 0xA42F8, symSize: 0x70 }
  - { offset: 0x47D87F, size: 0x8, addend: 0x0, symName: __ZN14regex_automata4meta13reverse_inner7flatten17h6906dafa89ff66d9E, symObjAddr: 0xD4184, symBinAddr: 0xC7A90, symSize: 0x5CC }
  - { offset: 0x47F71C, size: 0x8, addend: 0x0, symName: __ZN14regex_automata4meta13reverse_inner9prefilter17h3b6a337ba1ed0e05E, symObjAddr: 0xD4750, symBinAddr: 0xC805C, symSize: 0x254 }
  - { offset: 0x4801B2, size: 0x8, addend: 0x0, symName: __ZN14regex_automata4meta7limited26hybrid_try_search_half_rev17h61ace4c99bd5d769E, symObjAddr: 0xE8BA4, symBinAddr: 0xD9DE8, symSize: 0x920 }
  - { offset: 0x482F3E, size: 0x8, addend: 0x0, symName: __ZN14regex_automata4meta6stopat26hybrid_try_search_half_fwd17hcbc864b655b00e9eE, symObjAddr: 0xE94C4, symBinAddr: 0xDA708, symSize: 0x73C }
  - { offset: 0x484E5B, size: 0x8, addend: 0x0, symName: '__ZN113_$LT$regex_automata..util..prefilter..byteset..ByteSet$u20$as$u20$regex_automata..util..prefilter..PrefilterI$GT$4find17hca2a59f92e7e1d57E', symObjAddr: 0xAF3D4, symBinAddr: 0xA3B30, symSize: 0x78 }
  - { offset: 0x484EF1, size: 0x8, addend: 0x0, symName: '__ZN113_$LT$regex_automata..util..prefilter..byteset..ByteSet$u20$as$u20$regex_automata..util..prefilter..PrefilterI$GT$4find17hca2a59f92e7e1d57E', symObjAddr: 0xAF3D4, symBinAddr: 0xA3B30, symSize: 0x78 }
  - { offset: 0x485023, size: 0x8, addend: 0x0, symName: '__ZN113_$LT$regex_automata..util..prefilter..byteset..ByteSet$u20$as$u20$regex_automata..util..prefilter..PrefilterI$GT$6prefix17h5272fd0870f01d31E', symObjAddr: 0xEE778, symBinAddr: 0xDF9BC, symSize: 0x34 }
  - { offset: 0x485053, size: 0x8, addend: 0x0, symName: '__ZN113_$LT$regex_automata..util..prefilter..byteset..ByteSet$u20$as$u20$regex_automata..util..prefilter..PrefilterI$GT$6prefix17h5272fd0870f01d31E', symObjAddr: 0xEE778, symBinAddr: 0xDF9BC, symSize: 0x34 }
  - { offset: 0x485077, size: 0x8, addend: 0x0, symName: '__ZN113_$LT$regex_automata..util..prefilter..byteset..ByteSet$u20$as$u20$regex_automata..util..prefilter..PrefilterI$GT$6prefix17h5272fd0870f01d31E', symObjAddr: 0xEE778, symBinAddr: 0xDF9BC, symSize: 0x34 }
  - { offset: 0x4850B3, size: 0x8, addend: 0x0, symName: '__ZN113_$LT$regex_automata..util..prefilter..byteset..ByteSet$u20$as$u20$regex_automata..util..prefilter..PrefilterI$GT$7is_fast17h1bba9bafcfd595e9E', symObjAddr: 0xEE7AC, symBinAddr: 0xDF9F0, symSize: 0x8 }
  - { offset: 0x485171, size: 0x8, addend: 0x0, symName: '__ZN86_$LT$regex_automata..util..prefilter..byteset..ByteSet$u20$as$u20$core..fmt..Debug$GT$3fmt17h7784865557ae5524E', symObjAddr: 0xEE658, symBinAddr: 0xDF89C, symSize: 0x120 }
  - { offset: 0x4854DB, size: 0x8, addend: 0x0, symName: '__ZN111_$LT$regex_automata..util..prefilter..memchr..Memchr$u20$as$u20$regex_automata..util..prefilter..PrefilterI$GT$4find17hdc6e7ce12a75a81fE', symObjAddr: 0xAEC58, symBinAddr: 0xA33B4, symSize: 0x26C }
  - { offset: 0x486301, size: 0x8, addend: 0x0, symName: '__ZN111_$LT$regex_automata..util..prefilter..memchr..Memchr$u20$as$u20$regex_automata..util..prefilter..PrefilterI$GT$6prefix17h9b73020354c69d57E', symObjAddr: 0xF0C0C, symBinAddr: 0xE1E50, symSize: 0x34 }
  - { offset: 0x486331, size: 0x8, addend: 0x0, symName: '__ZN111_$LT$regex_automata..util..prefilter..memchr..Memchr$u20$as$u20$regex_automata..util..prefilter..PrefilterI$GT$6prefix17h9b73020354c69d57E', symObjAddr: 0xF0C0C, symBinAddr: 0xE1E50, symSize: 0x34 }
  - { offset: 0x486355, size: 0x8, addend: 0x0, symName: '__ZN111_$LT$regex_automata..util..prefilter..memchr..Memchr$u20$as$u20$regex_automata..util..prefilter..PrefilterI$GT$6prefix17h9b73020354c69d57E', symObjAddr: 0xF0C0C, symBinAddr: 0xE1E50, symSize: 0x34 }
  - { offset: 0x486395, size: 0x8, addend: 0x0, symName: '__ZN111_$LT$regex_automata..util..prefilter..memchr..Memchr$u20$as$u20$regex_automata..util..prefilter..PrefilterI$GT$12memory_usage17h780b5f71ae80b1e9E', symObjAddr: 0xF0C40, symBinAddr: 0xE1E84, symSize: 0x8 }
  - { offset: 0x4863BF, size: 0x8, addend: 0x0, symName: '__ZN111_$LT$regex_automata..util..prefilter..memchr..Memchr$u20$as$u20$regex_automata..util..prefilter..PrefilterI$GT$7is_fast17hf4c9f17561acb4b6E', symObjAddr: 0xF0C48, symBinAddr: 0xE1E8C, symSize: 0x8 }
  - { offset: 0x4864AA, size: 0x8, addend: 0x0, symName: '__ZN112_$LT$regex_automata..util..prefilter..memchr..Memchr2$u20$as$u20$regex_automata..util..prefilter..PrefilterI$GT$4find17h7c64504aa4e48760E', symObjAddr: 0xAEFFC, symBinAddr: 0xA3758, symSize: 0x1CC }
  - { offset: 0x4870D6, size: 0x8, addend: 0x0, symName: '__ZN112_$LT$regex_automata..util..prefilter..memchr..Memchr2$u20$as$u20$regex_automata..util..prefilter..PrefilterI$GT$6prefix17h3e9e32ba22dcaa10E', symObjAddr: 0xF0AA4, symBinAddr: 0xE1CE8, symSize: 0x3C }
  - { offset: 0x487106, size: 0x8, addend: 0x0, symName: '__ZN112_$LT$regex_automata..util..prefilter..memchr..Memchr2$u20$as$u20$regex_automata..util..prefilter..PrefilterI$GT$6prefix17h3e9e32ba22dcaa10E', symObjAddr: 0xF0AA4, symBinAddr: 0xE1CE8, symSize: 0x3C }
  - { offset: 0x48712A, size: 0x8, addend: 0x0, symName: '__ZN112_$LT$regex_automata..util..prefilter..memchr..Memchr2$u20$as$u20$regex_automata..util..prefilter..PrefilterI$GT$6prefix17h3e9e32ba22dcaa10E', symObjAddr: 0xF0AA4, symBinAddr: 0xE1CE8, symSize: 0x3C }
  - { offset: 0x487227, size: 0x8, addend: 0x0, symName: '__ZN112_$LT$regex_automata..util..prefilter..memchr..Memchr3$u20$as$u20$regex_automata..util..prefilter..PrefilterI$GT$4find17hc7cf0f559f1b1a5fE', symObjAddr: 0xAF1C8, symBinAddr: 0xA3924, symSize: 0x20C }
  - { offset: 0x4880F3, size: 0x8, addend: 0x0, symName: '__ZN112_$LT$regex_automata..util..prefilter..memchr..Memchr3$u20$as$u20$regex_automata..util..prefilter..PrefilterI$GT$6prefix17h8c2f0356fcee019dE', symObjAddr: 0xF08A0, symBinAddr: 0xE1AE4, symSize: 0x44 }
  - { offset: 0x488123, size: 0x8, addend: 0x0, symName: '__ZN112_$LT$regex_automata..util..prefilter..memchr..Memchr3$u20$as$u20$regex_automata..util..prefilter..PrefilterI$GT$6prefix17h8c2f0356fcee019dE', symObjAddr: 0xF08A0, symBinAddr: 0xE1AE4, symSize: 0x44 }
  - { offset: 0x488147, size: 0x8, addend: 0x0, symName: '__ZN112_$LT$regex_automata..util..prefilter..memchr..Memchr3$u20$as$u20$regex_automata..util..prefilter..PrefilterI$GT$6prefix17h8c2f0356fcee019dE', symObjAddr: 0xF08A0, symBinAddr: 0xE1AE4, symSize: 0x44 }
  - { offset: 0x48820A, size: 0x8, addend: 0x0, symName: '__ZN85_$LT$regex_automata..util..prefilter..memchr..Memchr3$u20$as$u20$core..fmt..Debug$GT$3fmt17h1277c1001932ec64E', symObjAddr: 0xF064C, symBinAddr: 0xE1890, symSize: 0x254 }
  - { offset: 0x48869B, size: 0x8, addend: 0x0, symName: '__ZN85_$LT$regex_automata..util..prefilter..memchr..Memchr2$u20$as$u20$core..fmt..Debug$GT$3fmt17h50dc88468e190e95E', symObjAddr: 0xF08E4, symBinAddr: 0xE1B28, symSize: 0x1C0 }
  - { offset: 0x4889E1, size: 0x8, addend: 0x0, symName: '__ZN84_$LT$regex_automata..util..prefilter..memchr..Memchr$u20$as$u20$core..fmt..Debug$GT$3fmt17h709333bd61a2adc6E', symObjAddr: 0xF0AE0, symBinAddr: 0xE1D24, symSize: 0x12C }
  - { offset: 0x488C36, size: 0x8, addend: 0x0, symName: '__ZN109_$LT$regex_automata..util..prefilter..teddy..Teddy$u20$as$u20$regex_automata..util..prefilter..PrefilterI$GT$12memory_usage17h948cad19e5f6a1f5E', symObjAddr: 0xAE524, symBinAddr: 0xA2C80, symSize: 0x70 }
  - { offset: 0x488C6B, size: 0x8, addend: 0x0, symName: '__ZN109_$LT$regex_automata..util..prefilter..teddy..Teddy$u20$as$u20$regex_automata..util..prefilter..PrefilterI$GT$12memory_usage17h948cad19e5f6a1f5E', symObjAddr: 0xAE524, symBinAddr: 0xA2C80, symSize: 0x70 }
  - { offset: 0x488C89, size: 0x8, addend: 0x0, symName: '__ZN109_$LT$regex_automata..util..prefilter..teddy..Teddy$u20$as$u20$regex_automata..util..prefilter..PrefilterI$GT$12memory_usage17h948cad19e5f6a1f5E', symObjAddr: 0xAE524, symBinAddr: 0xA2C80, symSize: 0x70 }
  - { offset: 0x488CA7, size: 0x8, addend: 0x0, symName: '__ZN109_$LT$regex_automata..util..prefilter..teddy..Teddy$u20$as$u20$regex_automata..util..prefilter..PrefilterI$GT$12memory_usage17h948cad19e5f6a1f5E', symObjAddr: 0xAE524, symBinAddr: 0xA2C80, symSize: 0x70 }
  - { offset: 0x488E43, size: 0x8, addend: 0x0, symName: '__ZN109_$LT$regex_automata..util..prefilter..teddy..Teddy$u20$as$u20$regex_automata..util..prefilter..PrefilterI$GT$4find17he3db801e0ed95e62E', symObjAddr: 0xAE594, symBinAddr: 0xA2CF0, symSize: 0x14C }
  - { offset: 0x4891A2, size: 0x8, addend: 0x0, symName: '__ZN109_$LT$regex_automata..util..prefilter..teddy..Teddy$u20$as$u20$regex_automata..util..prefilter..PrefilterI$GT$6prefix17hf7f68d1b12f62c48E', symObjAddr: 0xAE6E0, symBinAddr: 0xA2E3C, symSize: 0x108 }
  - { offset: 0x4893F5, size: 0x8, addend: 0x0, symName: '__ZN109_$LT$regex_automata..util..prefilter..teddy..Teddy$u20$as$u20$regex_automata..util..prefilter..PrefilterI$GT$7is_fast17he44d4541cc9858b6E', symObjAddr: 0xEED68, symBinAddr: 0xDFFAC, symSize: 0x10 }
  - { offset: 0x489465, size: 0x8, addend: 0x0, symName: '__ZN82_$LT$regex_automata..util..prefilter..teddy..Teddy$u20$as$u20$core..fmt..Debug$GT$3fmt17h52769dcfcab6025fE', symObjAddr: 0xEEA44, symBinAddr: 0xDFC88, symSize: 0x324 }
  - { offset: 0x489870, size: 0x8, addend: 0x0, symName: '__ZN111_$LT$regex_automata..util..prefilter..memmem..Memmem$u20$as$u20$regex_automata..util..prefilter..PrefilterI$GT$4find17h8230ba86e9ed0ebbE', symObjAddr: 0xAEEC4, symBinAddr: 0xA3620, symSize: 0xB0 }
  - { offset: 0x489A40, size: 0x8, addend: 0x0, symName: '__ZN111_$LT$regex_automata..util..prefilter..memmem..Memmem$u20$as$u20$regex_automata..util..prefilter..PrefilterI$GT$6prefix17h104fb5d1267152aaE', symObjAddr: 0xAEF74, symBinAddr: 0xA36D0, symSize: 0x88 }
  - { offset: 0x489BD8, size: 0x8, addend: 0x0, symName: '__ZN111_$LT$regex_automata..util..prefilter..memmem..Memmem$u20$as$u20$regex_automata..util..prefilter..PrefilterI$GT$12memory_usage17h84198299e1f65afcE', symObjAddr: 0xEFD64, symBinAddr: 0xE0FA8, symSize: 0x8 }
  - { offset: 0x489BF8, size: 0x8, addend: 0x0, symName: '__ZN111_$LT$regex_automata..util..prefilter..memmem..Memmem$u20$as$u20$regex_automata..util..prefilter..PrefilterI$GT$12memory_usage17h84198299e1f65afcE', symObjAddr: 0xEFD64, symBinAddr: 0xE0FA8, symSize: 0x8 }
  - { offset: 0x489C13, size: 0x8, addend: 0x0, symName: '__ZN111_$LT$regex_automata..util..prefilter..memmem..Memmem$u20$as$u20$regex_automata..util..prefilter..PrefilterI$GT$12memory_usage17h84198299e1f65afcE', symObjAddr: 0xEFD64, symBinAddr: 0xE0FA8, symSize: 0x8 }
  - { offset: 0x489C32, size: 0x8, addend: 0x0, symName: '__ZN111_$LT$regex_automata..util..prefilter..memmem..Memmem$u20$as$u20$regex_automata..util..prefilter..PrefilterI$GT$12memory_usage17h84198299e1f65afcE', symObjAddr: 0xEFD64, symBinAddr: 0xE0FA8, symSize: 0x8 }
  - { offset: 0x489CE7, size: 0x8, addend: 0x0, symName: '__ZN84_$LT$regex_automata..util..prefilter..memmem..Memmem$u20$as$u20$core..fmt..Debug$GT$3fmt17hbd05492b17787615E', symObjAddr: 0xEFCA0, symBinAddr: 0xE0EE4, symSize: 0xC4 }
  - { offset: 0x489E6C, size: 0x8, addend: 0x0, symName: '__ZN122_$LT$regex_automata..util..prefilter..aho_corasick..AhoCorasick$u20$as$u20$regex_automata..util..prefilter..PrefilterI$GT$12memory_usage17h69f29ef512c333c4E', symObjAddr: 0xAF44C, symBinAddr: 0xA3BA8, symSize: 0x20 }
  - { offset: 0x489ECF, size: 0x8, addend: 0x0, symName: '__ZN122_$LT$regex_automata..util..prefilter..aho_corasick..AhoCorasick$u20$as$u20$regex_automata..util..prefilter..PrefilterI$GT$4find17hf0a1cd9312b3741bE', symObjAddr: 0xAF46C, symBinAddr: 0xA3BC8, symSize: 0x148 }
  - { offset: 0x48A380, size: 0x8, addend: 0x0, symName: '__ZN122_$LT$regex_automata..util..prefilter..aho_corasick..AhoCorasick$u20$as$u20$regex_automata..util..prefilter..PrefilterI$GT$6prefix17h9f78dc8666c70fccE', symObjAddr: 0xAF5B4, symBinAddr: 0xA3D10, symSize: 0x148 }
  - { offset: 0x48A846, size: 0x8, addend: 0x0, symName: '__ZN95_$LT$regex_automata..util..prefilter..aho_corasick..AhoCorasick$u20$as$u20$core..fmt..Debug$GT$3fmt17h26475812ffacdd8fE', symObjAddr: 0xEE43C, symBinAddr: 0xDF680, symSize: 0xC4 }
  - { offset: 0x48B048, size: 0x8, addend: 0x0, symName: '__ZN79_$LT$regex_automata..util..prefilter..Prefilter$u20$as$u20$core..fmt..Debug$GT$3fmt17he5f11ecde67d7e19E', symObjAddr: 0xEA538, symBinAddr: 0xDB77C, symSize: 0x38C }
  - { offset: 0x48BD3E, size: 0x8, addend: 0x0, symName: '__ZN83_$LT$regex_automata..util..captures..GroupInfoError$u20$as$u20$core..fmt..Debug$GT$3fmt17hd34b6d7b04a086b7E', symObjAddr: 0xF6EC0, symBinAddr: 0xE8048, symSize: 0xC4 }
  - { offset: 0x48C7E1, size: 0x8, addend: 0x0, symName: '__ZN78_$LT$regex_automata..util..primitives..StateID$u20$as$u20$core..fmt..Debug$GT$3fmt17he5f2d7949638bc5eE', symObjAddr: 0xB1038, symBinAddr: 0xA5700, symSize: 0x12C }
  - { offset: 0x48CA5A, size: 0x8, addend: 0x0, symName: '__ZN80_$LT$regex_automata..util..primitives..PatternID$u20$as$u20$core..fmt..Debug$GT$3fmt17h93999e7d9f338ea7E', symObjAddr: 0xB339C, symBinAddr: 0xA7314, symSize: 0x12C }
  - { offset: 0x48D9EF, size: 0x8, addend: 0x0, symName: '__ZN79_$LT$regex_automata..util..search..MatchError$u20$as$u20$core..fmt..Display$GT$3fmt17h11cb90f21833fd29E', symObjAddr: 0xAF6FC, symBinAddr: 0xA3E58, symSize: 0x138 }
  - { offset: 0x48DF8F, size: 0x8, addend: 0x0, symName: '__ZN77_$LT$regex_automata..util..search..MatchError$u20$as$u20$core..fmt..Debug$GT$3fmt17h3d43190c64952955E', symObjAddr: 0xBF840, symBinAddr: 0xB3384, symSize: 0x12C }
  - { offset: 0x48E394, size: 0x8, addend: 0x0, symName: '__ZN88_$LT$regex_automata..util..search..PatternSetInsertError$u20$as$u20$core..fmt..Debug$GT$3fmt17h1dfcb7069f030662E', symObjAddr: 0xF31FC, symBinAddr: 0xE4384, symSize: 0xE8 }
  - { offset: 0x48EAD2, size: 0x8, addend: 0x0, symName: '__ZN72_$LT$regex_automata..util..look..LookSet$u20$as$u20$core..fmt..Debug$GT$3fmt17h04596b8c97a1ea4cE', symObjAddr: 0xE3BFC, symBinAddr: 0xD4E40, symSize: 0x19C }
  - { offset: 0x48F1A5, size: 0x8, addend: 0x0, symName: '__ZN76_$LT$regex_automata..util..alphabet..ByteSet$u20$as$u20$core..fmt..Debug$GT$3fmt17h3135aa3be4199c93E', symObjAddr: 0xE17AC, symBinAddr: 0xD29F0, symSize: 0xC4 }
  - { offset: 0x48F50E, size: 0x8, addend: 0x0, symName: '__ZN80_$LT$regex_automata..util..alphabet..ByteClasses$u20$as$u20$core..fmt..Debug$GT$3fmt17h1b199e4ebb0d8f35E', symObjAddr: 0xE1A28, symBinAddr: 0xD2C6C, symSize: 0x384 }
  - { offset: 0x48FB03, size: 0x8, addend: 0x0, symName: '__ZN73_$LT$regex_automata..util..alphabet..Unit$u20$as$u20$core..fmt..Debug$GT$3fmt17h38a908a1ac29d771E', symObjAddr: 0xE1DAC, symBinAddr: 0xD2FF0, symSize: 0x64 }
  - { offset: 0x48FBF4, size: 0x8, addend: 0x0, symName: '__ZN76_$LT$regex_automata..util..escape..DebugByte$u20$as$u20$core..fmt..Debug$GT$3fmt17he2f9dd4b505e7cc7E', symObjAddr: 0xAF834, symBinAddr: 0xA3F90, symSize: 0x204 }
  - { offset: 0x48FFB8, size: 0x8, addend: 0x0, symName: '__ZN78_$LT$regex_automata..util..start..StartByteMap$u20$as$u20$core..fmt..Debug$GT$3fmt17h4efab22d9d6da4abE', symObjAddr: 0xE1E10, symBinAddr: 0xD3054, symSize: 0x12C }
  - { offset: 0x4901C7, size: 0x8, addend: 0x0, symName: '__ZN71_$LT$regex_automata..util..start..Start$u20$as$u20$core..fmt..Debug$GT$3fmt17h2e1003125c6c00cbE', symObjAddr: 0xE1F3C, symBinAddr: 0xD3180, symSize: 0x2C }
  - { offset: 0x490236, size: 0x8, addend: 0x0, symName: __ZN14regex_automata4util4pool5inner17THREAD_ID_DROPPED17hf59093a1e80d87f2E, symObjAddr: 0x1675A0, symBinAddr: 0x167AE0, symSize: 0x0 }
  - { offset: 0x490251, size: 0x8, addend: 0x0, symName: __MergedGlobals, symObjAddr: 0x1D64E0, symBinAddr: 0x204EC8, symSize: 0x0 }
  - { offset: 0x49027E, size: 0x8, addend: 0x0, symName: '__ZN14regex_automata4util4pool5inner9THREAD_ID29_$u7b$$u7b$constant$u7d$$u7d$28_$u7b$$u7b$closure$u7d$$u7d$23__RUST_STD_INTERNAL_VAL17h2c42a93579057eecE', symObjAddr: 0x1D59D0, symBinAddr: 0x2052D8, symSize: 0x0 }
  - { offset: 0x490F45, size: 0x8, addend: 0x0, symName: __ZN14regex_automata4util11determinize15epsilon_closure17h5b692add62291ed2E, symObjAddr: 0xD92C0, symBinAddr: 0xCAEEC, symSize: 0x464 }
  - { offset: 0x491F60, size: 0x8, addend: 0x0, symName: __ZN14regex_automata4util11determinize14add_nfa_states17h636e8c38d018da4eE, symObjAddr: 0xD9818, symBinAddr: 0xCB444, symSize: 0x42C }
  - { offset: 0x494011, size: 0x8, addend: 0x0, symName: __ZN14regex_automata4util5empty15skip_splits_fwd17hcf0ced46bd694f72E, symObjAddr: 0xBF67C, symBinAddr: 0x143700, symSize: 0x1C4 }
  - { offset: 0x494389, size: 0x8, addend: 0x0, symName: __ZN14regex_automata4util5empty15skip_splits_fwd17heec62b48f823c8afE, symObjAddr: 0xC655C, symBinAddr: 0x1438C4, symSize: 0x1D0 }
  - { offset: 0x494751, size: 0x8, addend: 0x0, symName: __ZN14regex_automata4util5empty15skip_splits_fwd17h6a0daf0faf0c3547E, symObjAddr: 0xDF160, symBinAddr: 0x145E78, symSize: 0x1BC }
  - { offset: 0x494B0D, size: 0x8, addend: 0x0, symName: __ZN14regex_automata4util5empty15skip_splits_rev17h9c4fafebd795fe8cE, symObjAddr: 0xE0334, symBinAddr: 0x146034, symSize: 0x190 }
  - { offset: 0x49645A, size: 0x8, addend: 0x0, symName: '__ZN76_$LT$regex_automata..nfa..thompson..nfa..NFA$u20$as$u20$core..fmt..Debug$GT$3fmt17he58a2cf890b1a26fE', symObjAddr: 0xE5868, symBinAddr: 0xD6AAC, symSize: 0x14 }
  - { offset: 0x496483, size: 0x8, addend: 0x0, symName: '__ZN76_$LT$regex_automata..nfa..thompson..nfa..NFA$u20$as$u20$core..fmt..Debug$GT$3fmt17he58a2cf890b1a26fE', symObjAddr: 0xE5868, symBinAddr: 0xD6AAC, symSize: 0x14 }
  - { offset: 0x4964BE, size: 0x8, addend: 0x0, symName: '__ZN76_$LT$regex_automata..nfa..thompson..nfa..NFA$u20$as$u20$core..fmt..Debug$GT$3fmt17he58a2cf890b1a26fE', symObjAddr: 0xE5868, symBinAddr: 0xD6AAC, symSize: 0x14 }
  - { offset: 0x4964DA, size: 0x8, addend: 0x0, symName: '__ZN76_$LT$regex_automata..nfa..thompson..nfa..NFA$u20$as$u20$core..fmt..Debug$GT$3fmt17he58a2cf890b1a26fE', symObjAddr: 0xE5868, symBinAddr: 0xD6AAC, symSize: 0x14 }
  - { offset: 0x4964F6, size: 0x8, addend: 0x0, symName: '__ZN78_$LT$regex_automata..nfa..thompson..nfa..Inner$u20$as$u20$core..fmt..Debug$GT$3fmt17h657974950c9c9660E', symObjAddr: 0xE4334, symBinAddr: 0xD5578, symSize: 0x258 }
  - { offset: 0x496DEF, size: 0x8, addend: 0x0, symName: '__ZN83_$LT$regex_automata..nfa..thompson..nfa..Transition$u20$as$u20$core..fmt..Debug$GT$3fmt17hb018a922b390f4efE', symObjAddr: 0xE4EC0, symBinAddr: 0xD6104, symSize: 0xAC }
  - { offset: 0x49755A, size: 0x8, addend: 0x0, symName: '__ZN82_$LT$regex_automata..nfa..thompson..pikevm..Config$u20$as$u20$core..fmt..Debug$GT$3fmt17h8530f382305f0f9aE', symObjAddr: 0xE548C, symBinAddr: 0xD66D0, symSize: 0xE8 }
  - { offset: 0x497B67, size: 0x8, addend: 0x0, symName: '__ZN85_$LT$regex_automata..nfa..thompson..backtrack..Config$u20$as$u20$core..fmt..Debug$GT$3fmt17h65f1defce8ef17daE', symObjAddr: 0xE4F6C, symBinAddr: 0xD61B0, symSize: 0xE8 }
  - { offset: 0x499C11, size: 0x8, addend: 0x0, symName: '__ZN82_$LT$regex_automata..dfa..onepass..PatternEpsilons$u20$as$u20$core..fmt..Debug$GT$3fmt17h132deedba0691d3bE', symObjAddr: 0xE38F8, symBinAddr: 0xD4B3C, symSize: 0x134 }
  - { offset: 0x499E8D, size: 0x8, addend: 0x0, symName: '__ZN75_$LT$regex_automata..dfa..onepass..Epsilons$u20$as$u20$core..fmt..Debug$GT$3fmt17hb180f2b8a250da31E', symObjAddr: 0xE3A2C, symBinAddr: 0xD4C70, symSize: 0xF8 }
  - { offset: 0x49A0E8, size: 0x8, addend: 0x0, symName: '__ZN72_$LT$regex_automata..dfa..onepass..Slots$u20$as$u20$core..fmt..Debug$GT$3fmt17h0cf6aaaf3e546a36E', symObjAddr: 0xE3B24, symBinAddr: 0xD4D68, symSize: 0xD8 }
  - { offset: 0x49B250, size: 0x8, addend: 0x0, symName: '__ZN14regex_automata6hybrid3dfa3DFA19start_state_forward28_$u7b$$u7b$closure$u7d$$u7d$17h9975ac14607dba7eE', symObjAddr: 0xD7D9C, symBinAddr: 0xCAC04, symSize: 0xC0 }
  - { offset: 0x49B93C, size: 0x8, addend: 0x0, symName: __ZN14regex_automata6hybrid3dfa34skip_empty_utf8_splits_overlapping17hd402c3b7c2357e02E, symObjAddr: 0xD72A8, symBinAddr: 0x143AFC, symSize: 0xE0 }
  - { offset: 0x49B98E, size: 0x8, addend: 0x0, symName: __ZN14regex_automata6hybrid3dfa34skip_empty_utf8_splits_overlapping17hd402c3b7c2357e02E, symObjAddr: 0xD72A8, symBinAddr: 0x143AFC, symSize: 0xE0 }
  - { offset: 0x49BC59, size: 0x8, addend: 0x0, symName: '__ZN72_$LT$regex_automata..hybrid..dfa..Config$u20$as$u20$core..fmt..Debug$GT$3fmt17h88f810f291b9de94E', symObjAddr: 0xE1F68, symBinAddr: 0xD31AC, symSize: 0xD8 }
  - { offset: 0x49BCD8, size: 0x8, addend: 0x0, symName: __ZN14regex_automata6hybrid3dfa22minimum_cache_capacity17h34a0b0102a82186aE, symObjAddr: 0xF2084, symBinAddr: 0x1461C4, symSize: 0xBC }
  - { offset: 0x49C186, size: 0x8, addend: 0x0, symName: '__ZN78_$LT$regex_automata..hybrid..error..CacheError$u20$as$u20$core..fmt..Debug$GT$3fmt17h65528f22f2927422E', symObjAddr: 0xDBFAC, symBinAddr: 0xCD6C4, symSize: 0x12C }
  - { offset: 0x49C505, size: 0x8, addend: 0x0, symName: '__ZN76_$LT$regex_automata..hybrid..id..LazyStateID$u20$as$u20$core..fmt..Debug$GT$3fmt17hfad29e0acccda8bfE', symObjAddr: 0xDAF3C, symBinAddr: 0xCC654, symSize: 0x12C }
  - { offset: 0x49C711, size: 0x8, addend: 0x0, symName: '__ZN81_$LT$regex_automata..hybrid..id..LazyStateIDError$u20$as$u20$core..fmt..Debug$GT$3fmt17hdda68e6aff0cb48eE', symObjAddr: 0xDB068, symBinAddr: 0xCC780, symSize: 0xC4 }
  - { offset: 0x49CC35, size: 0x8, addend: 0x0, symName: __ZN14regex_automata6hybrid6search20find_overlapping_fwd17h457960d54b0d060bE, symObjAddr: 0xD608C, symBinAddr: 0xC9998, symSize: 0x121C }
  - { offset: 0x49FF52, size: 0x8, addend: 0x0, symName: __ZN14regex_automata6hybrid6search8find_fwd17h10a7085524931cf8E, symObjAddr: 0xDD13C, symBinAddr: 0xCE6CC, symSize: 0x2024 }
  - { offset: 0x4A70B3, size: 0x8, addend: 0x0, symName: __ZN14regex_automata6hybrid6search8find_rev17h9f7033a4c6ca76e3E, symObjAddr: 0xDF31C, symBinAddr: 0xD06F0, symSize: 0x1018 }
  - { offset: 0x4AD123, size: 0x8, addend: 0x0, symName: '__ZN58_$LT$memchr..cow..CowBytes$u20$as$u20$core..fmt..Debug$GT$3fmt17h543e5e5908cec0b8E.1667', symObjAddr: 0xEFF58, symBinAddr: 0xE119C, symSize: 0x12C }
  - { offset: 0x4B2C5C, size: 0x8, addend: 0x0, symName: __ZN14regex_automata3nfa8thompson8compiler8Compiler3new17hcdcc83a6a6c20f97E, symObjAddr: 0xAFC0C, symBinAddr: 0xA4368, symSize: 0x1BC }
  - { offset: 0x4B3015, size: 0x8, addend: 0x0, symName: '__ZN5alloc4sync16Arc$LT$T$C$A$GT$9drop_slow17h4c79d92fd71e932eE', symObjAddr: 0xAFDC8, symBinAddr: 0xA4524, symSize: 0x84 }
  - { offset: 0x4B3A53, size: 0x8, addend: 0x0, symName: '__ZN5alloc4sync16Arc$LT$T$C$A$GT$9drop_slow17h3b21cded3d2f9594E', symObjAddr: 0xB0208, symBinAddr: 0xA4964, symSize: 0x34 }
  - { offset: 0x4B3A8C, size: 0x8, addend: 0x0, symName: '__ZN5alloc4sync16Arc$LT$T$C$A$GT$9drop_slow17h3b21cded3d2f9594E', symObjAddr: 0xB0208, symBinAddr: 0xA4964, symSize: 0x34 }
  - { offset: 0x4B3AAA, size: 0x8, addend: 0x0, symName: '__ZN5alloc4sync16Arc$LT$T$C$A$GT$9drop_slow17h3b21cded3d2f9594E', symObjAddr: 0xB0208, symBinAddr: 0xA4964, symSize: 0x34 }
  - { offset: 0x4B3ABB, size: 0x8, addend: 0x0, symName: '__ZN5alloc4sync16Arc$LT$T$C$A$GT$9drop_slow17h3b21cded3d2f9594E', symObjAddr: 0xB0208, symBinAddr: 0xA4964, symSize: 0x34 }
  - { offset: 0x4B3FBA, size: 0x8, addend: 0x0, symName: __ZN14regex_automata4util10sparse_set9SparseSet6resize17h2f53cf2ad0ba3348E, symObjAddr: 0xB023C, symBinAddr: 0xA4998, symSize: 0x184 }
  - { offset: 0x4B4B98, size: 0x8, addend: 0x0, symName: __ZN14regex_automata3dfa7onepass15InternalBuilder15add_empty_state17h073cb60d943b5b8aE, symObjAddr: 0xB04B8, symBinAddr: 0xA4C14, symSize: 0x15C }
  - { offset: 0x4B5484, size: 0x8, addend: 0x0, symName: __ZN14regex_automata3dfa7onepass15InternalBuilder27add_dfa_state_for_nfa_state17hd19591152f524889E, symObjAddr: 0xB0614, symBinAddr: 0xA4D70, symSize: 0x148 }
  - { offset: 0x4B59A7, size: 0x8, addend: 0x0, symName: '__ZN5alloc7raw_vec19RawVec$LT$T$C$A$GT$8grow_one17h8cd4aab0c8082bd8E', symObjAddr: 0xB075C, symBinAddr: 0x142CAC, symSize: 0x68 }
  - { offset: 0x4B638B, size: 0x8, addend: 0x0, symName: __ZN14regex_automata3dfa7onepass15InternalBuilder14shuffle_states17h8974edd5c9d5eacaE, symObjAddr: 0xB07F0, symBinAddr: 0xA4EB8, symSize: 0x408 }
  - { offset: 0x4B79FD, size: 0x8, addend: 0x0, symName: '__ZN5alloc7raw_vec20RawVecInner$LT$A$GT$6shrink17hf7b5c97cbe97d02bE', symObjAddr: 0xB0BF8, symBinAddr: 0xA52C0, symSize: 0xF8 }
  - { offset: 0x4B818C, size: 0x8, addend: 0x0, symName: __ZN14regex_automata3dfa7onepass15InternalBuilder10stack_push17hc0211bcb4ec257f7E, symObjAddr: 0xB0CF0, symBinAddr: 0xA53B8, symSize: 0x184 }
  - { offset: 0x4B8966, size: 0x8, addend: 0x0, symName: __ZN14regex_automata3dfa7onepass15InternalBuilder18compile_transition17hb9160a006a12f820E, symObjAddr: 0xB0E74, symBinAddr: 0xA553C, symSize: 0x1C4 }
  - { offset: 0x4B8E66, size: 0x8, addend: 0x0, symName: '__ZN5alloc7raw_vec20RawVecInner$LT$A$GT$11finish_grow17hc2ee877837ec0b34E', symObjAddr: 0xB1164, symBinAddr: 0x142D40, symSize: 0x148 }
  - { offset: 0x4B9413, size: 0x8, addend: 0x0, symName: '__ZN5alloc4sync16Arc$LT$T$C$A$GT$9drop_slow17h1030f36bf3a39ee4E', symObjAddr: 0xB15F8, symBinAddr: 0xA5AEC, symSize: 0x54 }
  - { offset: 0x4B9EAC, size: 0x8, addend: 0x0, symName: __ZN14regex_automata3nfa8thompson10range_trie9RangeTrie9add_empty17h38c25328d00f2599E, symObjAddr: 0xB1868, symBinAddr: 0xA5D5C, symSize: 0xDC }
  - { offset: 0x4BA652, size: 0x8, addend: 0x0, symName: __ZN14regex_automata3nfa8thompson7builder7Builder3add17h10832ff30c1e16baE, symObjAddr: 0xB1944, symBinAddr: 0xA5E38, symSize: 0x170 }
  - { offset: 0x4BB3FC, size: 0x8, addend: 0x0, symName: __ZN14regex_automata4util8captures14GroupInfoInner15add_first_group17hc8f09064cb27c33aE, symObjAddr: 0xB1B2C, symBinAddr: 0xA6020, symSize: 0x238 }
  - { offset: 0x4BC214, size: 0x8, addend: 0x0, symName: __ZN14regex_automata3nfa8thompson3nfa5Inner3add17hf3349920aa07d4c6E, symObjAddr: 0xB1EE8, symBinAddr: 0xA63DC, symSize: 0x47C }
  - { offset: 0x4BD633, size: 0x8, addend: 0x0, symName: '__ZN9hashbrown3raw21RawTable$LT$T$C$A$GT$14reserve_rehash17he30f7a86f9221dfbE', symObjAddr: 0xB2518, symBinAddr: 0x142F14, symSize: 0x514 }
  - { offset: 0x4BF21E, size: 0x8, addend: 0x0, symName: '__ZN5alloc7raw_vec19RawVec$LT$T$C$A$GT$8grow_one17h28fa248fb02f2bf2E', symObjAddr: 0xB2C14, symBinAddr: 0x143428, symSize: 0x68 }
  - { offset: 0x4BF5B3, size: 0x8, addend: 0x0, symName: __ZN14regex_automata3nfa8thompson7builder7Builder5patch17ha9680f16feb91e81E, symObjAddr: 0xB3764, symBinAddr: 0xA76DC, symSize: 0x140 }
  - { offset: 0x4C0472, size: 0x8, addend: 0x0, symName: __ZN14regex_automata3dfa7onepass3DFA20try_search_slots_imp17h5bb0f02fd2ac67d8E, symObjAddr: 0xB38A4, symBinAddr: 0xA781C, symSize: 0xB50 }
  - { offset: 0x4C1EA0, size: 0x8, addend: 0x0, symName: __ZN14regex_automata4util4look11LookMatcher13is_start_crlf17h5246b4d98bae54d4E, symObjAddr: 0xB43F4, symBinAddr: 0xA836C, symSize: 0x64 }
  - { offset: 0x4C1ECB, size: 0x8, addend: 0x0, symName: __ZN14regex_automata4util4look11LookMatcher11is_end_crlf17h0f1b4f204620f6f5E, symObjAddr: 0xB4458, symBinAddr: 0xA83D0, symSize: 0x64 }
  - { offset: 0x4C1EF6, size: 0x8, addend: 0x0, symName: __ZN14regex_automata4util4look11LookMatcher13is_word_ascii17h8e2cffd32d86fcaeE, symObjAddr: 0xB44BC, symBinAddr: 0xA8434, symSize: 0x70 }
  - { offset: 0x4C1F4E, size: 0x8, addend: 0x0, symName: __ZN14regex_automata4util4look11LookMatcher15is_word_unicode17hea969325fe15a76bE, symObjAddr: 0xB452C, symBinAddr: 0xA84A4, symSize: 0x310 }
  - { offset: 0x4C23F5, size: 0x8, addend: 0x0, symName: __ZN14regex_automata4util4look11LookMatcher22is_word_unicode_negate17h5b726078c626301bE, symObjAddr: 0xB483C, symBinAddr: 0xA87B4, symSize: 0x4A4 }
  - { offset: 0x4C2A5A, size: 0x8, addend: 0x0, symName: __ZN14regex_automata3dfa7onepass5Cache14explicit_slots17h52ea10e80b382b3cE, symObjAddr: 0xB4CE0, symBinAddr: 0xA8C58, symSize: 0x2C }
  - { offset: 0x4C3329, size: 0x8, addend: 0x0, symName: __ZN12regex_syntax3hir3Hir5class17h4cb9d66b9d9f9d5cE, symObjAddr: 0xB5394, symBinAddr: 0xA930C, symSize: 0x3F4 }
  - { offset: 0x4C4802, size: 0x8, addend: 0x0, symName: __ZN14regex_automata3nfa8thompson8compiler8Compiler10c_at_least17hf0f79dc7d0e17290E, symObjAddr: 0xB5788, symBinAddr: 0xA9700, symSize: 0x8E0 }
  - { offset: 0x4C6145, size: 0x8, addend: 0x0, symName: __ZN14regex_automata3nfa8thompson8compiler8Compiler5patch17hac9c197e4122c0fdE, symObjAddr: 0xB6068, symBinAddr: 0xA9FE0, symSize: 0x5C }
  - { offset: 0x4C6C96, size: 0x8, addend: 0x0, symName: __ZN14regex_automata3nfa8thompson8compiler8Compiler5c_cap17hc1cd73a8c730a4c5E, symObjAddr: 0xB60C4, symBinAddr: 0xAA03C, symSize: 0x638 }
  - { offset: 0x4CD8FD, size: 0x8, addend: 0x0, symName: __ZN14regex_automata3nfa8thompson8compiler8Compiler1c17hbf50d5306f8c41d9E, symObjAddr: 0xB66FC, symBinAddr: 0xAA674, symSize: 0x3F8C }
  - { offset: 0x4DD7D6, size: 0x8, addend: 0x0, symName: __ZN14regex_automata3nfa8thompson8compiler8Compiler9c_bounded17h0b9d9ff3cea1ebcfE, symObjAddr: 0xBA688, symBinAddr: 0xAE600, symSize: 0x48C }
  - { offset: 0x4DE4DC, size: 0x8, addend: 0x0, symName: __ZN14regex_automata3nfa8thompson8compiler8Compiler8c_concat17h081d93efdfee57fbE, symObjAddr: 0xBAB14, symBinAddr: 0xAEA8C, symSize: 0x2F4 }
  - { offset: 0x4DEFBF, size: 0x8, addend: 0x0, symName: __ZN14regex_automata3nfa8thompson8compiler8Compiler10c_alt_iter17ha07ceed8a4076f29E, symObjAddr: 0xBAE08, symBinAddr: 0xAED80, symSize: 0x4CC }
  - { offset: 0x4DFAB0, size: 0x8, addend: 0x0, symName: '__ZN5alloc7raw_vec19RawVec$LT$T$C$A$GT$8grow_one17h174ca95d3705920bE', symObjAddr: 0xBB2D4, symBinAddr: 0x143490, symSize: 0x68 }
  - { offset: 0x4DFC3E, size: 0x8, addend: 0x0, symName: '__ZN5alloc7raw_vec19RawVec$LT$T$C$A$GT$8grow_one17h2083c5a3f67c91feE', symObjAddr: 0xBB43C, symBinAddr: 0x1434F8, symSize: 0x68 }
  - { offset: 0x4E00A3, size: 0x8, addend: 0x0, symName: __ZN14regex_automata3nfa8thompson8compiler12Utf8Compiler3new17h425f68eb4dac2301E, symObjAddr: 0xBB4E8, symBinAddr: 0xAF390, symSize: 0x1E4 }
  - { offset: 0x4E0CE0, size: 0x8, addend: 0x0, symName: __ZN14regex_automata3nfa8thompson8compiler12Utf8Compiler6finish17h87b52a92deacbb96E, symObjAddr: 0xBB6CC, symBinAddr: 0xAF574, symSize: 0x164 }
  - { offset: 0x4E1238, size: 0x8, addend: 0x0, symName: __ZN14regex_automata3nfa8thompson8compiler12Utf8Compiler3add17h898ec6ba711cebeaE, symObjAddr: 0xBB830, symBinAddr: 0xAF6D8, symSize: 0x1EC }
  - { offset: 0x4E17EF, size: 0x8, addend: 0x0, symName: '__ZN5alloc7raw_vec19RawVec$LT$T$C$A$GT$8grow_one17h69a136fa8b299369E', symObjAddr: 0xBBA1C, symBinAddr: 0x143560, symSize: 0x68 }
  - { offset: 0x4E197D, size: 0x8, addend: 0x0, symName: '__ZN5alloc7raw_vec19RawVec$LT$T$C$A$GT$8grow_one17h2508199fbd6d8acaE', symObjAddr: 0xBBA84, symBinAddr: 0x1435C8, symSize: 0x68 }
  - { offset: 0x4E1B0B, size: 0x8, addend: 0x0, symName: '__ZN5alloc7raw_vec19RawVec$LT$T$C$A$GT$8grow_one17hfd6615b449aa8b5bE', symObjAddr: 0xBBAEC, symBinAddr: 0x143630, symSize: 0x68 }
  - { offset: 0x4E1F15, size: 0x8, addend: 0x0, symName: __ZN14regex_automata3nfa8thompson8compiler12Utf8Compiler12compile_from17h73bd53d5aaf6986fE, symObjAddr: 0xBBB54, symBinAddr: 0xAF8C4, symSize: 0x1EC }
  - { offset: 0x4E26AD, size: 0x8, addend: 0x0, symName: '__ZN5alloc7raw_vec19RawVec$LT$T$C$A$GT$8grow_one17hcefcf82f3fa4347cE', symObjAddr: 0xBBD40, symBinAddr: 0x143698, symSize: 0x68 }
  - { offset: 0x4E2C7E, size: 0x8, addend: 0x0, symName: __ZN14regex_automata3nfa8thompson8compiler12Utf8Compiler7compile17ha18cb89bc3c67f9aE, symObjAddr: 0xBBDA8, symBinAddr: 0xAFAB0, symSize: 0x2CC }
  - { offset: 0x4E3B13, size: 0x8, addend: 0x0, symName: __ZN14regex_automata3nfa8thompson8compiler8Compiler17add_union_reverse17h36c9f937d1098397E, symObjAddr: 0xBC2D4, symBinAddr: 0xAFFDC, symSize: 0x7C }
  - { offset: 0x4E3D2B, size: 0x8, addend: 0x0, symName: __ZN14regex_automata3nfa8thompson8compiler8Compiler9add_union17hf10006e4ea491357E, symObjAddr: 0xBC350, symBinAddr: 0xB0058, symSize: 0x7C }
  - { offset: 0x4E3F43, size: 0x8, addend: 0x0, symName: __ZN14regex_automata3nfa8thompson8compiler8Compiler9add_empty17hc985c97597861b82E, symObjAddr: 0xBC3CC, symBinAddr: 0xB00D4, symSize: 0x6C }
  - { offset: 0x4E4AB0, size: 0x8, addend: 0x0, symName: __ZN14regex_automata3nfa8thompson6pikevm12ActiveStates5reset17h7a6915ef62e4e3adE, symObjAddr: 0xBD404, symBinAddr: 0xB110C, symSize: 0x120 }
  - { offset: 0x4E527C, size: 0x8, addend: 0x0, symName: '__ZN5alloc4sync16Arc$LT$T$C$A$GT$9drop_slow17hf37e896f07b5ffc3E', symObjAddr: 0xBD578, symBinAddr: 0xB1280, symSize: 0xB8 }
  - { offset: 0x4E563D, size: 0x8, addend: 0x0, symName: __ZN14regex_automata3nfa8thompson6pikevm6PikeVM16search_slots_imp17hb06cc7bd6b8cca49E, symObjAddr: 0xBD780, symBinAddr: 0xB1488, symSize: 0x110 }
  - { offset: 0x4E6F94, size: 0x8, addend: 0x0, symName: __ZN14regex_automata3nfa8thompson6pikevm6PikeVM10search_imp17hc3bd661db5118e1cE, symObjAddr: 0xBD890, symBinAddr: 0xB1598, symSize: 0x1DEC }
  - { offset: 0x4ED9EB, size: 0x8, addend: 0x0, symName: __ZN14regex_automata4util4look11LookMatcher21is_word_start_unicode17hab4babe0b3200640E, symObjAddr: 0xBFCEC, symBinAddr: 0xB3830, symSize: 0x314 }
  - { offset: 0x4EDE20, size: 0x8, addend: 0x0, symName: __ZN14regex_automata4util4look11LookMatcher19is_word_end_unicode17h3b77be100d412f25E, symObjAddr: 0xC0000, symBinAddr: 0xB3B44, symSize: 0x314 }
  - { offset: 0x4EE262, size: 0x8, addend: 0x0, symName: __ZN14regex_automata4util4look11LookMatcher26is_word_start_half_unicode17h61f777ea72913d90E, symObjAddr: 0xC0314, symBinAddr: 0xB3E58, symSize: 0x36C }
  - { offset: 0x4EE5D5, size: 0x8, addend: 0x0, symName: __ZN14regex_automata4util4look11LookMatcher24is_word_end_half_unicode17hc0264c7ef4f36030E, symObjAddr: 0xC0680, symBinAddr: 0xB41C4, symSize: 0x15C }
  - { offset: 0x4EEBC3, size: 0x8, addend: 0x0, symName: __ZN14regex_automata3nfa8thompson6pikevm6PikeVM21which_overlapping_imp17ha64e57dfa737adecE, symObjAddr: 0xC07DC, symBinAddr: 0xB4320, symSize: 0x1C34 }
  - { offset: 0x4F8B35, size: 0x8, addend: 0x0, symName: __ZN14regex_automata3nfa8thompson8compiler8Compiler19build_many_from_hir17h8000a4a238016fecE, symObjAddr: 0xC2410, symBinAddr: 0xB5F54, symSize: 0x2B18 }
  - { offset: 0x504D11, size: 0x8, addend: 0x0, symName: __ZN14regex_automata3nfa8thompson9backtrack18BoundedBacktracker20try_search_slots_imp17h9ebb4c64f75c1cb0E, symObjAddr: 0xC53E8, symBinAddr: 0xB8F2C, symSize: 0xDC }
  - { offset: 0x505FB1, size: 0x8, addend: 0x0, symName: __ZN14regex_automata3nfa8thompson9backtrack18BoundedBacktracker10search_imp17he00c2b77cfeabe64E, symObjAddr: 0xC54C4, symBinAddr: 0xB9008, symSize: 0x1098 }
  - { offset: 0x508E13, size: 0x8, addend: 0x0, symName: __ZN14regex_automata4util6search10MatchError17haystack_too_long17h87ff19ab8e9e5158E, symObjAddr: 0xC672C, symBinAddr: 0xBA0A0, symSize: 0x40 }
  - { offset: 0x508FA3, size: 0x8, addend: 0x0, symName: '__ZN5alloc7raw_vec19RawVec$LT$T$C$A$GT$8grow_one17h1fe0bc951e2b48ddE', symObjAddr: 0xC676C, symBinAddr: 0x143A94, symSize: 0x68 }
  - { offset: 0x5092EF, size: 0x8, addend: 0x0, symName: __ZN14regex_automata4meta5regex5Regex15create_captures17heff2e9b7dcb820b8E, symObjAddr: 0xC67D4, symBinAddr: 0xBA0E0, symSize: 0x108 }
  - { offset: 0x50AA0F, size: 0x8, addend: 0x0, symName: __ZN14regex_automata4meta5regex7Builder5build17h3c658899627cd45dE, symObjAddr: 0xC68DC, symBinAddr: 0xBA1E8, symSize: 0x32C4 }
  - { offset: 0x519426, size: 0x8, addend: 0x0, symName: '__ZN5alloc4sync16Arc$LT$T$C$A$GT$9drop_slow17h40e8dcb83eabbe33E', symObjAddr: 0xCF950, symBinAddr: 0xC325C, symSize: 0x88 }
  - { offset: 0x51AAF2, size: 0x8, addend: 0x0, symName: __ZN14regex_automata4util9prefilter6Choice3new17hd4e808132ba67f05E, symObjAddr: 0xD02A8, symBinAddr: 0xC3BB4, symSize: 0xA40 }
  - { offset: 0x51C6C3, size: 0x8, addend: 0x0, symName: '__ZN14regex_automata4meta8strategy12Pre$LT$P$GT$3new17h122b70c3ab27c0e5E', symObjAddr: 0xD0CE8, symBinAddr: 0xC45F4, symSize: 0xE8 }
  - { offset: 0x51C9AB, size: 0x8, addend: 0x0, symName: '__ZN14regex_automata4meta8strategy12Pre$LT$P$GT$3new17ha61109a5b66c6170E', symObjAddr: 0xD0DD0, symBinAddr: 0xC46DC, symSize: 0xF8 }
  - { offset: 0x51CC93, size: 0x8, addend: 0x0, symName: '__ZN14regex_automata4meta8strategy12Pre$LT$P$GT$3new17h229c04d3fdc5a766E', symObjAddr: 0xD0EC8, symBinAddr: 0xC47D4, symSize: 0xF0 }
  - { offset: 0x51CF97, size: 0x8, addend: 0x0, symName: '__ZN14regex_automata4meta8strategy12Pre$LT$P$GT$3new17had341496e69c6ec8E', symObjAddr: 0xD0FB8, symBinAddr: 0xC48C4, symSize: 0x150 }
  - { offset: 0x51D32C, size: 0x8, addend: 0x0, symName: '__ZN14regex_automata4meta8strategy12Pre$LT$P$GT$3new17h91289cd664d1ece8E', symObjAddr: 0xD1108, symBinAddr: 0xC4A14, symSize: 0x114 }
  - { offset: 0x51D539, size: 0x8, addend: 0x0, symName: '__ZN14regex_automata4meta8strategy12Pre$LT$P$GT$3new17h035e0c797313dba0E', symObjAddr: 0xD121C, symBinAddr: 0xC4B28, symSize: 0x124 }
  - { offset: 0x51D89C, size: 0x8, addend: 0x0, symName: '__ZN14regex_automata4meta8strategy12Pre$LT$P$GT$3new17hc3350ef313fc6312E', symObjAddr: 0xD1340, symBinAddr: 0xC4C4C, symSize: 0x11C }
  - { offset: 0x51E2C2, size: 0x8, addend: 0x0, symName: __ZN12aho_corasick3nfa13noncontiguous8Compiler10build_trie17h25c8b8d74d50d1f4E, symObjAddr: 0xD154C, symBinAddr: 0xC4E58, symSize: 0x584 }
  - { offset: 0x51F593, size: 0x8, addend: 0x0, symName: __ZN14regex_automata6hybrid3dfa7Builder9configure17h0edf1e0a03d6b347E, symObjAddr: 0xD21B0, symBinAddr: 0xC5ABC, symSize: 0x284 }
  - { offset: 0x51FEC3, size: 0x8, addend: 0x0, symName: __ZN14regex_automata6hybrid3dfa7Builder14build_from_nfa17h86cb4e8e1b81d4e6E, symObjAddr: 0xD2434, symBinAddr: 0xC5D40, symSize: 0x6D8 }
  - { offset: 0x520F14, size: 0x8, addend: 0x0, symName: __ZN12regex_syntax3hir7literal3Seq5union17hab5c7c49b6b05e6bE, symObjAddr: 0xD2D68, symBinAddr: 0xC6674, symSize: 0x1F8 }
  - { offset: 0x521DA3, size: 0x8, addend: 0x0, symName: '__ZN5alloc3vec16Vec$LT$T$C$A$GT$8dedup_by17hc6e1e147e46fca10E', symObjAddr: 0xD31D8, symBinAddr: 0xC6AE4, symSize: 0x150 }
  - { offset: 0x522DC4, size: 0x8, addend: 0x0, symName: __ZN6memchr6memmem13FinderBuilder25build_forward_with_ranker17hce93ae45e6ad4b11E, symObjAddr: 0xD3328, symBinAddr: 0xC6C34, symSize: 0x7F8 }
  - { offset: 0x523E60, size: 0x8, addend: 0x0, symName: __ZN14regex_automata4util9prefilter9Prefilter11from_choice17hb4dadb2c22f578a2E, symObjAddr: 0xD3B20, symBinAddr: 0xC742C, symSize: 0x380 }
  - { offset: 0x525634, size: 0x8, addend: 0x0, symName: __ZN14regex_automata4meta8wrappers13ReverseHybrid3new17h359d217bfa0e4fb6E, symObjAddr: 0xD49A4, symBinAddr: 0xC82B0, symSize: 0x288 }
  - { offset: 0x526F0B, size: 0x8, addend: 0x0, symName: __ZN14regex_automata4meta8wrappers12HybridEngine29try_which_overlapping_matches17he04422eaff2570afE, symObjAddr: 0xD5CE0, symBinAddr: 0xC95EC, symSize: 0x240 }
  - { offset: 0x52745C, size: 0x8, addend: 0x0, symName: __ZN14regex_automata4meta8wrappers11PikeVMCache3get17h8412075f637fe59fE, symObjAddr: 0xD5F20, symBinAddr: 0xC982C, symSize: 0x16C }
  - { offset: 0x5286BC, size: 0x8, addend: 0x0, symName: __ZN14regex_automata6hybrid3dfa7LazyRef7dead_id17h68af3d9a06a5c554E, symObjAddr: 0xD7388, symBinAddr: 0xCABB4, symSize: 0x50 }
  - { offset: 0x529C40, size: 0x8, addend: 0x0, symName: __ZN14regex_automata6hybrid3dfa4Lazy17cache_start_group17h967220d9c074fb37E, symObjAddr: 0xD73D8, symBinAddr: 0x143BDC, symSize: 0x9C4 }
  - { offset: 0x52D61B, size: 0x8, addend: 0x0, symName: __ZN14regex_automata6hybrid3dfa4Lazy16cache_next_state17h02c1aa8031930669E, symObjAddr: 0xD7E5C, symBinAddr: 0x1445A0, symSize: 0x123C }
  - { offset: 0x532747, size: 0x8, addend: 0x0, symName: __ZN14regex_automata4util6search10MatchError7gave_up17h81cd9c95de99fdafE, symObjAddr: 0xD9098, symBinAddr: 0xCACC4, symSize: 0x40 }
  - { offset: 0x53289C, size: 0x8, addend: 0x0, symName: __ZN14regex_automata4util6search10MatchError4quit17h30d799d41ed34204E, symObjAddr: 0xD90D8, symBinAddr: 0xCAD04, symSize: 0x44 }
  - { offset: 0x5329FA, size: 0x8, addend: 0x0, symName: __ZN14regex_automata6hybrid3dfa3DFA13match_pattern17h99eba90f6190092bE, symObjAddr: 0xD911C, symBinAddr: 0xCAD48, symSize: 0xA8 }
  - { offset: 0x532C8B, size: 0x8, addend: 0x0, symName: __ZN14regex_automata6hybrid3dfa3DFA14next_eoi_state17h410deb979da10dabE, symObjAddr: 0xD91C4, symBinAddr: 0xCADF0, symSize: 0x80 }
  - { offset: 0x532E9A, size: 0x8, addend: 0x0, symName: __ZN14regex_automata6hybrid3dfa3DFA10next_state17ha9f5e61e3102a79cE, symObjAddr: 0xD9244, symBinAddr: 0xCAE70, symSize: 0x7C }
  - { offset: 0x5335A5, size: 0x8, addend: 0x0, symName: __ZN14regex_automata4util11determinize5state19StateBuilderMatches8into_nfa17h90a6eca205ca9b03E, symObjAddr: 0xD9724, symBinAddr: 0xCB350, symSize: 0xF4 }
  - { offset: 0x533E9B, size: 0x8, addend: 0x0, symName: '__ZN9hashbrown3map28HashMap$LT$K$C$V$C$S$C$A$GT$3get17hd4573512eaaf06c5E', symObjAddr: 0xD9C44, symBinAddr: 0xCB870, symSize: 0x234 }
  - { offset: 0x533ED2, size: 0x8, addend: 0x0, symName: '__ZN9hashbrown3map28HashMap$LT$K$C$V$C$S$C$A$GT$3get17hd4573512eaaf06c5E', symObjAddr: 0xD9C44, symBinAddr: 0xCB870, symSize: 0x234 }
  - { offset: 0x533EEE, size: 0x8, addend: 0x0, symName: '__ZN9hashbrown3map28HashMap$LT$K$C$V$C$S$C$A$GT$3get17hd4573512eaaf06c5E', symObjAddr: 0xD9C44, symBinAddr: 0xCB870, symSize: 0x234 }
  - { offset: 0x534F56, size: 0x8, addend: 0x0, symName: __ZN14regex_automata6hybrid3dfa4Lazy11clear_cache17hdb127c4621bbf2a8E, symObjAddr: 0xD9E78, symBinAddr: 0xCBAA4, symSize: 0x64C }
  - { offset: 0x536A84, size: 0x8, addend: 0x0, symName: __ZN14regex_automata6hybrid3dfa4Lazy13next_state_id17ha09ff92dbb46bb2aE, symObjAddr: 0xDA4C4, symBinAddr: 0xCC0F0, symSize: 0xF0 }
  - { offset: 0x536F09, size: 0x8, addend: 0x0, symName: __ZN14regex_automata6hybrid3dfa4Lazy14set_transition17h9b55b49273b765a0E, symObjAddr: 0xDA5B4, symBinAddr: 0xCC1E0, symSize: 0xE8 }
  - { offset: 0x53756F, size: 0x8, addend: 0x0, symName: '__ZN9hashbrown3map28HashMap$LT$K$C$V$C$S$C$A$GT$6insert17h1edd1572d7a31ddeE', symObjAddr: 0xDA69C, symBinAddr: 0xCC2C8, symSize: 0x258 }
  - { offset: 0x53801C, size: 0x8, addend: 0x0, symName: '__ZN9hashbrown3raw21RawTable$LT$T$C$A$GT$14reserve_rehash17h755cc603b566d53fE', symObjAddr: 0xDAA28, symBinAddr: 0x1457DC, symSize: 0x514 }
  - { offset: 0x53A36F, size: 0x8, addend: 0x0, symName: __ZN14regex_automata6hybrid3dfa4Lazy10init_cache17h452b42a732600113E, symObjAddr: 0xDB12C, symBinAddr: 0xCC844, symSize: 0xE80 }
  - { offset: 0x53D80B, size: 0x8, addend: 0x0, symName: __ZN14regex_automata4util11determinize5state5State4dead17h8d76af191e6d40c0E, symObjAddr: 0xDC0D8, symBinAddr: 0x145CF0, symSize: 0x168 }
  - { offset: 0x53E191, size: 0x8, addend: 0x0, symName: __ZN14regex_automata6hybrid5regex5Regex10try_search17h8d4de9b51385010dE, symObjAddr: 0xDC38C, symBinAddr: 0xCD91C, symSize: 0x278 }
  - { offset: 0x53EE38, size: 0x8, addend: 0x0, symName: __ZN14regex_automata4meta8strategy4Core13search_nofail17hd863771b2162478aE, symObjAddr: 0xDC604, symBinAddr: 0xCDB94, symSize: 0x324 }
  - { offset: 0x53F9DF, size: 0x8, addend: 0x0, symName: __ZN14regex_automata4meta8strategy4Core19search_slots_nofail17h2becc897c7407ac6E, symObjAddr: 0xDC928, symBinAddr: 0xCDEB8, symSize: 0x26C }
  - { offset: 0x540061, size: 0x8, addend: 0x0, symName: __ZN14regex_automata3dfa7onepass3DFA16try_search_slots17h6292c3c5793c3db4E, symObjAddr: 0xDCB94, symBinAddr: 0xCE124, symSize: 0x208 }
  - { offset: 0x540BC8, size: 0x8, addend: 0x0, symName: __ZN14regex_automata3nfa8thompson9backtrack18BoundedBacktracker16try_search_slots17hb2206a3a51db2c18E, symObjAddr: 0xDCD9C, symBinAddr: 0xCE32C, symSize: 0x1F4 }
  - { offset: 0x5417B4, size: 0x8, addend: 0x0, symName: __ZN14regex_automata3nfa8thompson6pikevm6PikeVM12search_slots17hf52c987afd92e114E, symObjAddr: 0xDCF90, symBinAddr: 0xCE520, symSize: 0x1AC }
  - { offset: 0x542F02, size: 0x8, addend: 0x0, symName: __ZN14regex_automata4util6search5Input8set_span17h1a45bfe50d7c7b12E, symObjAddr: 0xE04C4, symBinAddr: 0xD1708, symSize: 0x70 }
  - { offset: 0x543134, size: 0x8, addend: 0x0, symName: __ZN14regex_automata4meta8strategy4Core15is_match_nofail17ha9d3ba029ec5454aE, symObjAddr: 0xE0534, symBinAddr: 0xD1778, symSize: 0x2AC }
  - { offset: 0x543854, size: 0x8, addend: 0x0, symName: __ZN14regex_automata6hybrid5regex5Cache5reset17h55ea833cc3e14b46E, symObjAddr: 0xE07E0, symBinAddr: 0xD1A24, symSize: 0x104 }
  - { offset: 0x543E5B, size: 0x8, addend: 0x0, symName: __ZN14regex_automata6hybrid3dfa5Cache3new17ha927296c28be6faaE, symObjAddr: 0xE0988, symBinAddr: 0xD1BCC, symSize: 0x23C }
  - { offset: 0x549FDF, size: 0x8, addend: 0x0, symName: __ZN14regex_automata4util8captures9GroupInfo3new17h06863b6b63eb7fe9E, symObjAddr: 0xF6B4C, symBinAddr: 0xE7CD4, symSize: 0x2C4 }
  - { offset: 0x54B51B, size: 0x8, addend: 0x0, symName: __ZN12aho_corasick3nfa13noncontiguous7Builder5build17hcae98304c01fb443E, symObjAddr: 0xF7078, symBinAddr: 0xE8200, symSize: 0x5FC }
  - { offset: 0x54C7B6, size: 0x8, addend: 0x0, symName: __ZN12aho_corasick3nfa13noncontiguous8Compiler10build_trie17h8822f04e509b8dafE, symObjAddr: 0xF7674, symBinAddr: 0xE87FC, symSize: 0x578 }
  - { offset: 0x54D85E, size: 0x8, addend: 0x0, symName: '__ZN5alloc7raw_vec19RawVec$LT$T$C$A$GT$8grow_one17hf41bda703960f636E', symObjAddr: 0xF7C6C, symBinAddr: 0x146280, symSize: 0x68 }
  - { offset: 0x54DCED, size: 0x8, addend: 0x0, symName: __ZN14regex_automata4util4iter8Searcher30handle_overlapping_empty_match17h628ee5672b277013E, symObjAddr: 0xF7CD4, symBinAddr: 0x1462E8, symSize: 0x1A4 }
  - { offset: 0x54E2D9, size: 0x8, addend: 0x0, symName: __ZN14regex_automata4util8captures8Captures17get_group_by_name17h6224a58cf0bfd574E, symObjAddr: 0xF7E78, symBinAddr: 0xE8DF4, symSize: 0x20C }
  - { offset: 0x54EED3, size: 0x8, addend: 0x0, symName: '__ZN5alloc4sync16Arc$LT$T$C$A$GT$9drop_slow17h63fb8e61aa717bdaE', symObjAddr: 0xF8084, symBinAddr: 0xE9000, symSize: 0xE8 }
  - { offset: 0x636DEB, size: 0x8, addend: 0x0, symName: '__ZN5alloc7raw_vec20RawVecInner$LT$A$GT$11finish_grow17h07ebf1fe5e4e6aadE', symObjAddr: 0x9057C, symBinAddr: 0x13B924, symSize: 0x74 }
  - { offset: 0x6370EB, size: 0x8, addend: 0x0, symName: '__ZN5alloc7raw_vec19RawVec$LT$T$C$A$GT$8grow_one17hd524c1322f6d5a82E', symObjAddr: 0x91CFC, symBinAddr: 0x13BA28, symSize: 0x60 }
  - { offset: 0x63719D, size: 0x8, addend: 0x0, symName: __ZN5alloc7raw_vec12handle_error17hd9deaf7dc19ebb3fE, symObjAddr: 0x904F0, symBinAddr: 0x13B898, symSize: 0x14 }
  - { offset: 0x6371E6, size: 0x8, addend: 0x0, symName: '__ZN5alloc7raw_vec20RawVecInner$LT$A$GT$7reserve21do_reserve_and_handle17hc8d8ead11fd01459E', symObjAddr: 0x90504, symBinAddr: 0x13B8AC, symSize: 0x78 }
  - { offset: 0x6372C4, size: 0x8, addend: 0x0, symName: __ZN5alloc7raw_vec17capacity_overflow17ha06fdb2ecbad8510E, symObjAddr: 0x905F0, symBinAddr: 0x13B998, symSize: 0x20 }
  - { offset: 0x6374C3, size: 0x8, addend: 0x0, symName: '__ZN5alloc3vec16Vec$LT$T$C$A$GT$10insert_mut13assert_failed17h9a763af80eccc9a8E', symObjAddr: 0x91C8C, symBinAddr: 0x13B9B8, symSize: 0x34 }
  - { offset: 0x6374E4, size: 0x8, addend: 0x0, symName: '__ZN5alloc3vec16Vec$LT$T$C$A$GT$9split_off13assert_failed17hd5aeb1ca1e4dbb2fE', symObjAddr: 0x91CC0, symBinAddr: 0x13B9EC, symSize: 0x3C }
  - { offset: 0x637592, size: 0x8, addend: 0x0, symName: '__ZN60_$LT$alloc..string..String$u20$as$u20$core..clone..Clone$GT$5clone17hae67e35e1c94f097E', symObjAddr: 0x91D5C, symBinAddr: 0x8D6DC, symSize: 0x6C }
  - { offset: 0x637716, size: 0x8, addend: 0x0, symName: __ZN5alloc6string6String15from_utf8_lossy17h03e7be16830322ceE, symObjAddr: 0x902E4, symBinAddr: 0x8BE54, symSize: 0x20C }
  - { offset: 0x637C8F, size: 0x8, addend: 0x0, symName: '__ZN58_$LT$alloc..string..String$u20$as$u20$core..fmt..Write$GT$9write_str17hfaf892e59da79312E.1158', symObjAddr: 0x90884, symBinAddr: 0x8C2D4, symSize: 0x78 }
  - { offset: 0x637DDA, size: 0x8, addend: 0x0, symName: '__ZN58_$LT$alloc..string..String$u20$as$u20$core..fmt..Write$GT$10write_char17h5a90e0e0b6d91f2fE.1159', symObjAddr: 0x908FC, symBinAddr: 0x8C34C, symSize: 0x118 }
  - { offset: 0x6380D2, size: 0x8, addend: 0x0, symName: __ZN5alloc5alloc18handle_alloc_error17h06754e1196e3be78E, symObjAddr: 0x90290, symBinAddr: 0x13B880, symSize: 0x18 }
  - { offset: 0x63814A, size: 0x8, addend: 0x0, symName: __ZN5alloc3fmt6format12format_inner17hd571df24e790cabcE, symObjAddr: 0x906EC, symBinAddr: 0x8C13C, symSize: 0x198 }
  - { offset: 0x6384A7, size: 0x8, addend: 0x0, symName: '__ZN254_$LT$alloc..boxed..convert..$LT$impl$u20$core..convert..From$LT$alloc..string..String$GT$$u20$for$u20$alloc..boxed..Box$LT$dyn$u20$core..error..Error$u2b$core..marker..Send$u2b$core..marker..Sync$GT$$GT$..from..StringError$u20$as$u20$core..fmt..Debug$GT$3fmt17h7eb09ef1d7b4a98aE', symObjAddr: 0x902A8, symBinAddr: 0x8BE18, symSize: 0x14 }
  - { offset: 0x6384C5, size: 0x8, addend: 0x0, symName: '__ZN254_$LT$alloc..boxed..convert..$LT$impl$u20$core..convert..From$LT$alloc..string..String$GT$$u20$for$u20$alloc..boxed..Box$LT$dyn$u20$core..error..Error$u2b$core..marker..Send$u2b$core..marker..Sync$GT$$GT$..from..StringError$u20$as$u20$core..fmt..Debug$GT$3fmt17h7eb09ef1d7b4a98aE', symObjAddr: 0x902A8, symBinAddr: 0x8BE18, symSize: 0x14 }
  - { offset: 0x6384DA, size: 0x8, addend: 0x0, symName: '__ZN254_$LT$alloc..boxed..convert..$LT$impl$u20$core..convert..From$LT$alloc..string..String$GT$$u20$for$u20$alloc..boxed..Box$LT$dyn$u20$core..error..Error$u2b$core..marker..Send$u2b$core..marker..Sync$GT$$GT$..from..StringError$u20$as$u20$core..fmt..Debug$GT$3fmt17h7eb09ef1d7b4a98aE', symObjAddr: 0x902A8, symBinAddr: 0x8BE18, symSize: 0x14 }
  - { offset: 0x6384EF, size: 0x8, addend: 0x0, symName: '__ZN254_$LT$alloc..boxed..convert..$LT$impl$u20$core..convert..From$LT$alloc..string..String$GT$$u20$for$u20$alloc..boxed..Box$LT$dyn$u20$core..error..Error$u2b$core..marker..Send$u2b$core..marker..Sync$GT$$GT$..from..StringError$u20$as$u20$core..fmt..Debug$GT$3fmt17h7eb09ef1d7b4a98aE', symObjAddr: 0x902A8, symBinAddr: 0x8BE18, symSize: 0x14 }
  - { offset: 0x638504, size: 0x8, addend: 0x0, symName: '__ZN254_$LT$alloc..boxed..convert..$LT$impl$u20$core..convert..From$LT$alloc..string..String$GT$$u20$for$u20$alloc..boxed..Box$LT$dyn$u20$core..error..Error$u2b$core..marker..Send$u2b$core..marker..Sync$GT$$GT$..from..StringError$u20$as$u20$core..fmt..Debug$GT$3fmt17h7eb09ef1d7b4a98aE', symObjAddr: 0x902A8, symBinAddr: 0x8BE18, symSize: 0x14 }
  - { offset: 0x638519, size: 0x8, addend: 0x0, symName: '__ZN254_$LT$alloc..boxed..convert..$LT$impl$u20$core..convert..From$LT$alloc..string..String$GT$$u20$for$u20$alloc..boxed..Box$LT$dyn$u20$core..error..Error$u2b$core..marker..Send$u2b$core..marker..Sync$GT$$GT$..from..StringError$u20$as$u20$core..fmt..Debug$GT$3fmt17h7eb09ef1d7b4a98aE', symObjAddr: 0x902A8, symBinAddr: 0x8BE18, symSize: 0x14 }
  - { offset: 0x63852E, size: 0x8, addend: 0x0, symName: '__ZN254_$LT$alloc..boxed..convert..$LT$impl$u20$core..convert..From$LT$alloc..string..String$GT$$u20$for$u20$alloc..boxed..Box$LT$dyn$u20$core..error..Error$u2b$core..marker..Send$u2b$core..marker..Sync$GT$$GT$..from..StringError$u20$as$u20$core..fmt..Debug$GT$3fmt17h7eb09ef1d7b4a98aE', symObjAddr: 0x902A8, symBinAddr: 0x8BE18, symSize: 0x14 }
  - { offset: 0x638543, size: 0x8, addend: 0x0, symName: '__ZN254_$LT$alloc..boxed..convert..$LT$impl$u20$core..convert..From$LT$alloc..string..String$GT$$u20$for$u20$alloc..boxed..Box$LT$dyn$u20$core..error..Error$u2b$core..marker..Send$u2b$core..marker..Sync$GT$$GT$..from..StringError$u20$as$u20$core..fmt..Debug$GT$3fmt17h7eb09ef1d7b4a98aE', symObjAddr: 0x902A8, symBinAddr: 0x8BE18, symSize: 0x14 }
  - { offset: 0x638558, size: 0x8, addend: 0x0, symName: '__ZN254_$LT$alloc..boxed..convert..$LT$impl$u20$core..convert..From$LT$alloc..string..String$GT$$u20$for$u20$alloc..boxed..Box$LT$dyn$u20$core..error..Error$u2b$core..marker..Send$u2b$core..marker..Sync$GT$$GT$..from..StringError$u20$as$u20$core..fmt..Debug$GT$3fmt17h7eb09ef1d7b4a98aE', symObjAddr: 0x902A8, symBinAddr: 0x8BE18, symSize: 0x14 }
  - { offset: 0x638578, size: 0x8, addend: 0x0, symName: '__ZN256_$LT$alloc..boxed..convert..$LT$impl$u20$core..convert..From$LT$alloc..string..String$GT$$u20$for$u20$alloc..boxed..Box$LT$dyn$u20$core..error..Error$u2b$core..marker..Send$u2b$core..marker..Sync$GT$$GT$..from..StringError$u20$as$u20$core..fmt..Display$GT$3fmt17h928d43bde7b021acE', symObjAddr: 0x902BC, symBinAddr: 0x8BE2C, symSize: 0x10 }
  - { offset: 0x638698, size: 0x8, addend: 0x0, symName: __ZN5alloc3ffi5c_str7CString19_from_vec_unchecked17h9d0bd2078034b7bdE, symObjAddr: 0x90610, symBinAddr: 0x8C060, symSize: 0xDC }
  - { offset: 0x6389DE, size: 0x8, addend: 0x0, symName: '__ZN81_$LT$$RF$$u5b$u8$u5d$$u20$as$u20$alloc..ffi..c_str..CString..new..SpecNewImpl$GT$13spec_new_impl17h29fb88c6ef539f3eE', symObjAddr: 0x91DC8, symBinAddr: 0x8D748, symSize: 0x138 }
  - { offset: 0x638CF6, size: 0x8, addend: 0x0, symName: '__ZN5alloc3str21_$LT$impl$u20$str$GT$12to_lowercase17h5fb7aebff6ad1647E', symObjAddr: 0x90A28, symBinAddr: 0x8C478, symSize: 0xB28 }
  - { offset: 0x639D95, size: 0x8, addend: 0x0, symName: '__ZN5alloc3str21_$LT$impl$u20$str$GT$12to_uppercase17h6ffab2b421e01f13E', symObjAddr: 0x91550, symBinAddr: 0x8CFA0, symSize: 0x73C }
  - { offset: 0x63AAF7, size: 0x8, addend: 0x0, symName: '__ZN69_$LT$core..alloc..layout..LayoutError$u20$as$u20$core..fmt..Debug$GT$3fmt17hc913e1f93d2039acE', symObjAddr: 0x902CC, symBinAddr: 0x8BE3C, symSize: 0x18 }
  - { offset: 0x63ABE1, size: 0x8, addend: 0x0, symName: __ZN4core3fmt5Write9write_fmt17hdad91537415c094dE, symObjAddr: 0x90A14, symBinAddr: 0x8C464, symSize: 0x14 }
  - { offset: 0x63B1B4, size: 0x8, addend: 0x0, symName: _OUTLINED_FUNCTION_30, symObjAddr: 0x149F30, symBinAddr: 0x136AD4, symSize: 0x8 }
  - { offset: 0x35FD21, size: 0x8, addend: 0x0, symName: __ZN4pyo33err5PyErr4take17h338b47d53f41d3c8E, symObjAddr: 0x9EDF8, symBinAddr: 0x99F10, symSize: 0x130 }
  - { offset: 0x360719, size: 0x8, addend: 0x0, symName: __ZN4pyo33err9err_state10raise_lazy17heb33ed0761772ef1E, symObjAddr: 0x9F638, symBinAddr: 0x9A224, symSize: 0x148 }
  - { offset: 0x360C83, size: 0x8, addend: 0x0, symName: '__ZN4pyo33err10cast_error106_$LT$impl$u20$core..convert..From$LT$pyo3..err..cast_error..CastError$GT$$u20$for$u20$pyo3..err..PyErr$GT$4from17h34c64ea6bfa0240eE', symObjAddr: 0xA1874, symBinAddr: 0x9BCBC, symSize: 0xA0 }
  - { offset: 0x360F77, size: 0x8, addend: 0x0, symName: '__ZN78_$LT$pyo3..err..cast_error..DisplayCastError$u20$as$u20$core..fmt..Display$GT$3fmt17hfab257639a0be7b0E', symObjAddr: 0xA1BBC, symBinAddr: 0x9C004, symSize: 0x264 }
  - { offset: 0x361713, size: 0x8, addend: 0x0, symName: '__ZN78_$LT$pyo3..err..cast_error..DisplayClassInfo$u20$as$u20$core..fmt..Display$GT$3fmt17h6223d296f375490dE', symObjAddr: 0xA1E20, symBinAddr: 0x9C268, symSize: 0x538 }
  - { offset: 0x362899, size: 0x8, addend: 0x0, symName: '__ZN4pyo33err10cast_error110_$LT$impl$u20$core..convert..From$LT$pyo3..err..cast_error..CastIntoError$GT$$u20$for$u20$pyo3..err..PyErr$GT$4from17h0254c2fa3d686ca8E', symObjAddr: 0xA3108, symBinAddr: 0x9D44C, symSize: 0xE0 }
  - { offset: 0x362C57, size: 0x8, addend: 0x0, symName: __ZN4pyo33err15failed_to_fetch17ha8418bb1bf975326E, symObjAddr: 0x9EF90, symBinAddr: 0x13C358, symSize: 0x6C }
  - { offset: 0x36309A, size: 0x8, addend: 0x0, symName: '__ZN53_$LT$pyo3..err..PyErr$u20$as$u20$core..fmt..Debug$GT$3fmt17h6ba0c172c0afb8e7E', symObjAddr: 0xA05BC, symBinAddr: 0x9AD74, symSize: 0xA60 }
  - { offset: 0x364F41, size: 0x8, addend: 0x0, symName: '__ZN55_$LT$pyo3..err..PyErr$u20$as$u20$core..fmt..Display$GT$3fmt17h6169ac149cab6831E', symObjAddr: 0xA3CAC, symBinAddr: 0x9DFF0, symSize: 0x46C }
  - { offset: 0x365E93, size: 0x8, addend: 0x0, symName: '__ZN103_$LT$pyo3..instance..Bound$LT$pyo3..types..any..PyAny$GT$$u20$as$u20$pyo3..types..any..PyAnyMethods$GT$7getattr5inner17hb12479d508594839E', symObjAddr: 0xA2DD8, symBinAddr: 0x9D11C, symSize: 0x98 }
  - { offset: 0x366287, size: 0x8, addend: 0x0, symName: '__ZN103_$LT$pyo3..instance..Bound$LT$pyo3..types..any..PyAny$GT$$u20$as$u20$pyo3..types..any..PyAnyMethods$GT$3str17h4c2e9bb4017ac1b6E', symObjAddr: 0xA2CCC, symBinAddr: 0x9D010, symSize: 0x94 }
  - { offset: 0x366353, size: 0x8, addend: 0x0, symName: '__ZN103_$LT$pyo3..instance..Bound$LT$pyo3..types..any..PyAny$GT$$u20$as$u20$pyo3..types..any..PyAnyMethods$GT$7setattr5inner17h6d611393e73fed27E', symObjAddr: 0xA2FBC, symBinAddr: 0x9D300, symSize: 0xA4 }
  - { offset: 0x366407, size: 0x8, addend: 0x0, symName: '__ZN103_$LT$pyo3..instance..Bound$LT$pyo3..types..any..PyAny$GT$$u20$as$u20$pyo3..types..any..PyAnyMethods$GT$9is_truthy17hadb6ccce814c21fbE', symObjAddr: 0xA3060, symBinAddr: 0x9D3A4, symSize: 0xA8 }
  - { offset: 0x36661B, size: 0x8, addend: 0x0, symName: __MergedGlobals, symObjAddr: 0x1D64E0, symBinAddr: 0x204EC8, symSize: 0x0 }
  - { offset: 0x366638, size: 0x8, addend: 0x0, symName: __MergedGlobals, symObjAddr: 0x1D64E0, symBinAddr: 0x204EC8, symSize: 0x0 }
  - { offset: 0x366655, size: 0x8, addend: 0x0, symName: __MergedGlobals, symObjAddr: 0x1D64E0, symBinAddr: 0x204EC8, symSize: 0x0 }
  - { offset: 0x366934, size: 0x8, addend: 0x0, symName: __ZN4pyo35types6module7__all__8INTERNED17h57a1fc6edb173641E, symObjAddr: 0x1D5B38, symBinAddr: 0x204520, symSize: 0x0 }
  - { offset: 0x366954, size: 0x8, addend: 0x0, symName: __ZN4pyo35types6module8__name__8INTERNED17haf0668502d6a7168E, symObjAddr: 0x1D5B58, symBinAddr: 0x204540, symSize: 0x0 }
  - { offset: 0x366A45, size: 0x8, addend: 0x0, symName: '__ZN115_$LT$pyo3..instance..Bound$LT$pyo3..types..module..PyModule$GT$$u20$as$u20$pyo3..types..module..PyModuleMethods$GT$3add5inner17h8366a7d84ceab51aE', symObjAddr: 0xA31E8, symBinAddr: 0x9D52C, symSize: 0x430 }
  - { offset: 0x36737D, size: 0x8, addend: 0x0, symName: '__ZN115_$LT$pyo3..instance..Bound$LT$pyo3..types..module..PyModule$GT$$u20$as$u20$pyo3..types..module..PyModuleMethods$GT$12add_function17h03c0a71235f85ae3E', symObjAddr: 0xA3618, symBinAddr: 0x9D95C, symSize: 0x214 }
  - { offset: 0x367ABE, size: 0x8, addend: 0x0, symName: '__ZN83_$LT$pyo3..types..sequence..PySequence$u20$as$u20$pyo3..type_object..PyTypeInfo$GT$15type_object_raw4TYPE17h4497aa74c7b264f8E', symObjAddr: 0x1755310, symBinAddr: 0x2054E0, symSize: 0x0 }
  - { offset: 0x367C2E, size: 0x8, addend: 0x0, symName: '__ZN4pyo35types5float64_$LT$impl$u20$pyo3..conversion..FromPyObject$u20$for$u20$f64$GT$7extract17h3bc558ba4ab086e4E', symObjAddr: 0xA87AC, symBinAddr: 0xA0E44, symSize: 0xF8 }
  - { offset: 0x368436, size: 0x8, addend: 0x0, symName: '__ZN4pyo35types10boolobject65_$LT$impl$u20$pyo3..conversion..FromPyObject$u20$for$u20$bool$GT$7extract17h1bcf51a0a44b668cE', symObjAddr: 0xA8164, symBinAddr: 0xA07FC, symSize: 0x57C }
  - { offset: 0x3698C2, size: 0x8, addend: 0x0, symName: __ZN4pyo34sync9once_lock26init_once_cell_py_attached17h436431c5ef40c79dE, symObjAddr: 0x9F7CC, symBinAddr: 0x13C81C, symSize: 0xA0 }
  - { offset: 0x369CB0, size: 0x8, addend: 0x0, symName: __ZN4pyo34sync9once_lock26init_once_cell_py_attached17hfc97e206e92fcc3bE, symObjAddr: 0xA17D4, symBinAddr: 0x13CF20, symSize: 0xA0 }
  - { offset: 0x36B4B7, size: 0x8, addend: 0x0, symName: __ZN4pyo38instance13panic_on_null17hac4b5f12c9790566E, symObjAddr: 0x9EF28, symBinAddr: 0x13C2F0, symSize: 0x68 }
  - { offset: 0x36B555, size: 0x8, addend: 0x0, symName: '__ZN69_$LT$pyo3..instance..Py$LT$T$GT$$u20$as$u20$core..ops..drop..Drop$GT$4drop9drop_slow17hfaff4e391d753ff3E', symObjAddr: 0x9F074, symBinAddr: 0x13C3C4, symSize: 0x174 }
  - { offset: 0x36BDB2, size: 0x8, addend: 0x0, symName: __ZN4pyo38instance13python_format17h83aeaacc551df589E, symObjAddr: 0xA1590, symBinAddr: 0x9BA78, symSize: 0x244 }
  - { offset: 0x36C4F2, size: 0x8, addend: 0x0, symName: '__ZN69_$LT$pyo3..instance..Bound$LT$T$GT$$u20$as$u20$core..fmt..Display$GT$3fmt17h88b0b1894d8d7907E', symObjAddr: 0xA86E0, symBinAddr: 0xA0D78, symSize: 0xA8 }
  - { offset: 0x36C656, size: 0x8, addend: 0x0, symName: '__ZN67_$LT$pyo3..instance..Bound$LT$T$GT$$u20$as$u20$core..fmt..Debug$GT$3fmt17h008fea48f8b3c888E', symObjAddr: 0xA2580, symBinAddr: 0x9C91C, symSize: 0xA8 }
  - { offset: 0x36C9A1, size: 0x8, addend: 0x0, symName: '__ZN66_$LT$pyo3..instance..Py$LT$T$GT$$u20$as$u20$core..clone..Clone$GT$5clone13incref_failed17h957da206c4cddbdbE', symObjAddr: 0xAC304, symBinAddr: 0x14140C, symSize: 0x1C }
  - { offset: 0x36CED0, size: 0x8, addend: 0x0, symName: __ZN4pyo37pyclass18create_type_object18create_type_object5inner17h9e274df7b0c030ffE, symObjAddr: 0xA8B94, symBinAddr: 0x13ED70, symSize: 0x2024 }
  - { offset: 0x375F57, size: 0x8, addend: 0x0, symName: __ZN4pyo37pyclass18create_type_object16call_super_clear17hde8423d3be86186bE, symObjAddr: 0xAB564, symBinAddr: 0xA1560, symSize: 0x2B8 }
  - { offset: 0x376B9F, size: 0x8, addend: 0x0, symName: __ZN4pyo37pyclass18create_type_object13GetSetDefType21create_py_get_set_def13getset_getter17h4fc7b8c98276025eE, symObjAddr: 0xAB81C, symBinAddr: 0xA1818, symSize: 0x164 }
  - { offset: 0x3772D9, size: 0x8, addend: 0x0, symName: __ZN4pyo37pyclass18create_type_object13GetSetDefType21create_py_get_set_def13getset_setter17h0a6ba4257340eb93E, symObjAddr: 0xAB980, symBinAddr: 0xA197C, symSize: 0x214 }
  - { offset: 0x377CF3, size: 0x8, addend: 0x0, symName: __ZN4pyo37pyclass18create_type_object13GetSetDefType21create_py_get_set_def6setter17h41f5625d43839b9aE, symObjAddr: 0xABB94, symBinAddr: 0xA1B90, symSize: 0x1DC }
  - { offset: 0x3784EC, size: 0x8, addend: 0x0, symName: __ZN4pyo37pyclass18create_type_object13GetSetDefType21create_py_get_set_def6getter17h6d4a59b5d3d2d6bcE, symObjAddr: 0xABD70, symBinAddr: 0xA1D6C, symSize: 0x160 }
  - { offset: 0x379170, size: 0x8, addend: 0x0, symName: '__ZN4pyo38internal5state12ATTACH_COUNT29_$u7b$$u7b$constant$u7d$$u7d$28_$u7b$$u7b$closure$u7d$$u7d$23__RUST_STD_INTERNAL_VAL17hc053d6b5342b4977E', symObjAddr: 0x1D59B8, symBinAddr: 0x2052C0, symSize: 0x0 }
  - { offset: 0x3791B4, size: 0x8, addend: 0x0, symName: __MergedGlobals, symObjAddr: 0x1D64E0, symBinAddr: 0x204EC8, symSize: 0x0 }
  - { offset: 0x3793AE, size: 0x8, addend: 0x0, symName: '__ZN78_$LT$pyo3..internal..state..SuspendAttach$u20$as$u20$core..ops..drop..Drop$GT$4drop17h41b1e155a569f143E', symObjAddr: 0xAC368, symBinAddr: 0xA2318, symSize: 0x48 }
  - { offset: 0x37979A, size: 0x8, addend: 0x0, symName: __MergedGlobals, symObjAddr: 0x1D64E0, symBinAddr: 0x204EC8, symSize: 0x0 }
  - { offset: 0x3797B4, size: 0x8, addend: 0x0, symName: __ZN4pyo321interpreter_lifecycle18ensure_initialized17he91634247289ef49E, symObjAddr: 0xA1110, symBinAddr: 0x9B8C8, symSize: 0x60 }
  - { offset: 0x3797E6, size: 0x8, addend: 0x0, symName: __ZN4pyo321interpreter_lifecycle18ensure_initialized17he91634247289ef49E, symObjAddr: 0xA1110, symBinAddr: 0x9B8C8, symSize: 0x60 }
  - { offset: 0x379803, size: 0x8, addend: 0x0, symName: __ZN4pyo321interpreter_lifecycle18ensure_initialized17he91634247289ef49E, symObjAddr: 0xA1110, symBinAddr: 0x9B8C8, symSize: 0x60 }
  - { offset: 0x379826, size: 0x8, addend: 0x0, symName: __ZN4pyo321interpreter_lifecycle18ensure_initialized17he91634247289ef49E, symObjAddr: 0xA1110, symBinAddr: 0x9B8C8, symSize: 0x60 }
  - { offset: 0x3798E1, size: 0x8, addend: 0x0, symName: '__ZN128_$LT$pyo3..impl_..pyclass_init..PyNativeTypeInitializer$LT$T$GT$$u20$as$u20$pyo3..impl_..pyclass_init..PyObjectInit$LT$T$GT$$GT$15into_new_object5inner17h1b2191b2a6e5e6fcE', symObjAddr: 0xA382C, symBinAddr: 0x9DB70, symSize: 0x154 }
  - { offset: 0x379CA2, size: 0x8, addend: 0x0, symName: '__ZN135_$LT$pyo3..impl_..pyclass..lazy_type_object..LazyTypeObjectInner..ensure_init..InitializationGuard$u20$as$u20$core..ops..drop..Drop$GT$4drop17h4b31a5a443a84210E', symObjAddr: 0xA3980, symBinAddr: 0x9DCC4, symSize: 0x160 }
  - { offset: 0x37A4C8, size: 0x8, addend: 0x0, symName: __ZN4pyo35impl_7pyclass16lazy_type_object21wrap_in_runtime_error17hfcb5eca91ed6d87eE, symObjAddr: 0xA7398, symBinAddr: 0x13E9B0, symSize: 0x108 }
  - { offset: 0x37A861, size: 0x8, addend: 0x0, symName: __ZN4pyo35impl_7pyclass16lazy_type_object23type_object_init_failed17ha89248f5d9b9a3bbE, symObjAddr: 0xA7A0C, symBinAddr: 0x13EAB8, symSize: 0x60 }
  - { offset: 0x37AA4D, size: 0x8, addend: 0x0, symName: __ZN4pyo35impl_7pyclass30get_sequence_item_from_mapping17h57031a3c3dee800fE, symObjAddr: 0xAB480, symBinAddr: 0xA147C, symSize: 0x5C }
  - { offset: 0x37AAFE, size: 0x8, addend: 0x0, symName: __ZN4pyo35impl_7pyclass33assign_sequence_item_from_mapping17hd07281eba6ddc51eE, symObjAddr: 0xAB4DC, symBinAddr: 0xA14D8, symSize: 0x88 }
  - { offset: 0x37AC86, size: 0x8, addend: 0x0, symName: '__ZN196_$LT$$RF$pyo3..instance..Bound$LT$pyo3..types..module..PyModule$GT$$u20$as$u20$pyo3..impl_..pyfunction..WrapPyFunctionArg$LT$pyo3..instance..Bound$LT$pyo3..types..function..PyCFunction$GT$$GT$$GT$15wrap_pyfunction17h4f7e34660a2f9730E', symObjAddr: 0xA3B2C, symBinAddr: 0x9DE70, symSize: 0x180 }
  - { offset: 0x37B0FF, size: 0x8, addend: 0x0, symName: __ZN4pyo35impl_16extract_argument19push_parameter_list17h0416cb618a9f5a60E, symObjAddr: 0xA5634, symBinAddr: 0x9F270, symSize: 0x314 }
  - { offset: 0x37BE09, size: 0x8, addend: 0x0, symName: __ZN4pyo35impl_16extract_argument25argument_extraction_error17h4bcb892d5f7a6b01E, symObjAddr: 0xA6140, symBinAddr: 0x13DFC4, symSize: 0x438 }
  - { offset: 0x37D10B, size: 0x8, addend: 0x0, symName: '__ZN71_$LT$pyo3..impl_..panic..PanicTrap$u20$as$u20$core..ops..drop..Drop$GT$4drop17hca4d2cbfeef25117E', symObjAddr: 0xAC338, symBinAddr: 0x141428, symSize: 0x30 }
  - { offset: 0x37D71B, size: 0x8, addend: 0x0, symName: '__ZN4pyo311conversions3std3num64_$LT$impl$u20$pyo3..conversion..FromPyObject$u20$for$u20$i64$GT$7extract17hbe0c7858148b42ffE', symObjAddr: 0xA46F8, symBinAddr: 0x9E944, symSize: 0x7C }
  - { offset: 0x37D898, size: 0x8, addend: 0x0, symName: '__ZN4pyo311conversions3std6string82_$LT$impl$u20$pyo3..conversion..IntoPyObject$u20$for$u20$alloc..string..String$GT$13into_pyobject17h522447779e9a7be3E', symObjAddr: 0xA4A98, symBinAddr: 0x9ECE4, symSize: 0x70 }
  - { offset: 0x37DD6F, size: 0x8, addend: 0x0, symName: '__ZN4pyo311conversions3std6string68_$LT$impl$u20$pyo3..conversion..FromPyObject$u20$for$u20$$RF$str$GT$7extract17h344161df752198efE', symObjAddr: 0xA4774, symBinAddr: 0x9E9C0, symSize: 0x170 }
  - { offset: 0x37E143, size: 0x8, addend: 0x0, symName: '__ZN4pyo311conversions3std6string82_$LT$impl$u20$pyo3..conversion..FromPyObject$u20$for$u20$alloc..string..String$GT$7extract17h929161290789fda5E', symObjAddr: 0xA48E4, symBinAddr: 0x9EB30, symSize: 0x1B4 }
  - { offset: 0x37E92E, size: 0x8, addend: 0x0, symName: '__ZN77_$LT$pyo3..panic..PanicException$u20$as$u20$pyo3..type_object..PyTypeInfo$GT$15type_object_raw11TYPE_OBJECT17h6ffc68a5820afde6E', symObjAddr: 0x1755300, symBinAddr: 0x2054D0, symSize: 0x0 }
  - { offset: 0x37F519, size: 0x8, addend: 0x0, symName: __ZN4pyo36pycell5impl_10tp_dealloc17h8bd7899fbf01a6d5E, symObjAddr: 0xA8AE8, symBinAddr: 0xA1180, symSize: 0xAC }
  - { offset: 0x37F83E, size: 0x8, addend: 0x0, symName: '__ZN4pyo36pycell101_$LT$impl$u20$core..convert..From$LT$pyo3..pycell..PyBorrowError$GT$$u20$for$u20$pyo3..err..PyErr$GT$4from17h55d133c198e045f2E', symObjAddr: 0xA88C8, symBinAddr: 0xA0F60, symSize: 0x110 }
  - { offset: 0x37FC44, size: 0x8, addend: 0x0, symName: '__ZN4pyo36pycell104_$LT$impl$u20$core..convert..From$LT$pyo3..pycell..PyBorrowMutError$GT$$u20$for$u20$pyo3..err..PyErr$GT$4from17h2abc3e629e97fa7aE', symObjAddr: 0xA89D8, symBinAddr: 0xA1070, symSize: 0x110 }
  - { offset: 0x380019, size: 0x8, addend: 0x0, symName: '__ZN64_$LT$pyo3..pycell..PyBorrowError$u20$as$u20$core..fmt..Debug$GT$3fmt17hb4dcd8a8cd554bb4E', symObjAddr: 0xAC2EC, symBinAddr: 0xA22E8, symSize: 0x18 }
  - { offset: 0x380057, size: 0x8, addend: 0x0, symName: '__ZN64_$LT$pyo3..pycell..PyBorrowError$u20$as$u20$core..fmt..Debug$GT$3fmt17hb4dcd8a8cd554bb4E', symObjAddr: 0xAC2EC, symBinAddr: 0xA22E8, symSize: 0x18 }
  - { offset: 0x38006C, size: 0x8, addend: 0x0, symName: '__ZN64_$LT$pyo3..pycell..PyBorrowError$u20$as$u20$core..fmt..Debug$GT$3fmt17hb4dcd8a8cd554bb4E', symObjAddr: 0xAC2EC, symBinAddr: 0xA22E8, symSize: 0x18 }
  - { offset: 0x380081, size: 0x8, addend: 0x0, symName: '__ZN64_$LT$pyo3..pycell..PyBorrowError$u20$as$u20$core..fmt..Debug$GT$3fmt17hb4dcd8a8cd554bb4E', symObjAddr: 0xAC2EC, symBinAddr: 0xA22E8, symSize: 0x18 }
  - { offset: 0x38009B, size: 0x8, addend: 0x0, symName: '__ZN67_$LT$pyo3..pycell..PyBorrowMutError$u20$as$u20$core..fmt..Debug$GT$3fmt17h9fd85256a86a8cafE', symObjAddr: 0xAC320, symBinAddr: 0xA2300, symSize: 0x18 }
  - { offset: 0x3800D9, size: 0x8, addend: 0x0, symName: '__ZN67_$LT$pyo3..pycell..PyBorrowMutError$u20$as$u20$core..fmt..Debug$GT$3fmt17h9fd85256a86a8cafE', symObjAddr: 0xAC320, symBinAddr: 0xA2300, symSize: 0x18 }
  - { offset: 0x3800EE, size: 0x8, addend: 0x0, symName: '__ZN67_$LT$pyo3..pycell..PyBorrowMutError$u20$as$u20$core..fmt..Debug$GT$3fmt17h9fd85256a86a8cafE', symObjAddr: 0xAC320, symBinAddr: 0xA2300, symSize: 0x18 }
  - { offset: 0x380103, size: 0x8, addend: 0x0, symName: '__ZN67_$LT$pyo3..pycell..PyBorrowMutError$u20$as$u20$core..fmt..Debug$GT$3fmt17h9fd85256a86a8cafE', symObjAddr: 0xAC320, symBinAddr: 0xA2300, symSize: 0x18 }
  - { offset: 0x382B6C, size: 0x8, addend: 0x0, symName: '__ZN66_$LT$core..option..Option$LT$T$GT$$u20$as$u20$core..fmt..Debug$GT$3fmt17h1d8945e75baf7bf2E', symObjAddr: 0xA1440, symBinAddr: 0x9B928, symSize: 0x150 }
  - { offset: 0x3847A6, size: 0x8, addend: 0x0, symName: '__ZN4core3ptr150drop_in_place$LT$std..sync..poison..mutex..MutexGuard$LT$alloc..vec..Vec$LT$core..ptr..non_null..NonNull$LT$pyo3_ffi..object..PyObject$GT$$GT$$GT$$GT$17h071c9dd648bee130E', symObjAddr: 0x9F384, symBinAddr: 0x9A0B8, symSize: 0x4C }
  - { offset: 0x3847C2, size: 0x8, addend: 0x0, symName: '__ZN4core3ptr150drop_in_place$LT$std..sync..poison..mutex..MutexGuard$LT$alloc..vec..Vec$LT$core..ptr..non_null..NonNull$LT$pyo3_ffi..object..PyObject$GT$$GT$$GT$$GT$17h071c9dd648bee130E', symObjAddr: 0x9F384, symBinAddr: 0x9A0B8, symSize: 0x4C }
  - { offset: 0x384941, size: 0x8, addend: 0x0, symName: '__ZN4core3ptr113drop_in_place$LT$std..sync..poison..mutex..Mutex$LT$core..option..Option$LT$std..thread..id..ThreadId$GT$$GT$$GT$17h60f6ee60432afe6fE', symObjAddr: 0x9F780, symBinAddr: 0x9A36C, symSize: 0x4C }
  - { offset: 0x384C51, size: 0x8, addend: 0x0, symName: '__ZN4core3ptr53drop_in_place$LT$pyo3..err..err_state..PyErrState$GT$17h9cef16876f3f56a6E', symObjAddr: 0x9F86C, symBinAddr: 0x9A3B8, symSize: 0x118 }
  - { offset: 0x3854F6, size: 0x8, addend: 0x0, symName: '__ZN4core3ptr42drop_in_place$LT$alloc..string..String$GT$17h301676b4239f6074E', symObjAddr: 0x9FE54, symBinAddr: 0x9A6C0, symSize: 0x14 }
  - { offset: 0x385516, size: 0x8, addend: 0x0, symName: '__ZN4core3ptr42drop_in_place$LT$alloc..string..String$GT$17h301676b4239f6074E', symObjAddr: 0x9FE54, symBinAddr: 0x9A6C0, symSize: 0x14 }
  - { offset: 0x385661, size: 0x8, addend: 0x0, symName: '__ZN4core3ptr58drop_in_place$LT$pyo3..err..err_state..PyErrStateInner$GT$17hdd45849a9620072eE', symObjAddr: 0x9FE7C, symBinAddr: 0x9A6E8, symSize: 0xCC }
  - { offset: 0x385A77, size: 0x8, addend: 0x0, symName: '__ZN4core3ptr457drop_in_place$LT$core..option..Option$LT$once_cell..sync..OnceCell$LT$pyo3..instance..Py$LT$pyo3..types..typeobject..PyType$GT$$GT$..get_or_init$LT$pyo3..sync..once_lock..init_once_cell_py_attached$LT$$LT$pyo3..panic..PanicException$u20$as$u20$pyo3..type_object..PyTypeInfo$GT$..type_object_raw..$u7b$$u7b$closure$u7d$$u7d$$C$pyo3..instance..Py$LT$pyo3..types..typeobject..PyType$GT$$GT$..$u7b$$u7b$closure$u7d$$u7d$$GT$..$u7b$$u7b$closure$u7d$$u7d$$GT$$GT$17h2a7cbdd179ab9596E', symObjAddr: 0xA0218, symBinAddr: 0x9A9D0, symSize: 0x4C }
  - { offset: 0x385CDC, size: 0x8, addend: 0x0, symName: '__ZN4core3ptr37drop_in_place$LT$pyo3..err..PyErr$GT$17hed0bcce3907321d8E', symObjAddr: 0xA05B8, symBinAddr: 0x9AD70, symSize: 0x4 }
  - { offset: 0x385E8B, size: 0x8, addend: 0x0, symName: '__ZN4core3ptr62drop_in_place$LT$pyo3..err..cast_error..CastErrorArguments$GT$17he5f37f4f08ec983aE', symObjAddr: 0xA1988, symBinAddr: 0x9BDD0, symSize: 0xC0 }
  - { offset: 0x386079, size: 0x8, addend: 0x0, symName: '__ZN4core3ptr152drop_in_place$LT$pyo3..err..PyErr..new$LT$pyo3..exceptions..PyTypeError$C$pyo3..err..cast_error..CastErrorArguments$GT$..$u7b$$u7b$closure$u7d$$u7d$$GT$17h41354a5c8643672cE', symObjAddr: 0xA1A48, symBinAddr: 0x9BE90, symSize: 0xC }
  - { offset: 0x386165, size: 0x8, addend: 0x0, symName: '__ZN4core3ptr144drop_in_place$LT$core..result..Result$LT$$RF$pyo3..instance..Bound$LT$pyo3..types..tuple..PyTuple$GT$$C$pyo3..err..cast_error..CastError$GT$$GT$17h0038cccbeeac7817E', symObjAddr: 0xA2358, symBinAddr: 0x9C7A0, symSize: 0x24 }
  - { offset: 0x3861FB, size: 0x8, addend: 0x0, symName: '__ZN4core3ptr385drop_in_place$LT$core..option..Option$LT$once_cell..sync..OnceCell$LT$pyo3..instance..Py$LT$pyo3..types..string..PyString$GT$$GT$..get_or_init$LT$pyo3..sync..once_lock..init_once_cell_py_attached$LT$pyo3..sync..Interned..get..$u7b$$u7b$closure$u7d$$u7d$$C$pyo3..instance..Py$LT$pyo3..types..string..PyString$GT$$GT$..$u7b$$u7b$closure$u7d$$u7d$$GT$..$u7b$$u7b$closure$u7d$$u7d$$GT$$GT$17h99b8a313d4c55aa9E', symObjAddr: 0xA2428, symBinAddr: 0x9C7C4, symSize: 0x4C }
  - { offset: 0x386441, size: 0x8, addend: 0x0, symName: '__ZN4core3ptr57drop_in_place$LT$pyo3..internal..state..SuspendAttach$GT$17h28bb65ff4dfc4f1aE', symObjAddr: 0xA2628, symBinAddr: 0x9C9C4, symSize: 0x48 }
  - { offset: 0x38661B, size: 0x8, addend: 0x0, symName: '__ZN4core3ptr118drop_in_place$LT$std..sync..poison..mutex..MutexGuard$LT$core..option..Option$LT$std..thread..id..ThreadId$GT$$GT$$GT$17h05a32dcaf1801b4fE', symObjAddr: 0xA2670, symBinAddr: 0x9CA0C, symSize: 0x54 }
  - { offset: 0x386637, size: 0x8, addend: 0x0, symName: '__ZN4core3ptr118drop_in_place$LT$std..sync..poison..mutex..MutexGuard$LT$core..option..Option$LT$std..thread..id..ThreadId$GT$$GT$$GT$17h05a32dcaf1801b4fE', symObjAddr: 0xA2670, symBinAddr: 0x9CA0C, symSize: 0x54 }
  - { offset: 0x386798, size: 0x8, addend: 0x0, symName: '__ZN4core3ptr120drop_in_place$LT$core..result..Result$LT$pyo3..instance..Bound$LT$pyo3..types..any..PyAny$GT$$C$pyo3..err..PyErr$GT$$GT$17h56560d2e8985d06fE', symObjAddr: 0xA2F90, symBinAddr: 0x9D2D4, symSize: 0x2C }
  - { offset: 0x3868BB, size: 0x8, addend: 0x0, symName: '__ZN4core3ptr151drop_in_place$LT$std..sync..poison..PoisonError$LT$std..sync..poison..mutex..MutexGuard$LT$alloc..vec..Vec$LT$std..thread..id..ThreadId$GT$$GT$$GT$$GT$17h2b556bfcc0d97106E', symObjAddr: 0xA3AE0, symBinAddr: 0x9DE24, symSize: 0x4C }
  - { offset: 0x386AF9, size: 0x8, addend: 0x0, symName: '__ZN4core3ptr155drop_in_place$LT$pyo3..err..err_state..PyErrState..lazy_arguments$LT$pyo3..instance..Py$LT$pyo3..types..any..PyAny$GT$$GT$..$u7b$$u7b$closure$u7d$$u7d$$GT$17h070832b9fae93d4eE', symObjAddr: 0xA4B08, symBinAddr: 0x9ED54, symSize: 0xBC }
  - { offset: 0x386D29, size: 0x8, addend: 0x0, symName: '__ZN4core3ptr139drop_in_place$LT$pyo3..err..PyErr..new$LT$pyo3..exceptions..PyValueError$C$alloc..ffi..c_str..NulError$GT$..$u7b$$u7b$closure$u7d$$u7d$$GT$17h8fc3aa619b1f1f8eE', symObjAddr: 0xA4E18, symBinAddr: 0x9F064, symSize: 0x14 }
  - { offset: 0x386E91, size: 0x8, addend: 0x0, symName: '__ZN4core3ptr132drop_in_place$LT$pyo3..err..PyErr..new$LT$pyo3..exceptions..PyTypeError$C$alloc..string..String$GT$..$u7b$$u7b$closure$u7d$$u7d$$GT$17h0c0c9104801d3fa4E', symObjAddr: 0xA4F74, symBinAddr: 0x9F1C0, symSize: 0x14 }
  - { offset: 0x386EB1, size: 0x8, addend: 0x0, symName: '__ZN4core3ptr132drop_in_place$LT$pyo3..err..PyErr..new$LT$pyo3..exceptions..PyTypeError$C$alloc..string..String$GT$..$u7b$$u7b$closure$u7d$$u7d$$GT$17h0c0c9104801d3fa4E', symObjAddr: 0xA4F74, symBinAddr: 0x9F1C0, symSize: 0x14 }
  - { offset: 0x386ECF, size: 0x8, addend: 0x0, symName: '__ZN4core3ptr132drop_in_place$LT$pyo3..err..PyErr..new$LT$pyo3..exceptions..PyTypeError$C$alloc..string..String$GT$..$u7b$$u7b$closure$u7d$$u7d$$GT$17h0c0c9104801d3fa4E', symObjAddr: 0xA4F74, symBinAddr: 0x9F1C0, symSize: 0x14 }
  - { offset: 0x38724D, size: 0x8, addend: 0x0, symName: '__ZN4core3ptr113drop_in_place$LT$std..sync..poison..mutex..MutexGuard$LT$alloc..vec..Vec$LT$std..thread..id..ThreadId$GT$$GT$$GT$17h94cee79b47d36440E', symObjAddr: 0xA6D94, symBinAddr: 0x9FC50, symSize: 0x54 }
  - { offset: 0x387269, size: 0x8, addend: 0x0, symName: '__ZN4core3ptr113drop_in_place$LT$std..sync..poison..mutex..MutexGuard$LT$alloc..vec..Vec$LT$std..thread..id..ThreadId$GT$$GT$$GT$17h94cee79b47d36440E', symObjAddr: 0xA6D94, symBinAddr: 0x9FC50, symSize: 0x54 }
  - { offset: 0x387408, size: 0x8, addend: 0x0, symName: '__ZN4core3ptr130drop_in_place$LT$alloc..vec..Vec$LT$$LP$$RF$core..ffi..c_str..CStr$C$pyo3..instance..Py$LT$pyo3..types..any..PyAny$GT$$RP$$GT$$GT$17h7c0ad6e9d4263a8fE', symObjAddr: 0xA6E50, symBinAddr: 0x9FCA4, symSize: 0xF0 }
  - { offset: 0x387819, size: 0x8, addend: 0x0, symName: '__ZN4core3ptr107drop_in_place$LT$$LP$$RF$core..ffi..c_str..CStr$C$pyo3..instance..Py$LT$pyo3..types..any..PyAny$GT$$RP$$GT$17hb26e99b29857ab96E', symObjAddr: 0xA733C, symBinAddr: 0x9FD94, symSize: 0x5C }
  - { offset: 0x387966, size: 0x8, addend: 0x0, symName: '__ZN4core3ptr146drop_in_place$LT$alloc..vec..into_iter..IntoIter$LT$$LP$$RF$core..ffi..c_str..CStr$C$pyo3..instance..Py$LT$pyo3..types..any..PyAny$GT$$RP$$GT$$GT$17h4a9ade049af79a37E', symObjAddr: 0xA7628, symBinAddr: 0x9FF78, symSize: 0x100 }
  - { offset: 0x387E41, size: 0x8, addend: 0x0, symName: '__ZN4core3ptr106drop_in_place$LT$core..option..Option$LT$pyo3..instance..Py$LT$pyo3..types..typeobject..PyType$GT$$GT$$GT$17ha7f43010c13a892fE', symObjAddr: 0xA7728, symBinAddr: 0xA0078, symSize: 0x58 }
  - { offset: 0x387FEB, size: 0x8, addend: 0x0, symName: '__ZN4core3ptr73drop_in_place$LT$pyo3..pyclass..create_type_object..PyClassTypeObject$GT$17h2610663663607f1eE', symObjAddr: 0xA7810, symBinAddr: 0xA0160, symSize: 0xD0 }
  - { offset: 0x3883FB, size: 0x8, addend: 0x0, symName: '__ZN4core3ptr92drop_in_place$LT$alloc..vec..Vec$LT$pyo3..pyclass..create_type_object..GetSetDefType$GT$$GT$17h60c3b9c3ff5e496fE', symObjAddr: 0xA78E0, symBinAddr: 0xA0230, symSize: 0x74 }
  - { offset: 0x388779, size: 0x8, addend: 0x0, symName: '__ZN4core3ptr141drop_in_place$LT$pyo3..err..PyErr..new$LT$pyo3..panic..PanicException$C$$LP$alloc..string..String$C$$RP$$GT$..$u7b$$u7b$closure$u7d$$u7d$$GT$17hfefc0db2c88403dbE', symObjAddr: 0xA7F14, symBinAddr: 0xA05AC, symSize: 0x14 }
  - { offset: 0x388DAA, size: 0x8, addend: 0x0, symName: '__ZN4core3ptr69drop_in_place$LT$pyo3..pyclass..create_type_object..PyTypeBuilder$GT$17hf7a2c64d05bb0185E', symObjAddr: 0xAAC20, symBinAddr: 0xA122C, symSize: 0x80 }
  - { offset: 0x38FBE9, size: 0x8, addend: 0x0, symName: '__ZN42_$LT$$RF$T$u20$as$u20$core..fmt..Debug$GT$3fmt17h4e0fbc8f591fb1e2E', symObjAddr: 0xA4148, symBinAddr: 0x9E45C, symSize: 0x12C }
  - { offset: 0x38FE0A, size: 0x8, addend: 0x0, symName: '__ZN42_$LT$$RF$T$u20$as$u20$core..fmt..Debug$GT$3fmt17hd85730e3a56b8016E', symObjAddr: 0xA4274, symBinAddr: 0x9E588, symSize: 0xFC }
  - { offset: 0x38FF8A, size: 0x8, addend: 0x0, symName: '__ZN42_$LT$$RF$T$u20$as$u20$core..fmt..Debug$GT$3fmt17hacf3a060a7b16282E', symObjAddr: 0xA43AC, symBinAddr: 0x9E684, symSize: 0x10C }
  - { offset: 0x3901D9, size: 0x8, addend: 0x0, symName: __ZN4core3fmt5Write9write_fmt17h5e2b19f7308e5144E, symObjAddr: 0xA4658, symBinAddr: 0x9E930, symSize: 0x14 }
  - { offset: 0x390247, size: 0x8, addend: 0x0, symName: '__ZN44_$LT$$RF$T$u20$as$u20$core..fmt..Display$GT$3fmt17h6742d0860dccb8b7E', symObjAddr: 0xA6578, symBinAddr: 0x9F584, symSize: 0xA8 }
  - { offset: 0x3903EB, size: 0x8, addend: 0x0, symName: '__ZN64_$LT$core..str..error..Utf8Error$u20$as$u20$core..fmt..Debug$GT$3fmt17hdb0e18fcac0e1495E.1535', symObjAddr: 0xA753C, symBinAddr: 0x9FE8C, symSize: 0xEC }
  - { offset: 0x390B5A, size: 0x8, addend: 0x0, symName: __ZN4core9panicking13assert_failed17h5a78992cbb117f1cE, symObjAddr: 0xA4118, symBinAddr: 0x13D0C4, symSize: 0x30 }
  - { offset: 0x390BC7, size: 0x8, addend: 0x0, symName: __ZN4core9panicking13assert_failed17h5b84297874af5ebeE, symObjAddr: 0xA4370, symBinAddr: 0x13D0F4, symSize: 0x3C }
  - { offset: 0x390F3E, size: 0x8, addend: 0x0, symName: '__ZN4core3ops8function6FnOnce40call_once$u7b$$u7b$vtable.shim$u7d$$u7d$17h34c909f96a62ba58E', symObjAddr: 0x9EFFC, symBinAddr: 0x9A040, symSize: 0x78 }
  - { offset: 0x391186, size: 0x8, addend: 0x0, symName: '__ZN4core3ops8function6FnOnce40call_once$u7b$$u7b$vtable.shim$u7d$$u7d$17h782bbb536ddbf126E', symObjAddr: 0x9F518, symBinAddr: 0x9A104, symSize: 0x3C }
  - { offset: 0x3912BA, size: 0x8, addend: 0x0, symName: '__ZN4core3ops8function6FnOnce40call_once$u7b$$u7b$vtable.shim$u7d$$u7d$17h4383b0a0be647989E', symObjAddr: 0x9FF48, symBinAddr: 0x9A7B4, symSize: 0x28 }
  - { offset: 0x3913A0, size: 0x8, addend: 0x0, symName: '__ZN4core3ops8function6FnOnce40call_once$u7b$$u7b$vtable.shim$u7d$$u7d$17hf7de126595086f76E', symObjAddr: 0xA0264, symBinAddr: 0x9AA1C, symSize: 0x18 }
  - { offset: 0x39146E, size: 0x8, addend: 0x0, symName: '__ZN4core3ops8function6FnOnce40call_once$u7b$$u7b$vtable.shim$u7d$$u7d$17h25d2c89e860db46fE', symObjAddr: 0xA1A54, symBinAddr: 0x9BE9C, symSize: 0x168 }
  - { offset: 0x391C8E, size: 0x8, addend: 0x0, symName: '__ZN4core3ops8function6FnOnce40call_once$u7b$$u7b$vtable.shim$u7d$$u7d$17hec720c63634a0be6E', symObjAddr: 0xA2474, symBinAddr: 0x9C810, symSize: 0x18 }
  - { offset: 0x391D41, size: 0x8, addend: 0x0, symName: '__ZN4core3ops8function6FnOnce40call_once$u7b$$u7b$vtable.shim$u7d$$u7d$17hb82c2fe61a192f53E', symObjAddr: 0xA26C4, symBinAddr: 0x9CA60, symSize: 0x28 }
  - { offset: 0x391DCA, size: 0x8, addend: 0x0, symName: '__ZN4core3ops8function6FnOnce40call_once$u7b$$u7b$vtable.shim$u7d$$u7d$17h796348cad750ec5bE', symObjAddr: 0xA2B2C, symBinAddr: 0x9CE70, symSize: 0x6C }
  - { offset: 0x391EB4, size: 0x8, addend: 0x0, symName: '__ZN4core3ops8function6FnOnce40call_once$u7b$$u7b$vtable.shim$u7d$$u7d$17h7fce1c9c8ba7774aE', symObjAddr: 0xA2C04, symBinAddr: 0x9CF48, symSize: 0x64 }
  - { offset: 0x391F71, size: 0x8, addend: 0x0, symName: '__ZN4core3ops8function6FnOnce40call_once$u7b$$u7b$vtable.shim$u7d$$u7d$17hd37c50619bf8fa87E', symObjAddr: 0xA2D60, symBinAddr: 0x9D0A4, symSize: 0x78 }
  - { offset: 0x39223E, size: 0x8, addend: 0x0, symName: '__ZN4core3ops8function6FnOnce40call_once$u7b$$u7b$vtable.shim$u7d$$u7d$17h1d8a49912702bd86E', symObjAddr: 0xA4BC4, symBinAddr: 0x9EE10, symSize: 0xC }
  - { offset: 0x392281, size: 0x8, addend: 0x0, symName: '__ZN4core3ops8function6FnOnce40call_once$u7b$$u7b$vtable.shim$u7d$$u7d$17hf4c30c73891ee5bdE', symObjAddr: 0xA4E2C, symBinAddr: 0x9F078, symSize: 0x148 }
  - { offset: 0x392AB3, size: 0x8, addend: 0x0, symName: '__ZN4core3ops8function6FnOnce40call_once$u7b$$u7b$vtable.shim$u7d$$u7d$17h80071b76d219227bE', symObjAddr: 0xA4F88, symBinAddr: 0x9F1D4, symSize: 0x9C }
  - { offset: 0x392FE5, size: 0x8, addend: 0x0, symName: '__ZN4core3ops8function6FnOnce40call_once$u7b$$u7b$vtable.shim$u7d$$u7d$17h9e49ab07a8c022e1E', symObjAddr: 0xA74A0, symBinAddr: 0x9FDF0, symSize: 0x9C }
  - { offset: 0x393521, size: 0x8, addend: 0x0, symName: '__ZN4core3ops8function6FnOnce40call_once$u7b$$u7b$vtable.shim$u7d$$u7d$17h453b42490420b7afE', symObjAddr: 0xA7780, symBinAddr: 0xA00D0, symSize: 0x48 }
  - { offset: 0x393689, size: 0x8, addend: 0x0, symName: '__ZN4core3ops8function6FnOnce40call_once$u7b$$u7b$vtable.shim$u7d$$u7d$17he79922eb7011979dE', symObjAddr: 0xA7954, symBinAddr: 0xA02A4, symSize: 0x5C }
  - { offset: 0x3937BD, size: 0x8, addend: 0x0, symName: '__ZN4core3ops8function6FnOnce40call_once$u7b$$u7b$vtable.shim$u7d$$u7d$17habde83d1a53a8b70E', symObjAddr: 0xA7F28, symBinAddr: 0xA05C0, symSize: 0x12C }
  - { offset: 0x3940C3, size: 0x8, addend: 0x0, symName: '__ZN4core3ops8function6FnOnce40call_once$u7b$$u7b$vtable.shim$u7d$$u7d$17hd464e590b160b4adE', symObjAddr: 0xA8054, symBinAddr: 0xA06EC, symSize: 0x110 }
  - { offset: 0x39465C, size: 0x8, addend: 0x0, symName: '__ZN4core3ops8function6FnOnce40call_once$u7b$$u7b$vtable.shim$u7d$$u7d$17h4c90c78ba770ad86E', symObjAddr: 0xABED0, symBinAddr: 0xA1ECC, symSize: 0x78 }
  - { offset: 0x395095, size: 0x8, addend: 0x0, symName: '__ZN36_$LT$T$u20$as$u20$core..any..Any$GT$7type_id17h766be4036bcb7b45E', symObjAddr: 0x9FE68, symBinAddr: 0x9A6D4, symSize: 0x14 }
  - { offset: 0x3950C1, size: 0x8, addend: 0x0, symName: '__ZN36_$LT$T$u20$as$u20$core..any..Any$GT$7type_id17h766be4036bcb7b45E', symObjAddr: 0x9FE68, symBinAddr: 0x9A6D4, symSize: 0x14 }
  - { offset: 0x3957A8, size: 0x8, addend: 0x0, symName: '__ZN102_$LT$core..iter..adapters..map..Map$LT$I$C$F$GT$$u20$as$u20$core..iter..traits..iterator..Iterator$GT$4next17h36fbd797c4ffe68eE', symObjAddr: 0xAB2B0, symBinAddr: 0xA12AC, symSize: 0x1D0 }
  - { offset: 0x396F79, size: 0x8, addend: 0x0, symName: __ZN4core4hash11BuildHasher8hash_one17hcf79d8d4f06954e4E, symObjAddr: 0xABF48, symBinAddr: 0xA1F44, symSize: 0x134 }
  - { offset: 0x399307, size: 0x8, addend: 0x0, symName: '__ZN9once_cell3imp17OnceCell$LT$T$GT$10initialize28_$u7b$$u7b$closure$u7d$$u7d$17h3344c6a86e49510eE', symObjAddr: 0xA027C, symBinAddr: 0x9AA34, symSize: 0x33C }
  - { offset: 0x399B93, size: 0x8, addend: 0x0, symName: '__ZN9once_cell3imp17OnceCell$LT$T$GT$10initialize28_$u7b$$u7b$closure$u7d$$u7d$17h90288dba81214412E', symObjAddr: 0xA248C, symBinAddr: 0x9C828, symSize: 0xF4 }
  - { offset: 0x39A842, size: 0x8, addend: 0x0, symName: '__ZN3std4sync4once4Once15call_once_force28_$u7b$$u7b$closure$u7d$$u7d$17h936a9845bf283e15E', symObjAddr: 0x9F554, symBinAddr: 0x9A140, symSize: 0x3C }
  - { offset: 0x39A932, size: 0x8, addend: 0x0, symName: '__ZN3std4sync4once4Once15call_once_force28_$u7b$$u7b$closure$u7d$$u7d$17h3d82962d04695697E', symObjAddr: 0xA2B98, symBinAddr: 0x9CEDC, symSize: 0x6C }
  - { offset: 0x39A9D8, size: 0x8, addend: 0x0, symName: '__ZN3std4sync4once4Once15call_once_force28_$u7b$$u7b$closure$u7d$$u7d$17h91d988c6bf10b93bE', symObjAddr: 0xA77C8, symBinAddr: 0xA0118, symSize: 0x48 }
  - { offset: 0x39AAFC, size: 0x8, addend: 0x0, symName: '__ZN3std4sync4once4Once15call_once_force28_$u7b$$u7b$closure$u7d$$u7d$17he2b72a2041395e3cE', symObjAddr: 0xA79B0, symBinAddr: 0xA0300, symSize: 0x5C }
  - { offset: 0x39AC54, size: 0x8, addend: 0x0, symName: '__ZN3std4sync4once4Once9call_once28_$u7b$$u7b$closure$u7d$$u7d$17h0433a1af65bd72e2E', symObjAddr: 0x9FF70, symBinAddr: 0x9A7DC, symSize: 0x2C }
  - { offset: 0x39ACC1, size: 0x8, addend: 0x0, symName: '__ZN3std4sync4once4Once9call_once28_$u7b$$u7b$closure$u7d$$u7d$17h3a4a92e050e1e919E', symObjAddr: 0xA26EC, symBinAddr: 0x9CA88, symSize: 0x37C }
  - { offset: 0x39B9EE, size: 0x8, addend: 0x0, symName: '__ZN3std4sync4once4Once9call_once28_$u7b$$u7b$closure$u7d$$u7d$17h583956817fd94d79E', symObjAddr: 0xA2C68, symBinAddr: 0x9CFAC, symSize: 0x64 }
  - { offset: 0x39BED0, size: 0x8, addend: 0x0, symName: '__ZN76_$LT$std..sync..poison..PoisonError$LT$T$GT$$u20$as$u20$core..fmt..Debug$GT$3fmt17h23a9a9cbf6966700E', symObjAddr: 0xA2A68, symBinAddr: 0x9CE04, symSize: 0x6C }
  - { offset: 0x39C2AF, size: 0x8, addend: 0x0, symName: '__ZN71_$LT$std..hash..random..DefaultHasher$u20$as$u20$core..hash..Hasher$GT$5write17h2ffe0a28bc6c6498E', symObjAddr: 0xAC07C, symBinAddr: 0xA2078, symSize: 0x1E8 }
  - { offset: 0x39EC5F, size: 0x8, addend: 0x0, symName: __ZN5alloc5alloc15exchange_malloc17hb1e0529d4a040f06E.1437, symObjAddr: 0x9FE2C, symBinAddr: 0x9A698, symSize: 0x28 }
  - { offset: 0x39F87F, size: 0x8, addend: 0x0, symName: '__ZN5alloc7raw_vec20RawVecInner$LT$A$GT$7reserve21do_reserve_and_handle17h16626fe8e9820cb3E', symObjAddr: 0xA466C, symBinAddr: 0x13D130, symSize: 0x8C }
  - { offset: 0x3A00E4, size: 0x8, addend: 0x0, symName: '__ZN58_$LT$alloc..string..String$u20$as$u20$core..fmt..Write$GT$9write_str17hfaf892e59da79312E.1495', symObjAddr: 0xA44B8, symBinAddr: 0x9E790, symSize: 0x80 }
  - { offset: 0x3A0383, size: 0x8, addend: 0x0, symName: '__ZN58_$LT$alloc..string..String$u20$as$u20$core..fmt..Write$GT$10write_char17h5a90e0e0b6d91f2fE.1496', symObjAddr: 0xA4538, symBinAddr: 0x9E810, symSize: 0x120 }
  - { offset: 0x3A4EC2, size: 0x8, addend: 0x0, symName: __ZN4pyo33err5PyErr4take17h338b47d53f41d3c8E, symObjAddr: 0x9EDF8, symBinAddr: 0x99F10, symSize: 0x130 }
  - { offset: 0x3A5866, size: 0x8, addend: 0x0, symName: '__ZN3std4sync9once_lock17OnceLock$LT$T$GT$10initialize17h6b9c57b70272f743E', symObjAddr: 0x9F1E8, symBinAddr: 0x13C538, symSize: 0x54 }
  - { offset: 0x3A58DF, size: 0x8, addend: 0x0, symName: '__ZN3std4sync9once_lock17OnceLock$LT$T$GT$10initialize17h6b9c57b70272f743E', symObjAddr: 0x9F1E8, symBinAddr: 0x13C538, symSize: 0x54 }
  - { offset: 0x3A58FC, size: 0x8, addend: 0x0, symName: '__ZN3std4sync9once_lock17OnceLock$LT$T$GT$10initialize17h6b9c57b70272f743E', symObjAddr: 0x9F1E8, symBinAddr: 0x13C538, symSize: 0x54 }
  - { offset: 0x3A591F, size: 0x8, addend: 0x0, symName: '__ZN3std4sync9once_lock17OnceLock$LT$T$GT$10initialize17h6b9c57b70272f743E', symObjAddr: 0x9F1E8, symBinAddr: 0x13C538, symSize: 0x54 }
  - { offset: 0x3A5A28, size: 0x8, addend: 0x0, symName: '__ZN3std3sys4sync8once_box16OnceBox$LT$T$GT$10initialize17h02998d14ce98ae30E', symObjAddr: 0x9F23C, symBinAddr: 0x13C58C, symSize: 0xDC }
  - { offset: 0x3A60B2, size: 0x8, addend: 0x0, symName: '__ZN5alloc7raw_vec19RawVec$LT$T$C$A$GT$8grow_one17hb1d90a5aab9b2ab8E', symObjAddr: 0x9F318, symBinAddr: 0x13C668, symSize: 0x6C }
  - { offset: 0x3A645F, size: 0x8, addend: 0x0, symName: '__ZN5alloc7raw_vec20RawVecInner$LT$A$GT$11finish_grow17h33239599ff5d1eccE', symObjAddr: 0x9F3D0, symBinAddr: 0x13C6D4, symSize: 0x148 }
  - { offset: 0x3A6A46, size: 0x8, addend: 0x0, symName: __ZN4pyo33err9err_state10PyErrState7restore17h38b73293ebd10bbcE, symObjAddr: 0x9F590, symBinAddr: 0x9A17C, symSize: 0xA8 }
  - { offset: 0x3A719C, size: 0x8, addend: 0x0, symName: __ZN4pyo33err5PyErr22print_panic_and_unwind17h1f6249b2792538a3E, symObjAddr: 0x9F984, symBinAddr: 0x13C8BC, symSize: 0x2E0 }
  - { offset: 0x3A7F3C, size: 0x8, addend: 0x0, symName: '__ZN4pyo35types6string79_$LT$impl$u20$pyo3..instance..Borrowed$LT$pyo3..types..string..PyString$GT$$GT$15to_string_lossy17hfdbd0bc8d64d5660E', symObjAddr: 0x9FC64, symBinAddr: 0x9A4D0, symSize: 0x1C8 }
  - { offset: 0x3A8704, size: 0x8, addend: 0x0, symName: __ZN4pyo38internal5state13ReferencePool24drop_deferred_references17h4b776fb4b7e0a86fE, symObjAddr: 0x9FF9C, symBinAddr: 0x9A808, symSize: 0x1C8 }
  - { offset: 0x3A8F82, size: 0x8, addend: 0x0, symName: '__ZN9once_cell3imp17OnceCell$LT$T$GT$10initialize17hc0a62bc86961842cE', symObjAddr: 0xA0164, symBinAddr: 0x13CB9C, symSize: 0xB4 }
  - { offset: 0x3A9B65, size: 0x8, addend: 0x0, symName: __ZN4pyo38internal5state11AttachGuard10try_attach17h6a3f9395dee1b8f9E, symObjAddr: 0xA101C, symBinAddr: 0x9B7D4, symSize: 0xF4 }
  - { offset: 0x3A9EE0, size: 0x8, addend: 0x0, symName: __ZN4pyo38internal5state11AttachGuard19do_attach_unchecked17h93223dafcfcdbbbcE, symObjAddr: 0xA1170, symBinAddr: 0x13CC50, symSize: 0x60 }
  - { offset: 0x3AA38C, size: 0x8, addend: 0x0, symName: __ZN4pyo33err9err_state10PyErrState15make_normalized17h03b83c35cfc9e87cE, symObjAddr: 0xA11D0, symBinAddr: 0x13CCB0, symSize: 0x270 }
  - { offset: 0x3AAF05, size: 0x8, addend: 0x0, symName: '__ZN5alloc7raw_vec20RawVecInner$LT$A$GT$15try_allocate_in17h5ff160129fb759a1E', symObjAddr: 0xA1914, symBinAddr: 0x9BD5C, symSize: 0x74 }
  - { offset: 0x3AAF3B, size: 0x8, addend: 0x0, symName: '__ZN5alloc7raw_vec20RawVecInner$LT$A$GT$15try_allocate_in17h5ff160129fb759a1E', symObjAddr: 0xA1914, symBinAddr: 0x9BD5C, symSize: 0x74 }
  - { offset: 0x3AAF60, size: 0x8, addend: 0x0, symName: '__ZN5alloc7raw_vec20RawVecInner$LT$A$GT$15try_allocate_in17h5ff160129fb759a1E', symObjAddr: 0xA1914, symBinAddr: 0x9BD5C, symSize: 0x74 }
  - { offset: 0x3AAF78, size: 0x8, addend: 0x0, symName: '__ZN5alloc7raw_vec20RawVecInner$LT$A$GT$15try_allocate_in17h5ff160129fb759a1E', symObjAddr: 0xA1914, symBinAddr: 0x9BD5C, symSize: 0x74 }
  - { offset: 0x3AAF96, size: 0x8, addend: 0x0, symName: '__ZN5alloc7raw_vec20RawVecInner$LT$A$GT$15try_allocate_in17h5ff160129fb759a1E', symObjAddr: 0xA1914, symBinAddr: 0x9BD5C, symSize: 0x74 }
  - { offset: 0x3AAFAE, size: 0x8, addend: 0x0, symName: '__ZN5alloc7raw_vec20RawVecInner$LT$A$GT$15try_allocate_in17h5ff160129fb759a1E', symObjAddr: 0xA1914, symBinAddr: 0x9BD5C, symSize: 0x74 }
  - { offset: 0x3AAFCA, size: 0x8, addend: 0x0, symName: '__ZN5alloc7raw_vec20RawVecInner$LT$A$GT$15try_allocate_in17h5ff160129fb759a1E', symObjAddr: 0xA1914, symBinAddr: 0x9BD5C, symSize: 0x74 }
  - { offset: 0x3AAFE8, size: 0x8, addend: 0x0, symName: '__ZN5alloc7raw_vec20RawVecInner$LT$A$GT$15try_allocate_in17h5ff160129fb759a1E', symObjAddr: 0xA1914, symBinAddr: 0x9BD5C, symSize: 0x74 }
  - { offset: 0x3AB00C, size: 0x8, addend: 0x0, symName: '__ZN5alloc7raw_vec20RawVecInner$LT$A$GT$15try_allocate_in17h5ff160129fb759a1E', symObjAddr: 0xA1914, symBinAddr: 0x9BD5C, symSize: 0x74 }
  - { offset: 0x3AB816, size: 0x8, addend: 0x0, symName: '__ZN9once_cell3imp17OnceCell$LT$T$GT$10initialize17h8a75b326acee9b24E', symObjAddr: 0xA237C, symBinAddr: 0x13CFC0, symSize: 0xAC }
  - { offset: 0x3ABF03, size: 0x8, addend: 0x0, symName: __ZN4pyo38internal5state15ForbidAttaching4bail17hd94aadb901002abdE, symObjAddr: 0xA2AD4, symBinAddr: 0x13D06C, symSize: 0x58 }
  - { offset: 0x3AC078, size: 0x8, addend: 0x0, symName: __ZN4pyo33err5PyErr14is_instance_of17he1a3d1e6e622f70cE, symObjAddr: 0xA2E70, symBinAddr: 0x9D1B4, symSize: 0x120 }
  - { offset: 0x3AD461, size: 0x8, addend: 0x0, symName: __ZN4pyo33err5PyErr5value17h7cbdc96a92e77b79E, symObjAddr: 0xA4BD0, symBinAddr: 0x9EE1C, symSize: 0x48 }
  - { offset: 0x3AD4B6, size: 0x8, addend: 0x0, symName: __ZN4pyo33err5PyErr5value17h7cbdc96a92e77b79E, symObjAddr: 0xA4BD0, symBinAddr: 0x9EE1C, symSize: 0x48 }
  - { offset: 0x3AD4D1, size: 0x8, addend: 0x0, symName: __ZN4pyo33err5PyErr5value17h7cbdc96a92e77b79E, symObjAddr: 0xA4BD0, symBinAddr: 0x9EE1C, symSize: 0x48 }
  - { offset: 0x3AD4ED, size: 0x8, addend: 0x0, symName: __ZN4pyo33err5PyErr5value17h7cbdc96a92e77b79E, symObjAddr: 0xA4BD0, symBinAddr: 0x9EE1C, symSize: 0x48 }
  - { offset: 0x3AD50E, size: 0x8, addend: 0x0, symName: __ZN4pyo33err5PyErr5value17h7cbdc96a92e77b79E, symObjAddr: 0xA4BD0, symBinAddr: 0x9EE1C, symSize: 0x48 }
  - { offset: 0x3AD533, size: 0x8, addend: 0x0, symName: __ZN4pyo33err5PyErr8get_type17hf6d712a9f4b7e513E, symObjAddr: 0xA4C18, symBinAddr: 0x9EE64, symSize: 0x78 }
  - { offset: 0x3AD7F1, size: 0x8, addend: 0x0, symName: __ZN4pyo33err5PyErr9set_cause17hea0aff3be7748cc9E, symObjAddr: 0xA4C90, symBinAddr: 0x9EEDC, symSize: 0x188 }
  - { offset: 0x3ADE6D, size: 0x8, addend: 0x0, symName: __ZN4pyo35impl_16extract_argument19FunctionDescription27unexpected_keyword_argument17hcbe43b08d0d039e6E, symObjAddr: 0xA5024, symBinAddr: 0x13D1BC, symSize: 0x148 }
  - { offset: 0x3AE576, size: 0x8, addend: 0x0, symName: __ZN4pyo35impl_16extract_argument19FunctionDescription28multiple_values_for_argument17hafd33efe34b8457aE, symObjAddr: 0xA516C, symBinAddr: 0x13D304, symSize: 0x130 }
  - { offset: 0x3AEC30, size: 0x8, addend: 0x0, symName: __ZN4pyo35impl_16extract_argument19FunctionDescription29too_many_positional_arguments17h1adede14d9b27906E, symObjAddr: 0xA529C, symBinAddr: 0x13D434, symSize: 0x238 }
  - { offset: 0x3AF451, size: 0x8, addend: 0x0, symName: __ZN4pyo35impl_16extract_argument19FunctionDescription33positional_only_keyword_arguments17h0d0fb3e5c474f9cbE, symObjAddr: 0xA54D4, symBinAddr: 0x13D66C, symSize: 0x160 }
  - { offset: 0x3B01E3, size: 0x8, addend: 0x0, symName: __ZN4pyo35impl_16extract_argument19FunctionDescription34missing_required_keyword_arguments17hb16f9456d9c93369E, symObjAddr: 0xA5948, symBinAddr: 0x13D7CC, symSize: 0x2C0 }
  - { offset: 0x3B0B58, size: 0x8, addend: 0x0, symName: __ZN4pyo35impl_16extract_argument19FunctionDescription26missing_required_arguments17h31efbb7fbfa5acf8E, symObjAddr: 0xA5C08, symBinAddr: 0x13DA8C, symSize: 0x1A8 }
  - { offset: 0x3B15CA, size: 0x8, addend: 0x0, symName: __ZN4pyo35impl_16extract_argument19FunctionDescription37missing_required_positional_arguments17h987946561b6a58f1E, symObjAddr: 0xA5DB0, symBinAddr: 0x13DC34, symSize: 0x390 }
  - { offset: 0x3B2C16, size: 0x8, addend: 0x0, symName: __ZN4pyo35impl_7pyclass16lazy_type_object19LazyTypeObjectInner15get_or_try_init17hdda0afff770170c3E, symObjAddr: 0xA6620, symBinAddr: 0x9F62C, symSize: 0x624 }
  - { offset: 0x3B3F01, size: 0x8, addend: 0x0, symName: '__ZN4pyo34sync20GILOnceCell$LT$T$GT$4init17h3aa2fbc79e8c7f30E', symObjAddr: 0xA6C44, symBinAddr: 0x13E3FC, symSize: 0x150 }
  - { offset: 0x3B41D7, size: 0x8, addend: 0x0, symName: '__ZN5alloc7raw_vec19RawVec$LT$T$C$A$GT$8grow_one17h344997a8714acfeeE', symObjAddr: 0xA6DE8, symBinAddr: 0x13E54C, symSize: 0x68 }
  - { offset: 0x3B4618, size: 0x8, addend: 0x0, symName: '__ZN4pyo34sync20GILOnceCell$LT$T$GT$4init17h4dae311c75415b8eE', symObjAddr: 0xA6F40, symBinAddr: 0x13E5B4, symSize: 0x394 }
  - { offset: 0x3B5133, size: 0x8, addend: 0x0, symName: '__ZN5alloc7raw_vec19RawVec$LT$T$C$A$GT$8grow_one17h451135aaba349d24E', symObjAddr: 0xA72D4, symBinAddr: 0x13E948, symSize: 0x68 }
  - { offset: 0x3B567F, size: 0x8, addend: 0x0, symName: __ZN4pyo35impl_7pyclass17ThreadCheckerImpl6ensure17h806fafd85cb16c5cE, symObjAddr: 0xA7A6C, symBinAddr: 0xA035C, symSize: 0xF4 }
  - { offset: 0x3B5A93, size: 0x8, addend: 0x0, symName: __ZN4pyo35impl_7pyclass17ThreadCheckerImpl8can_drop17hb49bc0b01a099263E, symObjAddr: 0xA7B60, symBinAddr: 0xA0450, symSize: 0x15C }
  - { offset: 0x3B637F, size: 0x8, addend: 0x0, symName: __ZN4pyo35panic14PanicException18from_panic_payload17ha13ecde94210a983E, symObjAddr: 0xA7CBC, symBinAddr: 0x13EB18, symSize: 0x258 }
  - { offset: 0x3B77F2, size: 0x8, addend: 0x0, symName: __ZN4pyo35types4dict6PyDict3new17h5eae41ed15671698E, symObjAddr: 0xA8788, symBinAddr: 0xA0E20, symSize: 0x24 }
  - { offset: 0x3B7898, size: 0x8, addend: 0x0, symName: __ZN4pyo35types6string8PyString3new17h89f765440a9a2476E, symObjAddr: 0xA88A4, symBinAddr: 0xA0F3C, symSize: 0x24 }
  - { offset: 0x3BA774, size: 0x8, addend: 0x0, symName: '__ZN5alloc7raw_vec19RawVec$LT$T$C$A$GT$8grow_one17h2453ee1dff099dbbE', symObjAddr: 0xAABB8, symBinAddr: 0x140D94, symSize: 0x68 }
  - { offset: 0x3BA902, size: 0x8, addend: 0x0, symName: '__ZN5alloc7raw_vec19RawVec$LT$T$C$A$GT$8grow_one17h36d2126b595fa3b2E', symObjAddr: 0xAACA0, symBinAddr: 0x140DFC, symSize: 0x68 }
  - { offset: 0x3BB4C0, size: 0x8, addend: 0x0, symName: '__ZN9hashbrown3raw21RawTable$LT$T$C$A$GT$14reserve_rehash17h50e60afcc997d89aE', symObjAddr: 0xAAD08, symBinAddr: 0x140E64, symSize: 0x540 }
  - { offset: 0x3BD09A, size: 0x8, addend: 0x0, symName: '__ZN5alloc7raw_vec19RawVec$LT$T$C$A$GT$8grow_one17h5081f505ac7dbf70E', symObjAddr: 0xAB248, symBinAddr: 0x1413A4, symSize: 0x68 }
  - { offset: 0x3BDA7B, size: 0x8, addend: 0x0, symName: __ZN4pyo38internal5state11AttachGuard6attach17hdc95a7d3098ac710E, symObjAddr: 0xAC264, symBinAddr: 0xA2260, symSize: 0x88 }
  - { offset: 0x35DA67, size: 0x8, addend: 0x0, symName: '__ZN63_$LT$once_cell..imp..Guard$u20$as$u20$core..ops..drop..Drop$GT$4drop17hf10c04807bb21ebaE', symObjAddr: 0x9E8D0, symBinAddr: 0x999E8, symSize: 0xD8 }
  - { offset: 0x35E611, size: 0x8, addend: 0x0, symName: '__ZN63_$LT$once_cell..imp..Guard$u20$as$u20$core..ops..drop..Drop$GT$4drop17hf10c04807bb21ebaE', symObjAddr: 0x9E8D0, symBinAddr: 0x999E8, symSize: 0xD8 }
  - { offset: 0x35EAA6, size: 0x8, addend: 0x0, symName: __ZN9once_cell3imp18initialize_or_wait17hc27ea53a3c2cda25E, symObjAddr: 0x9E9A8, symBinAddr: 0x99AC0, symSize: 0x2BC }
  - { offset: 0x3BDEAA, size: 0x8, addend: 0x0, symName: '__ZN56_$LT$regex..error..Error$u20$as$u20$core..fmt..Debug$GT$3fmt17hc5a5e76a4ece642aE', symObjAddr: 0xAC3B0, symBinAddr: 0xA2360, symSize: 0x240 }
  - { offset: 0x3BDF83, size: 0x8, addend: 0x0, symName: '__ZN56_$LT$regex..error..Error$u20$as$u20$core..fmt..Debug$GT$3fmt17hc5a5e76a4ece642aE', symObjAddr: 0xAC3B0, symBinAddr: 0xA2360, symSize: 0x240 }
  - { offset: 0x3BF8FA, size: 0x8, addend: 0x0, symName: '__ZN4core3ptr56drop_in_place$LT$regex_automata..meta..regex..Config$GT$17h5fed8ee2aa8868c1E', symObjAddr: 0xACB80, symBinAddr: 0xA26A0, symSize: 0x38 }
  - { offset: 0x3BFA44, size: 0x8, addend: 0x0, symName: '__ZN4core3ptr57drop_in_place$LT$regex_automata..meta..regex..Builder$GT$17hd5fe09d9c01f3d12E', symObjAddr: 0xACBB8, symBinAddr: 0xA26D8, symSize: 0x38 }
  - { offset: 0x3BFC7E, size: 0x8, addend: 0x0, symName: '__ZN4core3ptr60drop_in_place$LT$regex_automata..meta..error..BuildError$GT$17h8c9ca4979f21288bE', symObjAddr: 0xACBF0, symBinAddr: 0xA2710, symSize: 0xD0 }
  - { offset: 0x3BFFBE, size: 0x8, addend: 0x0, symName: '__ZN4core3ptr58drop_in_place$LT$regex..builders..string..RegexBuilder$GT$17h44f4618483ff3377E', symObjAddr: 0xAE238, symBinAddr: 0xA2994, symSize: 0xA0 }
  - { offset: 0x3C0AD5, size: 0x8, addend: 0x0, symName: '__ZN44_$LT$$RF$T$u20$as$u20$core..fmt..Display$GT$3fmt17hd6b0f3baf65f674bE', symObjAddr: 0xAC6D8, symBinAddr: 0xA25A0, symSize: 0x14 }
  - { offset: 0x3C0C3B, size: 0x8, addend: 0x0, symName: '__ZN4core3fmt3num52_$LT$impl$u20$core..fmt..Debug$u20$for$u20$usize$GT$3fmt17h92cb54035fd7d9bcE.1610', symObjAddr: 0xAC8C0, symBinAddr: 0xA25B4, symSize: 0xEC }
  - { offset: 0x3C0DC8, size: 0x8, addend: 0x0, symName: __ZN4core3fmt5Write9write_fmt17h00aac426c4bddec8E, symObjAddr: 0xACE60, symBinAddr: 0xA2980, symSize: 0x14 }
  - { offset: 0x3C3989, size: 0x8, addend: 0x0, symName: '__ZN95_$LT$alloc..string..String$u20$as$u20$core..iter..traits..collect..FromIterator$LT$char$GT$$GT$9from_iter17h5ba66a70222393eeE', symObjAddr: 0xAC5F0, symBinAddr: 0x141458, symSize: 0xE8 }
  - { offset: 0x3C40E3, size: 0x8, addend: 0x0, symName: '__ZN58_$LT$alloc..string..String$u20$as$u20$core..fmt..Write$GT$9write_str17hfaf892e59da79312E.1616', symObjAddr: 0xACCC0, symBinAddr: 0xA27E0, symSize: 0x80 }
